TN:
SF:/usr/include/c++/11/bits/char_traits.h
FN:106,_ZN9__gnu_cxx11char_traitsIcE2eqERKcS3_
FNDA:0,_ZN9__gnu_cxx11char_traitsIcE2eqERKcS3_
FN:167,_ZN9__gnu_cxx11char_traitsIcE6lengthEPKc
FNDA:0,_ZN9__gnu_cxx11char_traitsIcE6lengthEPKc
FN:393,_ZNSt11char_traitsIcE6lengthEPKc
FNDA:0,_ZNSt11char_traitsIcE6lengthEPKc
DA:106,0
DA:107,0
DA:167,0
DA:170,0
DA:171,0
BRDA:171,0,0,-
BRDA:171,0,1,-
DA:172,0
DA:173,0
DA:290,0
DA:393,0
DA:396,0
BRDA:396,0,0,-
BRDA:396,0,1,-
DA:397,0
DA:399,0
end_of_record
SF:/usr/include/c++/11/bits/stl_pair.h
end_of_record
SF:/home/pavle/Qt/6.6.1/gcc_64/include/QtCore/qatomic_cxx11.h
FN:199,_ZN10QAtomicOpsIiE11loadRelaxedIiEET_RKSt6atomicIS2_E
FNDA:0,_ZN10QAtomicOpsIiE11loadRelaxedIiEET_RKSt6atomicIS2_E
FN:243,_ZN10QAtomicOpsIiE3refIiEEbRSt6atomicIT_E
FNDA:0,_ZN10QAtomicOpsIiE3refIiEEbRSt6atomicIT_E
FN:262,_ZN10QAtomicOpsIiE5derefIiEEbRSt6atomicIT_E
FNDA:0,_ZN10QAtomicOpsIiE5derefIiEEbRSt6atomicIT_E
DA:199,0
DA:201,0
DA:243,0
DA:258,0
DA:262,0
DA:265,0
end_of_record
SF:/home/pavle/Qt/6.6.1/gcc_64/include/QtCore/qbasicatomic.h
FN:38,_ZNK19QBasicAtomicIntegerIiE11loadRelaxedEv
FNDA:0,_ZNK19QBasicAtomicIntegerIiE11loadRelaxedEv
FN:49,_ZN19QBasicAtomicIntegerIiE3refEv
FNDA:0,_ZN19QBasicAtomicIntegerIiE3refEv
FN:50,_ZN19QBasicAtomicIntegerIiE5derefEv
FNDA:0,_ZN19QBasicAtomicIntegerIiE5derefEv
DA:38,0
DA:49,0
DA:50,0
end_of_record
SF:/usr/include/c++/11/ext/new_allocator.h
FN:89,_ZN9__gnu_cxx13new_allocatorISt13_Rb_tree_nodeISt4pairIK7QString5QListIS2_IS3_bEEEEED2Ev
FNDA:0,_ZN9__gnu_cxx13new_allocatorISt13_Rb_tree_nodeISt4pairIK7QString5QListIS2_IS3_bEEEEED2Ev
FN:132,_ZN9__gnu_cxx13new_allocatorISt13_Rb_tree_nodeISt4pairIK7QString5QListIS2_IS3_bEEEEE10deallocateEPS9_m
FNDA:0,_ZN9__gnu_cxx13new_allocatorISt13_Rb_tree_nodeISt4pairIK7QString5QListIS2_IS3_bEEEEE10deallocateEPS9_m
FN:166,_ZN9__gnu_cxx13new_allocatorISt13_Rb_tree_nodeISt4pairIK7QString5QListIS2_IS3_bEEEEE7destroyIS8_EEvPT_
FNDA:0,_ZN9__gnu_cxx13new_allocatorISt13_Rb_tree_nodeISt4pairIK7QString5QListIS2_IS3_bEEEEE7destroyIS8_EEvPT_
DA:89,0
DA:132,0
DA:145,0
DA:166,0
DA:168,0
end_of_record
SF:/home/pavle/Desktop/2023_Analysis_04-slagalica/04-slagalica/src/slagalica/koznazna.h
FN:18,_ZN8KoZnaZnaD0Ev
FNDA:6,_ZN8KoZnaZnaD0Ev
FN:18,_ZN8KoZnaZnaD2Ev
FNDA:6,_ZN8KoZnaZnaD2Ev
DA:18,6
DA:18,6
end_of_record
SF:/home/pavle/Qt/6.6.1/gcc_64/include/QtCore/qlist.h
end_of_record
SF:/usr/include/c++/11/bits/alloc_traits.h
FN:495,_ZNSt16allocator_traitsISaISt13_Rb_tree_nodeISt4pairIK7QString5QListIS1_IS2_bEEEEEE10deallocateERS9_PS8_m
FNDA:0,_ZNSt16allocator_traitsISaISt13_Rb_tree_nodeISt4pairIK7QString5QListIS1_IS2_bEEEEEE10deallocateERS9_PS8_m
FN:531,_ZNSt16allocator_traitsISaISt13_Rb_tree_nodeISt4pairIK7QString5QListIS1_IS2_bEEEEEE7destroyIS7_EEvRS9_PT_
FNDA:0,_ZNSt16allocator_traitsISaISt13_Rb_tree_nodeISt4pairIK7QString5QListIS1_IS2_bEEEEEE7destroyIS7_EEvRS9_PT_
DA:495,0
DA:496,0
DA:531,0
DA:535,0
DA:539,0
end_of_record
SF:/home/pavle/Qt/6.6.1/gcc_64/include/QtCore/qarraydatapointer.h
FN:37,_ZN17QArrayDataPointerIDsEC2ERKS0_
FNDA:0,_ZN17QArrayDataPointerIDsEC2ERKS0_
FN:70,_ZN17QArrayDataPointerIDsEC2EOS0_
FNDA:0,_ZN17QArrayDataPointerIDsEC2EOS0_
FN:85,_ZN17QArrayDataPointerISt4pairI7QStringbEEptEv
FNDA:0,_ZN17QArrayDataPointerISt4pairI7QStringbEEptEv
FN:85,_ZN17QArrayDataPointerIcEptEv
FNDA:0,_ZN17QArrayDataPointerIcEptEv
FN:85,_ZN17QArrayDataPointerI4QMapI7QString5QListISt4pairIS1_bEEEEptEv
FNDA:0,_ZN17QArrayDataPointerI4QMapI7QString5QListISt4pairIS1_bEEEEptEv
FN:85,_ZN17QArrayDataPointerIDsEptEv
FNDA:0,_ZN17QArrayDataPointerIDsEptEv
FN:100,_ZN17QArrayDataPointerIcED2Ev
FNDA:0,_ZN17QArrayDataPointerIcED2Ev
FN:100,_ZN17QArrayDataPointerISt4pairI7QStringbEED2Ev
FNDA:0,_ZN17QArrayDataPointerISt4pairI7QStringbEED2Ev
FN:100,_ZN17QArrayDataPointerI4QMapI7QString5QListISt4pairIS1_bEEEED2Ev
FNDA:6,_ZN17QArrayDataPointerI4QMapI7QString5QListISt4pairIS1_bEEEED2Ev
FN:100,_ZN17QArrayDataPointerIDsED2Ev
FNDA:0,_ZN17QArrayDataPointerIDsED2Ev
FN:113,_ZN17QArrayDataPointerISt4pairI7QStringbEE4dataEv
FNDA:0,_ZN17QArrayDataPointerISt4pairI7QStringbEE4dataEv
FN:113,_ZN17QArrayDataPointerI4QMapI7QString5QListISt4pairIS1_bEEEE4dataEv
FNDA:0,_ZN17QArrayDataPointerI4QMapI7QString5QListISt4pairIS1_bEEEE4dataEv
FN:116,_ZN17QArrayDataPointerISt4pairI7QStringbEE5beginEv
FNDA:0,_ZN17QArrayDataPointerISt4pairI7QStringbEE5beginEv
FN:116,_ZN17QArrayDataPointerI4QMapI7QString5QListISt4pairIS1_bEEEE5beginEv
FNDA:0,_ZN17QArrayDataPointerI4QMapI7QString5QListISt4pairIS1_bEEEE5beginEv
FN:117,_ZN17QArrayDataPointerISt4pairI7QStringbEE3endEv
FNDA:0,_ZN17QArrayDataPointerISt4pairI7QStringbEE3endEv
FN:117,_ZN17QArrayDataPointerI4QMapI7QString5QListISt4pairIS1_bEEEE3endEv
FNDA:0,_ZN17QArrayDataPointerI4QMapI7QString5QListISt4pairIS1_bEEEE3endEv
FN:412,_ZN17QArrayDataPointerIDsE3refEv
FNDA:0,_ZN17QArrayDataPointerIDsE3refEv
FN:413,_ZN17QArrayDataPointerIcE5derefEv
FNDA:0,_ZN17QArrayDataPointerIcE5derefEv
FN:413,_ZN17QArrayDataPointerIDsE5derefEv
FNDA:0,_ZN17QArrayDataPointerIDsE5derefEv
FN:413,_ZN17QArrayDataPointerI4QMapI7QString5QListISt4pairIS1_bEEEE5derefEv
FNDA:6,_ZN17QArrayDataPointerI4QMapI7QString5QListISt4pairIS1_bEEEE5derefEv
FN:413,_ZN17QArrayDataPointerISt4pairI7QStringbEE5derefEv
FNDA:0,_ZN17QArrayDataPointerISt4pairI7QStringbEE5derefEv
DA:37,0
DA:38,0
DA:40,0
DA:41,0
DA:70,0
DA:71,0
DA:73,0
DA:74,0
DA:75,0
DA:76,0
DA:85,0
DA:87,0
DA:85,0
DA:87,0
DA:85,0
DA:87,0
DA:85,0
DA:87,0
DA:100,0
DA:102,0
BRDA:102,0,0,-
BRDA:102,0,1,-
DA:103,0
DA:104,0
DA:106,0
DA:100,6
DA:102,6
BRDA:102,0,0,0
BRDA:102,0,1,6
DA:103,0
DA:104,0
DA:106,6
DA:100,0
DA:102,0
BRDA:102,0,0,-
BRDA:102,0,1,-
DA:103,0
DA:104,0
DA:106,0
DA:100,0
DA:102,0
BRDA:102,0,0,-
BRDA:102,0,1,-
DA:103,0
DA:104,0
DA:106,0
DA:113,0
DA:113,0
DA:116,0
DA:116,0
DA:117,0
DA:117,0
DA:412,0
BRDA:412,0,0,-
BRDA:412,0,1,-
DA:413,0
BRDA:413,0,0,-
BRDA:413,0,1,-
BRDA:413,0,2,-
BRDA:413,0,3,-
DA:413,6
BRDA:413,0,0,0
BRDA:413,0,1,6
BRDA:413,0,2,0
BRDA:413,0,3,0
DA:413,0
BRDA:413,0,0,-
BRDA:413,0,1,-
BRDA:413,0,2,-
BRDA:413,0,3,-
DA:413,0
BRDA:413,0,0,-
BRDA:413,0,1,-
BRDA:413,0,2,-
BRDA:413,0,3,-
end_of_record
SF:/usr/include/c++/11/bits/stl_construct.h
FN:146,_ZSt8_DestroyISt4pairI7QStringbEEvPT_
FNDA:0,_ZSt8_DestroyISt4pairI7QStringbEEvPT_
FN:146,_ZSt8_DestroyI4QMapI7QString5QListISt4pairIS1_bEEEEvPT_
FNDA:0,_ZSt8_DestroyI4QMapI7QString5QListISt4pairIS1_bEEEEvPT_
FN:160,_ZNSt12_Destroy_auxILb0EE9__destroyIPSt4pairI7QStringbEEEvT_S6_
FNDA:0,_ZNSt12_Destroy_auxILb0EE9__destroyIPSt4pairI7QStringbEEEvT_S6_
FN:160,_ZNSt12_Destroy_auxILb0EE9__destroyIP4QMapI7QString5QListISt4pairIS3_bEEEEEvT_SA_
FNDA:0,_ZNSt12_Destroy_auxILb0EE9__destroyIP4QMapI7QString5QListISt4pairIS3_bEEEEEvT_SA_
FN:182,_ZSt8_DestroyIPSt4pairI7QStringbEEvT_S4_
FNDA:0,_ZSt8_DestroyIPSt4pairI7QStringbEEvT_S4_
FN:182,_ZSt8_DestroyIP4QMapI7QString5QListISt4pairIS1_bEEEEvT_S8_
FNDA:0,_ZSt8_DestroyIP4QMapI7QString5QListISt4pairIS1_bEEEEvT_S8_
FN:251,_ZSt7destroyIPSt4pairI7QStringbEEvT_S4_
FNDA:0,_ZSt7destroyIPSt4pairI7QStringbEEvT_S4_
FN:251,_ZSt7destroyIP4QMapI7QString5QListISt4pairIS1_bEEEEvT_S8_
FNDA:0,_ZSt7destroyIP4QMapI7QString5QListISt4pairIS1_bEEEEvT_S8_
DA:146,0
DA:151,0
DA:153,0
DA:146,0
DA:151,0
DA:153,0
DA:160,0
DA:162,0
BRDA:162,0,0,-
BRDA:162,0,1,-
DA:163,0
DA:164,0
DA:160,0
DA:162,0
BRDA:162,0,0,-
BRDA:162,0,1,-
DA:163,0
DA:164,0
DA:182,0
DA:196,0
DA:197,0
DA:182,0
DA:196,0
DA:197,0
DA:251,0
DA:253,0
DA:254,0
DA:251,0
DA:253,0
DA:254,0
end_of_record
SF:/usr/include/c++/11/bits/stl_tree.h
FN:234,_ZNSt13_Rb_tree_nodeISt4pairIK7QString5QListIS0_IS1_bEEEE9_M_valptrEv
FNDA:0,_ZNSt13_Rb_tree_nodeISt4pairIK7QString5QListIS0_IS1_bEEEE9_M_valptrEv
FN:547,_ZNSt8_Rb_treeI7QStringSt4pairIKS0_5QListIS1_IS0_bEEESt10_Select1stIS6_ESt4lessIS0_ESaIS6_EE21_M_get_Node_allocatorEv
FNDA:0,_ZNSt8_Rb_treeI7QStringSt4pairIKS0_5QListIS1_IS0_bEEESt10_Select1stIS6_ESt4lessIS0_ESaIS6_EE21_M_get_Node_allocatorEv
FN:564,_ZNSt8_Rb_treeI7QStringSt4pairIKS0_5QListIS1_IS0_bEEESt10_Select1stIS6_ESt4lessIS0_ESaIS6_EE11_M_put_nodeEPSt13_Rb_tree_nodeIS6_E
FNDA:0,_ZNSt8_Rb_treeI7QStringSt4pairIKS0_5QListIS1_IS0_bEEESt10_Select1stIS6_ESt4lessIS0_ESaIS6_EE11_M_put_nodeEPSt13_Rb_tree_nodeIS6_E
FN:618,_ZNSt8_Rb_treeI7QStringSt4pairIKS0_5QListIS1_IS0_bEEESt10_Select1stIS6_ESt4lessIS0_ESaIS6_EE15_M_destroy_nodeEPSt13_Rb_tree_nodeIS6_E
FNDA:0,_ZNSt8_Rb_treeI7QStringSt4pairIKS0_5QListIS1_IS0_bEEESt10_Select1stIS6_ESt4lessIS0_ESaIS6_EE15_M_destroy_nodeEPSt13_Rb_tree_nodeIS6_E
FN:629,_ZNSt8_Rb_treeI7QStringSt4pairIKS0_5QListIS1_IS0_bEEESt10_Select1stIS6_ESt4lessIS0_ESaIS6_EE12_M_drop_nodeEPSt13_Rb_tree_nodeIS6_E
FNDA:0,_ZNSt8_Rb_treeI7QStringSt4pairIKS0_5QListIS1_IS0_bEEESt10_Select1stIS6_ESt4lessIS0_ESaIS6_EE12_M_drop_nodeEPSt13_Rb_tree_nodeIS6_E
FN:734,_ZNKSt8_Rb_treeI7QStringSt4pairIKS0_5QListIS1_IS0_bEEESt10_Select1stIS6_ESt4lessIS0_ESaIS6_EE9_M_mbeginEv
FNDA:0,_ZNKSt8_Rb_treeI7QStringSt4pairIKS0_5QListIS1_IS0_bEEESt10_Select1stIS6_ESt4lessIS0_ESaIS6_EE9_M_mbeginEv
FN:738,_ZNSt8_Rb_treeI7QStringSt4pairIKS0_5QListIS1_IS0_bEEESt10_Select1stIS6_ESt4lessIS0_ESaIS6_EE8_M_beginEv
FNDA:0,_ZNSt8_Rb_treeI7QStringSt4pairIKS0_5QListIS1_IS0_bEEESt10_Select1stIS6_ESt4lessIS0_ESaIS6_EE8_M_beginEv
FN:779,_ZNSt8_Rb_treeI7QStringSt4pairIKS0_5QListIS1_IS0_bEEESt10_Select1stIS6_ESt4lessIS0_ESaIS6_EE7_S_leftEPSt18_Rb_tree_node_base
FNDA:0,_ZNSt8_Rb_treeI7QStringSt4pairIKS0_5QListIS1_IS0_bEEESt10_Select1stIS6_ESt4lessIS0_ESaIS6_EE7_S_leftEPSt18_Rb_tree_node_base
FN:787,_ZNSt8_Rb_treeI7QStringSt4pairIKS0_5QListIS1_IS0_bEEESt10_Select1stIS6_ESt4lessIS0_ESaIS6_EE8_S_rightEPSt18_Rb_tree_node_base
FNDA:0,_ZNSt8_Rb_treeI7QStringSt4pairIKS0_5QListIS1_IS0_bEEESt10_Select1stIS6_ESt4lessIS0_ESaIS6_EE8_S_rightEPSt18_Rb_tree_node_base
FN:983,_ZNSt8_Rb_treeI7QStringSt4pairIKS0_5QListIS1_IS0_bEEESt10_Select1stIS6_ESt4lessIS0_ESaIS6_EED2Ev
FNDA:0,_ZNSt8_Rb_treeI7QStringSt4pairIKS0_5QListIS1_IS0_bEEESt10_Select1stIS6_ESt4lessIS0_ESaIS6_EED2Ev
FN:1883,_ZNSt8_Rb_treeI7QStringSt4pairIKS0_5QListIS1_IS0_bEEESt10_Select1stIS6_ESt4lessIS0_ESaIS6_EE8_M_eraseEPSt13_Rb_tree_nodeIS6_E
FNDA:0,_ZNSt8_Rb_treeI7QStringSt4pairIKS0_5QListIS1_IS0_bEEESt10_Select1stIS6_ESt4lessIS0_ESaIS6_EE8_M_eraseEPSt13_Rb_tree_nodeIS6_E
DA:234,0
DA:235,0
DA:547,0
DA:548,0
DA:564,0
DA:565,0
DA:618,0
DA:623,0
DA:624,0
DA:626,0
DA:629,0
DA:631,0
DA:632,0
DA:633,0
DA:734,0
DA:735,0
DA:738,0
DA:739,0
DA:779,0
DA:780,0
DA:787,0
DA:788,0
DA:983,0
DA:984,0
DA:1883,0
DA:1887,0
BRDA:1887,0,0,-
BRDA:1887,0,1,-
DA:1889,0
DA:1890,0
DA:1891,0
DA:1892,0
DA:1894,0
end_of_record
SF:/home/pavle/Qt/6.6.1/gcc_64/include/QtCore/qutf8stringview.h
FN:148,_ZN20QBasicUtf8StringViewILb0EE10castHelperEPKc
FNDA:0,_ZN20QBasicUtf8StringViewILb0EE10castHelperEPKc
FN:158,_ZN20QBasicUtf8StringViewILb0EEC2IcLb1EEEPKT_x
FNDA:0,_ZN20QBasicUtf8StringViewILb0EEC2IcLb1EEEPKT_x
FN:174,_ZN20QBasicUtf8StringViewILb0EEC2IPKcLb1EEERKT_
FNDA:0,_ZN20QBasicUtf8StringViewILb0EEC2IPKcLb1EEERKT_
DA:148,0
DA:149,0
DA:158,0
DA:159,0
DA:160,0
BRDA:160,0,0,-
BRDA:160,0,1,-
BRDA:160,0,2,-
BRDA:160,0,3,-
BRDA:160,0,4,-
BRDA:160,0,5,-
DA:174,0
DA:176,0
BRDA:176,0,0,-
BRDA:176,0,1,-
end_of_record
SF:/home/pavle/Qt/6.6.1/gcc_64/include/QtCore/qshareddata_impl.h
FN:65,_ZN9QtPrivate30QExplicitlySharedDataPointerV2I8QMapDataISt3mapI7QString5QListISt4pairIS3_bEESt4lessIS3_ESaIS5_IKS3_S7_EEEEED2Ev
FNDA:0,_ZN9QtPrivate30QExplicitlySharedDataPointerV2I8QMapDataISt3mapI7QString5QListISt4pairIS3_bEESt4lessIS3_ESaIS5_IKS3_S7_EEEEED2Ev
DA:65,0
DA:67,0
BRDA:67,0,0,-
BRDA:67,0,1,-
BRDA:67,0,2,-
BRDA:67,0,3,-
BRDA:67,0,4,-
BRDA:67,0,5,-
DA:68,0
BRDA:68,0,0,-
BRDA:68,0,1,-
DA:69,0
end_of_record
SF:/home/pavle/Desktop/2023_Analysis_04-slagalica/04-slagalica/src/slagalica/koznazna.cpp
FN:4,_ZN8KoZnaZna5guessEiiP10QTcpSocketii
FNDA:1,_ZN8KoZnaZna5guessEiiP10QTcpSocketii
FN:22,_ZN8KoZnaZna4initEv
FNDA:0,_ZN8KoZnaZna4initEv
FN:27,_ZN8KoZnaZna14calculateScoreEv
FNDA:0,_ZN8KoZnaZna14calculateScoreEv
FN:32,_ZN8KoZnaZna14calculateScoreEbdd
FNDA:0,_ZN8KoZnaZna14calculateScoreEbdd
FN:43,_ZN8KoZnaZna11sendMessageEP10QTcpSocket7QString
FNDA:1,_ZN8KoZnaZna11sendMessageEP10QTcpSocket7QString
DA:4,1
DA:6,2
BRDA:6,0,0,1
BRDA:6,0,1,0
DA:7,2
BRDA:7,0,0,1
BRDA:7,0,1,0
DA:8,4
BRDA:8,0,0,1
BRDA:8,0,1,0
BRDA:8,0,2,1
BRDA:8,0,3,0
DA:9,4
BRDA:9,0,0,1
BRDA:9,0,1,0
BRDA:9,0,2,1
BRDA:9,0,3,0
BRDA:9,0,4,1
BRDA:9,0,5,0
DA:10,3
BRDA:10,0,0,1
BRDA:10,0,1,0
BRDA:10,0,2,1
BRDA:10,0,3,0
BRDA:10,0,4,1
BRDA:10,0,5,0
DA:12,1
BRDA:12,0,0,1
BRDA:12,0,1,0
DA:20,1
DA:22,0
DA:25,0
DA:27,0
DA:29,0
DA:32,0
DA:34,0
BRDA:34,0,0,-
BRDA:34,0,1,-
BRDA:34,0,2,-
BRDA:34,0,3,-
DA:35,0
DA:36,0
BRDA:36,0,0,-
BRDA:36,0,1,-
DA:37,0
DA:40,0
DA:43,1
DA:45,1
BRDA:45,0,0,1
BRDA:45,0,1,0
DA:46,1
DA:47,1
end_of_record
SF:/home/pavle/Qt/6.6.1/gcc_64/include/QtCore/qbytearray.h
FN:521,_ZN10QByteArrayD2Ev
FNDA:0,_ZN10QByteArrayD2Ev
DA:521,0
end_of_record
SF:/usr/include/c++/11/bits/atomic_base.h
FN:104,_ZStanSt12memory_orderSt23__memory_order_modifier
FNDA:0,_ZStanSt12memory_orderSt23__memory_order_modifier
DA:104,0
DA:106,0
DA:484,0
DA:488,0
DA:618,0
DA:628,0
end_of_record
SF:/home/pavle/Qt/6.6.1/gcc_64/include/QtCore/qmap.h
end_of_record
SF:/home/pavle/Qt/6.6.1/gcc_64/include/QtCore/qarraydataops.h
FN:95,_ZN9QtPrivate12QPodArrayOpsIDsE10destroyAllEv
FNDA:0,_ZN9QtPrivate12QPodArrayOpsIDsE10destroyAllEv
FN:95,_ZN9QtPrivate12QPodArrayOpsIcE10destroyAllEv
FNDA:0,_ZN9QtPrivate12QPodArrayOpsIcE10destroyAllEv
FN:389,_ZN9QtPrivate16QGenericArrayOpsISt4pairI7QStringbEE10destroyAllEv
FNDA:0,_ZN9QtPrivate16QGenericArrayOpsISt4pairI7QStringbEE10destroyAllEv
FN:389,_ZN9QtPrivate16QGenericArrayOpsI4QMapI7QString5QListISt4pairIS2_bEEEE10destroyAllEv
FNDA:0,_ZN9QtPrivate16QGenericArrayOpsI4QMapI7QString5QListISt4pairIS2_bEEEE10destroyAllEv
DA:95,0
DA:97,0
BRDA:97,0,0,-
BRDA:97,0,1,-
DA:98,0
BRDA:98,0,0,-
BRDA:98,0,1,-
DA:102,0
DA:95,0
DA:97,0
BRDA:97,0,0,-
BRDA:97,0,1,-
DA:98,0
BRDA:98,0,0,-
BRDA:98,0,1,-
DA:102,0
DA:389,0
DA:391,0
BRDA:391,0,0,-
BRDA:391,0,1,-
DA:395,0
BRDA:395,0,0,-
BRDA:395,0,1,-
DA:397,0
DA:398,0
DA:389,0
DA:391,0
BRDA:391,0,0,-
BRDA:391,0,1,-
DA:395,0
BRDA:395,0,0,-
BRDA:395,0,1,-
DA:397,0
DA:398,0
end_of_record
SF:/home/pavle/Qt/6.6.1/gcc_64/include/QtCore/qarraydata.h
FN:49,_ZN10QArrayData3refEv
FNDA:0,_ZN10QArrayData3refEv
FN:56,_ZN10QArrayData5derefEv
FNDA:0,_ZN10QArrayData5derefEv
DA:49,0
DA:51,0
DA:52,0
DA:56,0
DA:58,0
end_of_record
SF:/usr/include/c++/11/bits/stl_map.h
FN:302,_ZNSt3mapI7QString5QListISt4pairIS0_bEESt4lessIS0_ESaIS2_IKS0_S4_EEED2Ev
FNDA:0,_ZNSt3mapI7QString5QListISt4pairIS0_bEESt4lessIS0_ESaIS2_IKS0_S4_EEED2Ev
DA:302,0
end_of_record
SF:/usr/include/c++/11/bits/move.h
FN:49,_ZSt11__addressofISt4pairI7QStringbEEPT_RS3_
FNDA:0,_ZSt11__addressofISt4pairI7QStringbEEPT_RS3_
FN:49,_ZSt11__addressofI4QMapI7QString5QListISt4pairIS1_bEEEEPT_RS7_
FNDA:0,_ZSt11__addressofI4QMapI7QString5QListISt4pairIS1_bEEEEPT_RS7_
FN:104,_ZSt4moveIR7QStringEONSt16remove_referenceIT_E4typeEOS3_
FNDA:0,_ZSt4moveIR7QStringEONSt16remove_referenceIT_E4typeEOS3_
DA:49,0
DA:50,0
DA:49,0
DA:50,0
DA:104,0
DA:105,0
end_of_record
SF:/home/pavle/Qt/6.6.1/gcc_64/include/QtCore/qstring.h
FN:178,_ZN7QStringC2EOS_
FNDA:0,_ZN7QStringC2EOS_
FN:463,_ZN7QStringpLERKS_
FNDA:0,_ZN7QStringpLERKS_
FN:563,_ZNKR7QString6toUtf8Ev
FNDA:0,_ZNKR7QString6toUtf8Ev
FN:806,_ZN7QStringpLEPKc
FNDA:0,_ZN7QStringpLEPKc
FN:1107,_ZN7QStringC2ERKS_
FNDA:0,_ZN7QStringC2ERKS_
FN:1169,_ZN7QStringD2Ev
FNDA:0,_ZN7QStringD2Ev
FN:1293,_ZplO7QStringRKS_
FNDA:0,_ZplO7QStringRKS_
FN:1304,_ZplO7QStringPKc
FNDA:0,_ZplO7QStringPKc
DA:178,0
DA:463,0
DA:563,0
DA:564,0
DA:806,0
DA:807,0
BRDA:807,0,0,-
BRDA:807,0,1,-
DA:1107,0
DA:1108,0
DA:1169,0
DA:1293,0
DA:1294,0
DA:1304,0
DA:1305,0
end_of_record
SF:/usr/include/c++/11/ext/aligned_buffer.h
FN:64,_ZN9__gnu_cxx16__aligned_membufISt4pairIK7QString5QListIS1_IS2_bEEEE7_M_addrEv
FNDA:0,_ZN9__gnu_cxx16__aligned_membufISt4pairIK7QString5QListIS1_IS2_bEEEE7_M_addrEv
FN:72,_ZN9__gnu_cxx16__aligned_membufISt4pairIK7QString5QListIS1_IS2_bEEEE6_M_ptrEv
FNDA:0,_ZN9__gnu_cxx16__aligned_membufISt4pairIK7QString5QListIS1_IS2_bEEEE6_M_ptrEv
DA:64,0
DA:65,0
DA:72,0
DA:73,0
end_of_record
SF:/usr/include/c++/11/bits/allocator.h
FN:174,_ZNSaISt13_Rb_tree_nodeISt4pairIK7QString5QListIS0_IS1_bEEEEED2Ev
FNDA:0,_ZNSaISt13_Rb_tree_nodeISt4pairIK7QString5QListIS0_IS1_bEEEEED2Ev
DA:174,0
end_of_record
TN:
SF:/usr/include/c++/11/bits/alloc_traits.h
FN:463,_ZNSt16allocator_traitsISaISt13_Rb_tree_nodeISt4pairIK5QChariEEEE8allocateERS6_m
FNDA:0,_ZNSt16allocator_traitsISaISt13_Rb_tree_nodeISt4pairIK5QChariEEEE8allocateERS6_m
FN:463,_ZNSt16allocator_traitsISaISt13_Rb_tree_nodeISt4pairIK5QChar7QStringEEEE8allocateERS7_m
FNDA:0,_ZNSt16allocator_traitsISaISt13_Rb_tree_nodeISt4pairIK5QChar7QStringEEEE8allocateERS7_m
FN:463,_ZNSt16allocator_traitsISaISt13_Rb_tree_nodeISt4pairIKiiEEEE8allocateERS5_m
FNDA:0,_ZNSt16allocator_traitsISaISt13_Rb_tree_nodeISt4pairIKiiEEEE8allocateERS5_m
FN:463,_ZNSt16allocator_traitsISaISt13_Rb_tree_nodeISt4pairIK5QChar5QListI7QStringEEEEE8allocateERS9_m
FNDA:0,_ZNSt16allocator_traitsISaISt13_Rb_tree_nodeISt4pairIK5QChar5QListI7QStringEEEEE8allocateERS9_m
FN:463,_ZNSt16allocator_traitsISaISt13_Rb_tree_nodeISt4pairIK7QStringS2_EEEE8allocateERS6_m
FNDA:0,_ZNSt16allocator_traitsISaISt13_Rb_tree_nodeISt4pairIK7QStringS2_EEEE8allocateERS6_m
FN:495,_ZNSt16allocator_traitsISaISt13_Rb_tree_nodeISt4pairIK5QChar7QStringEEEE10deallocateERS7_PS6_m
FNDA:0,_ZNSt16allocator_traitsISaISt13_Rb_tree_nodeISt4pairIK5QChar7QStringEEEE10deallocateERS7_PS6_m
FN:495,_ZNSt16allocator_traitsISaISt13_Rb_tree_nodeISt4pairIK5QChar5QListI7QStringEEEEE10deallocateERS9_PS8_m
FNDA:0,_ZNSt16allocator_traitsISaISt13_Rb_tree_nodeISt4pairIK5QChar5QListI7QStringEEEEE10deallocateERS9_PS8_m
FN:495,_ZNSt16allocator_traitsISaISt13_Rb_tree_nodeISt4pairIK5QChariEEEE10deallocateERS6_PS5_m
FNDA:0,_ZNSt16allocator_traitsISaISt13_Rb_tree_nodeISt4pairIK5QChariEEEE10deallocateERS6_PS5_m
FN:495,_ZNSt16allocator_traitsISaISt13_Rb_tree_nodeISt4pairIK7QStringS2_EEEE10deallocateERS6_PS5_m
FNDA:0,_ZNSt16allocator_traitsISaISt13_Rb_tree_nodeISt4pairIK7QStringS2_EEEE10deallocateERS6_PS5_m
FN:495,_ZNSt16allocator_traitsISaISt13_Rb_tree_nodeISt4pairIKiiEEEE10deallocateERS5_PS4_m
FNDA:0,_ZNSt16allocator_traitsISaISt13_Rb_tree_nodeISt4pairIKiiEEEE10deallocateERS5_PS4_m
FN:511,_ZNSt16allocator_traitsISaISt13_Rb_tree_nodeISt4pairIK7QStringS2_EEEE9constructIS4_JS4_EEEvRS6_PT_DpOT0_
FNDA:0,_ZNSt16allocator_traitsISaISt13_Rb_tree_nodeISt4pairIK7QStringS2_EEEE9constructIS4_JS4_EEEvRS6_PT_DpOT0_
FN:511,_ZNSt16allocator_traitsISaISt13_Rb_tree_nodeISt4pairIK5QChariEEEE9constructIS4_JRKS4_EEEvRS6_PT_DpOT0_
FNDA:0,_ZNSt16allocator_traitsISaISt13_Rb_tree_nodeISt4pairIK5QChariEEEE9constructIS4_JRKS4_EEEvRS6_PT_DpOT0_
FN:511,_ZNSt16allocator_traitsISaISt13_Rb_tree_nodeISt4pairIKiiEEEE9constructIS3_JS3_EEEvRS5_PT_DpOT0_
FNDA:0,_ZNSt16allocator_traitsISaISt13_Rb_tree_nodeISt4pairIKiiEEEE9constructIS3_JS3_EEEvRS5_PT_DpOT0_
FN:511,_ZNSt16allocator_traitsISaISt13_Rb_tree_nodeISt4pairIK5QChar5QListI7QStringEEEEE9constructIS7_JS7_EEEvRS9_PT_DpOT0_
FNDA:0,_ZNSt16allocator_traitsISaISt13_Rb_tree_nodeISt4pairIK5QChar5QListI7QStringEEEEE9constructIS7_JS7_EEEvRS9_PT_DpOT0_
FN:511,_ZNSt16allocator_traitsISaISt13_Rb_tree_nodeISt4pairIK5QChar7QStringEEEE9constructIS5_JS5_EEEvRS7_PT_DpOT0_
FNDA:0,_ZNSt16allocator_traitsISaISt13_Rb_tree_nodeISt4pairIK5QChar7QStringEEEE9constructIS5_JS5_EEEvRS7_PT_DpOT0_
FN:511,_ZNSt16allocator_traitsISaISt13_Rb_tree_nodeISt4pairIK5QChariEEEE9constructIS4_JS4_EEEvRS6_PT_DpOT0_
FNDA:0,_ZNSt16allocator_traitsISaISt13_Rb_tree_nodeISt4pairIK5QChariEEEE9constructIS4_JS4_EEEvRS6_PT_DpOT0_
FN:511,_ZNSt16allocator_traitsISaISt13_Rb_tree_nodeISt4pairIKiiEEEE9constructIS3_JRKS3_EEEvRS5_PT_DpOT0_
FNDA:0,_ZNSt16allocator_traitsISaISt13_Rb_tree_nodeISt4pairIKiiEEEE9constructIS3_JRKS3_EEEvRS5_PT_DpOT0_
FN:511,_ZNSt16allocator_traitsISaISt13_Rb_tree_nodeISt4pairIK7QStringS2_EEEE9constructIS4_JRKS4_EEEvRS6_PT_DpOT0_
FNDA:0,_ZNSt16allocator_traitsISaISt13_Rb_tree_nodeISt4pairIK7QStringS2_EEEE9constructIS4_JRKS4_EEEvRS6_PT_DpOT0_
FN:511,_ZNSt16allocator_traitsISaISt13_Rb_tree_nodeISt4pairIK5QChar5QListI7QStringEEEEE9constructIS7_JRKS7_EEEvRS9_PT_DpOT0_
FNDA:0,_ZNSt16allocator_traitsISaISt13_Rb_tree_nodeISt4pairIK5QChar5QListI7QStringEEEEE9constructIS7_JRKS7_EEEvRS9_PT_DpOT0_
FN:511,_ZNSt16allocator_traitsISaISt13_Rb_tree_nodeISt4pairIK5QChar7QStringEEEE9constructIS5_JRKS5_EEEvRS7_PT_DpOT0_
FNDA:0,_ZNSt16allocator_traitsISaISt13_Rb_tree_nodeISt4pairIK5QChar7QStringEEEE9constructIS5_JRKS5_EEEvRS7_PT_DpOT0_
FN:531,_ZNSt16allocator_traitsISaISt13_Rb_tree_nodeISt4pairIKiiEEEE7destroyIS3_EEvRS5_PT_
FNDA:0,_ZNSt16allocator_traitsISaISt13_Rb_tree_nodeISt4pairIKiiEEEE7destroyIS3_EEvRS5_PT_
FN:531,_ZNSt16allocator_traitsISaISt13_Rb_tree_nodeISt4pairIK7QStringS2_EEEE7destroyIS4_EEvRS6_PT_
FNDA:0,_ZNSt16allocator_traitsISaISt13_Rb_tree_nodeISt4pairIK7QStringS2_EEEE7destroyIS4_EEvRS6_PT_
FN:531,_ZNSt16allocator_traitsISaISt13_Rb_tree_nodeISt4pairIK5QChar5QListI7QStringEEEEE7destroyIS7_EEvRS9_PT_
FNDA:0,_ZNSt16allocator_traitsISaISt13_Rb_tree_nodeISt4pairIK5QChar5QListI7QStringEEEEE7destroyIS7_EEvRS9_PT_
FN:531,_ZNSt16allocator_traitsISaISt13_Rb_tree_nodeISt4pairIK5QChar7QStringEEEE7destroyIS5_EEvRS7_PT_
FNDA:0,_ZNSt16allocator_traitsISaISt13_Rb_tree_nodeISt4pairIK5QChar7QStringEEEE7destroyIS5_EEvRS7_PT_
FN:531,_ZNSt16allocator_traitsISaISt13_Rb_tree_nodeISt4pairIK5QChariEEEE7destroyIS4_EEvRS6_PT_
FNDA:0,_ZNSt16allocator_traitsISaISt13_Rb_tree_nodeISt4pairIK5QChariEEEE7destroyIS4_EEvRS6_PT_
FN:562,_ZNSt16allocator_traitsISaISt13_Rb_tree_nodeISt4pairIKiiEEEE37select_on_container_copy_constructionERKS5_
FNDA:0,_ZNSt16allocator_traitsISaISt13_Rb_tree_nodeISt4pairIKiiEEEE37select_on_container_copy_constructionERKS5_
FN:562,_ZNSt16allocator_traitsISaISt13_Rb_tree_nodeISt4pairIK7QStringS2_EEEE37select_on_container_copy_constructionERKS6_
FNDA:0,_ZNSt16allocator_traitsISaISt13_Rb_tree_nodeISt4pairIK7QStringS2_EEEE37select_on_container_copy_constructionERKS6_
FN:562,_ZNSt16allocator_traitsISaISt13_Rb_tree_nodeISt4pairIK5QChar5QListI7QStringEEEEE37select_on_container_copy_constructionERKS9_
FNDA:0,_ZNSt16allocator_traitsISaISt13_Rb_tree_nodeISt4pairIK5QChar5QListI7QStringEEEEE37select_on_container_copy_constructionERKS9_
FN:562,_ZNSt16allocator_traitsISaISt13_Rb_tree_nodeISt4pairIK5QChar7QStringEEEE37select_on_container_copy_constructionERKS7_
FNDA:0,_ZNSt16allocator_traitsISaISt13_Rb_tree_nodeISt4pairIK5QChar7QStringEEEE37select_on_container_copy_constructionERKS7_
FN:562,_ZNSt16allocator_traitsISaISt13_Rb_tree_nodeISt4pairIK5QChariEEEE37select_on_container_copy_constructionERKS6_
FNDA:0,_ZNSt16allocator_traitsISaISt13_Rb_tree_nodeISt4pairIK5QChariEEEE37select_on_container_copy_constructionERKS6_
DA:463,0
DA:464,0
DA:463,0
DA:464,0
DA:463,0
DA:464,0
DA:463,0
DA:464,0
DA:463,0
DA:464,0
DA:495,0
DA:496,0
DA:495,0
DA:496,0
DA:495,0
DA:496,0
DA:495,0
DA:496,0
DA:495,0
DA:496,0
DA:511,0
DA:516,0
DA:520,0
DA:511,0
DA:516,0
DA:520,0
DA:511,0
DA:516,0
DA:520,0
DA:511,0
DA:516,0
DA:520,0
DA:511,0
DA:516,0
DA:520,0
DA:511,0
DA:516,0
DA:520,0
DA:511,0
DA:516,0
DA:520,0
DA:511,0
DA:516,0
DA:520,0
DA:511,0
DA:516,0
DA:520,0
DA:511,0
DA:516,0
DA:520,0
DA:531,0
DA:535,0
DA:539,0
DA:531,0
DA:535,0
DA:539,0
DA:531,0
DA:535,0
DA:539,0
DA:531,0
DA:535,0
DA:539,0
DA:531,0
DA:535,0
DA:539,0
DA:562,0
DA:563,0
DA:562,0
DA:563,0
DA:562,0
DA:563,0
DA:562,0
DA:563,0
DA:562,0
DA:563,0
end_of_record
SF:/home/pavle/Qt/6.6.1/gcc_64/include/QtCore/qobject.h
FN:198,_ZN7QObject7connectIM15QAbstractSocketFvNS1_11SocketStateEEM6ServerFvS2_EEEN11QMetaObject10ConnectionEPKN9QtPrivate15FunctionPointerIT_E6ObjectESC_PKNSA_21ContextTypeForFunctorIT0_vE11ContextTypeEOSI_N2Qt14ConnectionTypeE
FNDA:0,_ZN7QObject7connectIM15QAbstractSocketFvNS1_11SocketStateEEM6ServerFvS2_EEEN11QMetaObject10ConnectionEPKN9QtPrivate15FunctionPointerIT_E6ObjectESC_PKNSA_21ContextTypeForFunctorIT0_vE11ContextTypeEOSI_N2Qt14ConnectionTypeE
FN:198,_ZN7QObject7connectIM9QIODeviceFvvEM6ServerFvvEEEN11QMetaObject10ConnectionEPKN9QtPrivate15FunctionPointerIT_E6ObjectESB_PKNS9_21ContextTypeForFunctorIT0_vE11ContextTypeEOSH_N2Qt14ConnectionTypeE
FNDA:0,_ZN7QObject7connectIM9QIODeviceFvvEM6ServerFvvEEEN11QMetaObject10ConnectionEPKN9QtPrivate15FunctionPointerIT_E6ObjectESB_PKNS9_21ContextTypeForFunctorIT0_vE11ContextTypeEOSH_N2Qt14ConnectionTypeE
FN:198,_ZN7QObject7connectIM15QAbstractSocketFvvEM6ServerFvvEEEN11QMetaObject10ConnectionEPKN9QtPrivate15FunctionPointerIT_E6ObjectESB_PKNS9_21ContextTypeForFunctorIT0_vE11ContextTypeEOSH_N2Qt14ConnectionTypeE
FNDA:0,_ZN7QObject7connectIM15QAbstractSocketFvvEM6ServerFvvEEEN11QMetaObject10ConnectionEPKN9QtPrivate15FunctionPointerIT_E6ObjectESB_PKNS9_21ContextTypeForFunctorIT0_vE11ContextTypeEOSH_N2Qt14ConnectionTypeE
FN:383,_Z12qobject_castIP10QTcpSocketET_P7QObject
FNDA:1,_Z12qobject_castIP10QTcpSocketET_P7QObject
DA:198,0
DA:225,0
DA:226,0
BRDA:226,0,0,-
BRDA:226,0,1,-
BRDA:226,0,2,-
BRDA:226,0,3,-
DA:227,0
DA:229,0
DA:231,0
DA:235,0
DA:198,0
DA:225,0
DA:226,0
BRDA:226,0,0,-
BRDA:226,0,1,-
BRDA:226,0,2,-
BRDA:226,0,3,-
DA:227,0
DA:229,0
DA:231,0
DA:235,0
DA:198,0
DA:225,0
DA:226,0
BRDA:226,0,0,-
BRDA:226,0,1,-
BRDA:226,0,2,-
BRDA:226,0,3,-
DA:227,0
DA:229,0
DA:231,0
DA:235,0
DA:383,1
DA:388,1
end_of_record
SF:/usr/include/c++/11/bits/stl_iterator_base_types.h
FN:238,_ZSt19__iterator_categoryIPK5QCharENSt15iterator_traitsIT_E17iterator_categoryERKS4_
FNDA:0,_ZSt19__iterator_categoryIPK5QCharENSt15iterator_traitsIT_E17iterator_categoryERKS4_
FN:238,_ZSt19__iterator_categoryIPKP9GameModelENSt15iterator_traitsIT_E17iterator_categoryERKS5_
FNDA:0,_ZSt19__iterator_categoryIPKP9GameModelENSt15iterator_traitsIT_E17iterator_categoryERKS5_
FN:238,_ZSt19__iterator_categoryIPK4QMapI5QChariEENSt15iterator_traitsIT_E17iterator_categoryERKS6_
FNDA:0,_ZSt19__iterator_categoryIPK4QMapI5QChariEENSt15iterator_traitsIT_E17iterator_categoryERKS6_
FN:238,_ZSt19__iterator_categoryIPK5QListIiEENSt15iterator_traitsIT_E17iterator_categoryERKS5_
FNDA:0,_ZSt19__iterator_categoryIPK5QListIiEENSt15iterator_traitsIT_E17iterator_categoryERKS5_
FN:238,_ZSt19__iterator_categoryIPKiENSt15iterator_traitsIT_E17iterator_categoryERKS3_
FNDA:0,_ZSt19__iterator_categoryIPKiENSt15iterator_traitsIT_E17iterator_categoryERKS3_
FN:238,_ZSt19__iterator_categoryIPK4QMapI5QChar7QStringEENSt15iterator_traitsIT_E17iterator_categoryERKS7_
FNDA:0,_ZSt19__iterator_categoryIPK4QMapI5QChar7QStringEENSt15iterator_traitsIT_E17iterator_categoryERKS7_
FN:238,_ZSt19__iterator_categoryIPK4QMapI5QChar5QListI7QStringEEENSt15iterator_traitsIT_E17iterator_categoryERKS9_
FNDA:0,_ZSt19__iterator_categoryIPK4QMapI5QChar5QListI7QStringEEENSt15iterator_traitsIT_E17iterator_categoryERKS9_
FN:238,_ZSt19__iterator_categoryIPK4QMapI7QStringS1_EENSt15iterator_traitsIT_E17iterator_categoryERKS6_
FNDA:0,_ZSt19__iterator_categoryIPK4QMapI7QStringS1_EENSt15iterator_traitsIT_E17iterator_categoryERKS6_
FN:238,_ZSt19__iterator_categoryIPK7QStringENSt15iterator_traitsIT_E17iterator_categoryERKS4_
FNDA:0,_ZSt19__iterator_categoryIPK7QStringENSt15iterator_traitsIT_E17iterator_categoryERKS4_
FN:238,_ZSt19__iterator_categoryIN5QListIP9GameModelE8iteratorEENSt15iterator_traitsIT_E17iterator_categoryERKS6_
FNDA:0,_ZSt19__iterator_categoryIN5QListIP9GameModelE8iteratorEENSt15iterator_traitsIT_E17iterator_categoryERKS6_
FN:238,_ZSt19__iterator_categoryIPKcENSt15iterator_traitsIT_E17iterator_categoryERKS3_
FNDA:0,_ZSt19__iterator_categoryIPKcENSt15iterator_traitsIT_E17iterator_categoryERKS3_
DA:238,0
DA:239,0
DA:238,0
DA:239,0
DA:238,0
DA:239,0
DA:238,0
DA:239,0
DA:238,0
DA:239,0
DA:238,0
DA:239,0
DA:238,0
DA:239,0
DA:238,0
DA:239,0
DA:238,0
DA:239,0
DA:238,0
DA:239,0
DA:238,0
DA:239,0
end_of_record
SF:/usr/include/c++/11/bits/stl_iterator.h
FN:665,_ZNSt20back_insert_iteratorI5QListI7QStringEEC2ERS2_
FNDA:0,_ZNSt20back_insert_iteratorI5QListI7QStringEEC2ERS2_
FN:665,_ZNSt20back_insert_iteratorI5QListIP9GameModelEEC2ERS3_
FNDA:0,_ZNSt20back_insert_iteratorI5QListIP9GameModelEEC2ERS3_
FN:689,_ZNSt20back_insert_iteratorI5QListIP9GameModelEEaSERKS2_
FNDA:0,_ZNSt20back_insert_iteratorI5QListIP9GameModelEEaSERKS2_
FN:697,_ZNSt20back_insert_iteratorI5QListI7QStringEEaSEOS1_
FNDA:0,_ZNSt20back_insert_iteratorI5QListI7QStringEEaSEOS1_
FN:707,_ZNSt20back_insert_iteratorI5QListIP9GameModelEEdeEv
FNDA:0,_ZNSt20back_insert_iteratorI5QListIP9GameModelEEdeEv
FN:707,_ZNSt20back_insert_iteratorI5QListI7QStringEEdeEv
FNDA:0,_ZNSt20back_insert_iteratorI5QListI7QStringEEdeEv
FN:713,_ZNSt20back_insert_iteratorI5QListIP9GameModelEEppEv
FNDA:0,_ZNSt20back_insert_iteratorI5QListIP9GameModelEEppEv
FN:713,_ZNSt20back_insert_iteratorI5QListI7QStringEEppEv
FNDA:0,_ZNSt20back_insert_iteratorI5QListI7QStringEEppEv
FN:737,_ZSt13back_inserterI5QListI7QStringEESt20back_insert_iteratorIT_ERS4_
FNDA:0,_ZSt13back_inserterI5QListI7QStringEESt20back_insert_iteratorIT_ERS4_
FN:737,_ZSt13back_inserterI5QListIP9GameModelEESt20back_insert_iteratorIT_ERS5_
FNDA:0,_ZSt13back_inserterI5QListIP9GameModelEESt20back_insert_iteratorIT_ERS5_
DA:665,0
DA:666,0
DA:665,0
DA:666,0
DA:689,0
DA:691,0
DA:692,0
DA:697,0
DA:699,0
DA:700,0
DA:707,0
DA:708,0
DA:707,0
DA:708,0
DA:713,0
DA:714,0
DA:713,0
DA:714,0
DA:737,0
DA:738,0
DA:737,0
DA:738,0
end_of_record
SF:/home/pavle/Qt/6.6.1/gcc_64/include/QtCore/qshareddata_impl.h
FN:25,_ZN9QtPrivate30QExplicitlySharedDataPointerV2I8QMapDataISt3mapI5QChariSt4lessIS3_ESaISt4pairIKS3_iEEEEEC1Ev
FNDA:0,_ZN9QtPrivate30QExplicitlySharedDataPointerV2I8QMapDataISt3mapI5QChariSt4lessIS3_ESaISt4pairIKS3_iEEEEEC1Ev
FN:25,_ZN9QtPrivate30QExplicitlySharedDataPointerV2I8QMapDataISt3mapI5QChar7QStringSt4lessIS3_ESaISt4pairIKS3_S4_EEEEEC1Ev
FNDA:0,_ZN9QtPrivate30QExplicitlySharedDataPointerV2I8QMapDataISt3mapI5QChar7QStringSt4lessIS3_ESaISt4pairIKS3_S4_EEEEEC1Ev
FN:25,_ZN9QtPrivate30QExplicitlySharedDataPointerV2I8QMapDataISt3mapIiiSt4lessIiESaISt4pairIKiiEEEEEC1Ev
FNDA:0,_ZN9QtPrivate30QExplicitlySharedDataPointerV2I8QMapDataISt3mapIiiSt4lessIiESaISt4pairIKiiEEEEEC1Ev
FN:25,_ZN9QtPrivate30QExplicitlySharedDataPointerV2I8QMapDataISt3mapI5QChar5QListI7QStringESt4lessIS3_ESaISt4pairIKS3_S6_EEEEEC1Ev
FNDA:0,_ZN9QtPrivate30QExplicitlySharedDataPointerV2I8QMapDataISt3mapI5QChar5QListI7QStringESt4lessIS3_ESaISt4pairIKS3_S6_EEEEEC1Ev
FN:25,_ZN9QtPrivate30QExplicitlySharedDataPointerV2I8QMapDataISt3mapI7QStringS3_St4lessIS3_ESaISt4pairIKS3_S3_EEEEEC1Ev
FNDA:0,_ZN9QtPrivate30QExplicitlySharedDataPointerV2I8QMapDataISt3mapI7QStringS3_St4lessIS3_ESaISt4pairIKS3_S3_EEEEEC1Ev
FN:27,_ZN9QtPrivate30QExplicitlySharedDataPointerV2I8QMapDataISt3mapI5QChar5QListI7QStringESt4lessIS3_ESaISt4pairIKS3_S6_EEEEEC2EPSE_
FNDA:0,_ZN9QtPrivate30QExplicitlySharedDataPointerV2I8QMapDataISt3mapI5QChar5QListI7QStringESt4lessIS3_ESaISt4pairIKS3_S6_EEEEEC2EPSE_
FN:27,_ZN9QtPrivate30QExplicitlySharedDataPointerV2I8QMapDataISt3mapIiiSt4lessIiESaISt4pairIKiiEEEEEC2EPSA_
FNDA:0,_ZN9QtPrivate30QExplicitlySharedDataPointerV2I8QMapDataISt3mapIiiSt4lessIiESaISt4pairIKiiEEEEEC2EPSA_
FN:27,_ZN9QtPrivate30QExplicitlySharedDataPointerV2I8QMapDataISt3mapI7QStringS3_St4lessIS3_ESaISt4pairIKS3_S3_EEEEEC2EPSB_
FNDA:0,_ZN9QtPrivate30QExplicitlySharedDataPointerV2I8QMapDataISt3mapI7QStringS3_St4lessIS3_ESaISt4pairIKS3_S3_EEEEEC2EPSB_
FN:27,_ZN9QtPrivate30QExplicitlySharedDataPointerV2I8QMapDataISt3mapI5QChar7QStringSt4lessIS3_ESaISt4pairIKS3_S4_EEEEEC2EPSC_
FNDA:0,_ZN9QtPrivate30QExplicitlySharedDataPointerV2I8QMapDataISt3mapI5QChar7QStringSt4lessIS3_ESaISt4pairIKS3_S4_EEEEEC2EPSC_
FN:27,_ZN9QtPrivate30QExplicitlySharedDataPointerV2I8QMapDataISt3mapI5QChariSt4lessIS3_ESaISt4pairIKS3_iEEEEEC2EPSB_
FNDA:0,_ZN9QtPrivate30QExplicitlySharedDataPointerV2I8QMapDataISt3mapI5QChariSt4lessIS3_ESaISt4pairIKS3_iEEEEEC2EPSB_
FN:39,_ZN9QtPrivate30QExplicitlySharedDataPointerV2I8QMapDataISt3mapI5QChar5QListI7QStringESt4lessIS3_ESaISt4pairIKS3_S6_EEEEEC2ERKSF_
FNDA:0,_ZN9QtPrivate30QExplicitlySharedDataPointerV2I8QMapDataISt3mapI5QChar5QListI7QStringESt4lessIS3_ESaISt4pairIKS3_S6_EEEEEC2ERKSF_
FN:39,_ZN9QtPrivate30QExplicitlySharedDataPointerV2I8QMapDataISt3mapI7QStringS3_St4lessIS3_ESaISt4pairIKS3_S3_EEEEEC2ERKSC_
FNDA:0,_ZN9QtPrivate30QExplicitlySharedDataPointerV2I8QMapDataISt3mapI7QStringS3_St4lessIS3_ESaISt4pairIKS3_S3_EEEEEC2ERKSC_
FN:39,_ZN9QtPrivate30QExplicitlySharedDataPointerV2I8QMapDataISt3mapI5QChar7QStringSt4lessIS3_ESaISt4pairIKS3_S4_EEEEEC2ERKSD_
FNDA:0,_ZN9QtPrivate30QExplicitlySharedDataPointerV2I8QMapDataISt3mapI5QChar7QStringSt4lessIS3_ESaISt4pairIKS3_S4_EEEEEC2ERKSD_
FN:39,_ZN9QtPrivate30QExplicitlySharedDataPointerV2I8QMapDataISt3mapI5QChariSt4lessIS3_ESaISt4pairIKS3_iEEEEEC2ERKSC_
FNDA:0,_ZN9QtPrivate30QExplicitlySharedDataPointerV2I8QMapDataISt3mapI5QChariSt4lessIS3_ESaISt4pairIKS3_iEEEEEC2ERKSC_
FN:39,_ZN9QtPrivate30QExplicitlySharedDataPointerV2I8QMapDataISt3mapIiiSt4lessIiESaISt4pairIKiiEEEEEC2ERKSB_
FNDA:0,_ZN9QtPrivate30QExplicitlySharedDataPointerV2I8QMapDataISt3mapIiiSt4lessIiESaISt4pairIKiiEEEEEC2ERKSB_
FN:53,_ZN9QtPrivate30QExplicitlySharedDataPointerV2I8QMapDataISt3mapI5QChariSt4lessIS3_ESaISt4pairIKS3_iEEEEEC2EOSC_
FNDA:0,_ZN9QtPrivate30QExplicitlySharedDataPointerV2I8QMapDataISt3mapI5QChariSt4lessIS3_ESaISt4pairIKS3_iEEEEEC2EOSC_
FN:53,_ZN9QtPrivate30QExplicitlySharedDataPointerV2I8QMapDataISt3mapIiiSt4lessIiESaISt4pairIKiiEEEEEC2EOSB_
FNDA:2,_ZN9QtPrivate30QExplicitlySharedDataPointerV2I8QMapDataISt3mapIiiSt4lessIiESaISt4pairIKiiEEEEEC2EOSB_
FN:53,_ZN9QtPrivate30QExplicitlySharedDataPointerV2I8QMapDataISt3mapI5QChar7QStringSt4lessIS3_ESaISt4pairIKS3_S4_EEEEEC2EOSD_
FNDA:0,_ZN9QtPrivate30QExplicitlySharedDataPointerV2I8QMapDataISt3mapI5QChar7QStringSt4lessIS3_ESaISt4pairIKS3_S4_EEEEEC2EOSD_
FN:53,_ZN9QtPrivate30QExplicitlySharedDataPointerV2I8QMapDataISt3mapI5QChar5QListI7QStringESt4lessIS3_ESaISt4pairIKS3_S6_EEEEEC2EOSF_
FNDA:0,_ZN9QtPrivate30QExplicitlySharedDataPointerV2I8QMapDataISt3mapI5QChar5QListI7QStringESt4lessIS3_ESaISt4pairIKS3_S6_EEEEEC2EOSF_
FN:53,_ZN9QtPrivate30QExplicitlySharedDataPointerV2I8QMapDataISt3mapI7QStringS3_St4lessIS3_ESaISt4pairIKS3_S3_EEEEEC2EOSC_
FNDA:0,_ZN9QtPrivate30QExplicitlySharedDataPointerV2I8QMapDataISt3mapI7QStringS3_St4lessIS3_ESaISt4pairIKS3_S3_EEEEEC2EOSC_
FN:58,_ZN9QtPrivate30QExplicitlySharedDataPointerV2I8QMapDataISt3mapIiiSt4lessIiESaISt4pairIKiiEEEEEaSEOSB_
FNDA:2,_ZN9QtPrivate30QExplicitlySharedDataPointerV2I8QMapDataISt3mapIiiSt4lessIiESaISt4pairIKiiEEEEEaSEOSB_
FN:65,_ZN9QtPrivate30QExplicitlySharedDataPointerV2I8QMapDataISt3mapIiiSt4lessIiESaISt4pairIKiiEEEEED2Ev
FNDA:0,_ZN9QtPrivate30QExplicitlySharedDataPointerV2I8QMapDataISt3mapIiiSt4lessIiESaISt4pairIKiiEEEEED2Ev
FN:65,_ZN9QtPrivate30QExplicitlySharedDataPointerV2I8QMapDataISt3mapI7QStringS3_St4lessIS3_ESaISt4pairIKS3_S3_EEEEED2Ev
FNDA:0,_ZN9QtPrivate30QExplicitlySharedDataPointerV2I8QMapDataISt3mapI7QStringS3_St4lessIS3_ESaISt4pairIKS3_S3_EEEEED2Ev
FN:65,_ZN9QtPrivate30QExplicitlySharedDataPointerV2I8QMapDataISt3mapI5QChar5QListI7QStringESt4lessIS3_ESaISt4pairIKS3_S6_EEEEED2Ev
FNDA:0,_ZN9QtPrivate30QExplicitlySharedDataPointerV2I8QMapDataISt3mapI5QChar5QListI7QStringESt4lessIS3_ESaISt4pairIKS3_S6_EEEEED2Ev
FN:65,_ZN9QtPrivate30QExplicitlySharedDataPointerV2I8QMapDataISt3mapI5QChar7QStringSt4lessIS3_ESaISt4pairIKS3_S4_EEEEED2Ev
FNDA:0,_ZN9QtPrivate30QExplicitlySharedDataPointerV2I8QMapDataISt3mapI5QChar7QStringSt4lessIS3_ESaISt4pairIKS3_S4_EEEEED2Ev
FN:65,_ZN9QtPrivate30QExplicitlySharedDataPointerV2I8QMapDataISt3mapI5QChariSt4lessIS3_ESaISt4pairIKS3_iEEEEED2Ev
FNDA:0,_ZN9QtPrivate30QExplicitlySharedDataPointerV2I8QMapDataISt3mapI5QChariSt4lessIS3_ESaISt4pairIKS3_iEEEEED2Ev
FN:71,_ZN9QtPrivate30QExplicitlySharedDataPointerV2I8QMapDataISt3mapI5QChar7QStringSt4lessIS3_ESaISt4pairIKS3_S4_EEEEE6detachEv
FNDA:0,_ZN9QtPrivate30QExplicitlySharedDataPointerV2I8QMapDataISt3mapI5QChar7QStringSt4lessIS3_ESaISt4pairIKS3_S4_EEEEE6detachEv
FN:71,_ZN9QtPrivate30QExplicitlySharedDataPointerV2I8QMapDataISt3mapI5QChar5QListI7QStringESt4lessIS3_ESaISt4pairIKS3_S6_EEEEE6detachEv
FNDA:0,_ZN9QtPrivate30QExplicitlySharedDataPointerV2I8QMapDataISt3mapI5QChar5QListI7QStringESt4lessIS3_ESaISt4pairIKS3_S6_EEEEE6detachEv
FN:71,_ZN9QtPrivate30QExplicitlySharedDataPointerV2I8QMapDataISt3mapI7QStringS3_St4lessIS3_ESaISt4pairIKS3_S3_EEEEE6detachEv
FNDA:0,_ZN9QtPrivate30QExplicitlySharedDataPointerV2I8QMapDataISt3mapI7QStringS3_St4lessIS3_ESaISt4pairIKS3_S3_EEEEE6detachEv
FN:71,_ZN9QtPrivate30QExplicitlySharedDataPointerV2I8QMapDataISt3mapIiiSt4lessIiESaISt4pairIKiiEEEEE6detachEv
FNDA:0,_ZN9QtPrivate30QExplicitlySharedDataPointerV2I8QMapDataISt3mapIiiSt4lessIiESaISt4pairIKiiEEEEE6detachEv
FN:71,_ZN9QtPrivate30QExplicitlySharedDataPointerV2I8QMapDataISt3mapI5QChariSt4lessIS3_ESaISt4pairIKS3_iEEEEE6detachEv
FNDA:0,_ZN9QtPrivate30QExplicitlySharedDataPointerV2I8QMapDataISt3mapI5QChariSt4lessIS3_ESaISt4pairIKS3_iEEEEE6detachEv
FN:84,_ZN9QtPrivate30QExplicitlySharedDataPointerV2I8QMapDataISt3mapI5QChar7QStringSt4lessIS3_ESaISt4pairIKS3_S4_EEEEE5resetEPSC_
FNDA:0,_ZN9QtPrivate30QExplicitlySharedDataPointerV2I8QMapDataISt3mapI5QChar7QStringSt4lessIS3_ESaISt4pairIKS3_S4_EEEEE5resetEPSC_
FN:84,_ZN9QtPrivate30QExplicitlySharedDataPointerV2I8QMapDataISt3mapI5QChariSt4lessIS3_ESaISt4pairIKS3_iEEEEE5resetEPSB_
FNDA:0,_ZN9QtPrivate30QExplicitlySharedDataPointerV2I8QMapDataISt3mapI5QChariSt4lessIS3_ESaISt4pairIKS3_iEEEEE5resetEPSB_
FN:84,_ZN9QtPrivate30QExplicitlySharedDataPointerV2I8QMapDataISt3mapIiiSt4lessIiESaISt4pairIKiiEEEEE5resetEPSA_
FNDA:0,_ZN9QtPrivate30QExplicitlySharedDataPointerV2I8QMapDataISt3mapIiiSt4lessIiESaISt4pairIKiiEEEEE5resetEPSA_
FN:84,_ZN9QtPrivate30QExplicitlySharedDataPointerV2I8QMapDataISt3mapI7QStringS3_St4lessIS3_ESaISt4pairIKS3_S3_EEEEE5resetEPSB_
FNDA:0,_ZN9QtPrivate30QExplicitlySharedDataPointerV2I8QMapDataISt3mapI7QStringS3_St4lessIS3_ESaISt4pairIKS3_S3_EEEEE5resetEPSB_
FN:84,_ZN9QtPrivate30QExplicitlySharedDataPointerV2I8QMapDataISt3mapI5QChar5QListI7QStringESt4lessIS3_ESaISt4pairIKS3_S6_EEEEE5resetEPSE_
FNDA:0,_ZN9QtPrivate30QExplicitlySharedDataPointerV2I8QMapDataISt3mapI5QChar5QListI7QStringESt4lessIS3_ESaISt4pairIKS3_S6_EEEEE5resetEPSE_
FN:98,_ZNK9QtPrivate30QExplicitlySharedDataPointerV2I8QMapDataISt3mapI5QChariSt4lessIS3_ESaISt4pairIKS3_iEEEEE8isSharedEv
FNDA:0,_ZNK9QtPrivate30QExplicitlySharedDataPointerV2I8QMapDataISt3mapI5QChariSt4lessIS3_ESaISt4pairIKS3_iEEEEE8isSharedEv
FN:98,_ZNK9QtPrivate30QExplicitlySharedDataPointerV2I8QMapDataISt3mapI5QChar7QStringSt4lessIS3_ESaISt4pairIKS3_S4_EEEEE8isSharedEv
FNDA:0,_ZNK9QtPrivate30QExplicitlySharedDataPointerV2I8QMapDataISt3mapI5QChar7QStringSt4lessIS3_ESaISt4pairIKS3_S4_EEEEE8isSharedEv
FN:98,_ZNK9QtPrivate30QExplicitlySharedDataPointerV2I8QMapDataISt3mapI5QChar5QListI7QStringESt4lessIS3_ESaISt4pairIKS3_S6_EEEEE8isSharedEv
FNDA:0,_ZNK9QtPrivate30QExplicitlySharedDataPointerV2I8QMapDataISt3mapI5QChar5QListI7QStringESt4lessIS3_ESaISt4pairIKS3_S6_EEEEE8isSharedEv
FN:98,_ZNK9QtPrivate30QExplicitlySharedDataPointerV2I8QMapDataISt3mapI7QStringS3_St4lessIS3_ESaISt4pairIKS3_S3_EEEEE8isSharedEv
FNDA:0,_ZNK9QtPrivate30QExplicitlySharedDataPointerV2I8QMapDataISt3mapI7QStringS3_St4lessIS3_ESaISt4pairIKS3_S3_EEEEE8isSharedEv
FN:98,_ZNK9QtPrivate30QExplicitlySharedDataPointerV2I8QMapDataISt3mapIiiSt4lessIiESaISt4pairIKiiEEEEE8isSharedEv
FNDA:0,_ZNK9QtPrivate30QExplicitlySharedDataPointerV2I8QMapDataISt3mapIiiSt4lessIiESaISt4pairIKiiEEEEE8isSharedEv
FN:103,_ZN9QtPrivate30QExplicitlySharedDataPointerV2I8QMapDataISt3mapIiiSt4lessIiESaISt4pairIKiiEEEEE4swapERSB_
FNDA:0,_ZN9QtPrivate30QExplicitlySharedDataPointerV2I8QMapDataISt3mapIiiSt4lessIiESaISt4pairIKiiEEEEE4swapERSB_
FN:103,_ZN9QtPrivate30QExplicitlySharedDataPointerV2I8QMapDataISt3mapI5QChariSt4lessIS3_ESaISt4pairIKS3_iEEEEE4swapERSC_
FNDA:0,_ZN9QtPrivate30QExplicitlySharedDataPointerV2I8QMapDataISt3mapI5QChariSt4lessIS3_ESaISt4pairIKS3_iEEEEE4swapERSC_
FN:103,_ZN9QtPrivate30QExplicitlySharedDataPointerV2I8QMapDataISt3mapI7QStringS3_St4lessIS3_ESaISt4pairIKS3_S3_EEEEE4swapERSC_
FNDA:0,_ZN9QtPrivate30QExplicitlySharedDataPointerV2I8QMapDataISt3mapI7QStringS3_St4lessIS3_ESaISt4pairIKS3_S3_EEEEE4swapERSC_
FN:103,_ZN9QtPrivate30QExplicitlySharedDataPointerV2I8QMapDataISt3mapI5QChar5QListI7QStringESt4lessIS3_ESaISt4pairIKS3_S6_EEEEE4swapERSF_
FNDA:0,_ZN9QtPrivate30QExplicitlySharedDataPointerV2I8QMapDataISt3mapI5QChar5QListI7QStringESt4lessIS3_ESaISt4pairIKS3_S6_EEEEE4swapERSF_
FN:103,_ZN9QtPrivate30QExplicitlySharedDataPointerV2I8QMapDataISt3mapI5QChar7QStringSt4lessIS3_ESaISt4pairIKS3_S4_EEEEE4swapERSD_
FNDA:0,_ZN9QtPrivate30QExplicitlySharedDataPointerV2I8QMapDataISt3mapI5QChar7QStringSt4lessIS3_ESaISt4pairIKS3_S4_EEEEE4swapERSD_
FN:110,_ZN9QtPrivate30QExplicitlySharedDataPointerV2I8QMapDataISt3mapIiiSt4lessIiESaISt4pairIKiiEEEEEptEv
FNDA:0,_ZN9QtPrivate30QExplicitlySharedDataPointerV2I8QMapDataISt3mapIiiSt4lessIiESaISt4pairIKiiEEEEEptEv
FN:110,_ZN9QtPrivate30QExplicitlySharedDataPointerV2I8QMapDataISt3mapI7QStringS3_St4lessIS3_ESaISt4pairIKS3_S3_EEEEEptEv
FNDA:0,_ZN9QtPrivate30QExplicitlySharedDataPointerV2I8QMapDataISt3mapI7QStringS3_St4lessIS3_ESaISt4pairIKS3_S3_EEEEEptEv
FN:110,_ZN9QtPrivate30QExplicitlySharedDataPointerV2I8QMapDataISt3mapI5QChar5QListI7QStringESt4lessIS3_ESaISt4pairIKS3_S6_EEEEEptEv
FNDA:0,_ZN9QtPrivate30QExplicitlySharedDataPointerV2I8QMapDataISt3mapI5QChar5QListI7QStringESt4lessIS3_ESaISt4pairIKS3_S6_EEEEEptEv
FN:110,_ZN9QtPrivate30QExplicitlySharedDataPointerV2I8QMapDataISt3mapI5QChar7QStringSt4lessIS3_ESaISt4pairIKS3_S4_EEEEEptEv
FNDA:0,_ZN9QtPrivate30QExplicitlySharedDataPointerV2I8QMapDataISt3mapI5QChar7QStringSt4lessIS3_ESaISt4pairIKS3_S4_EEEEEptEv
FN:110,_ZN9QtPrivate30QExplicitlySharedDataPointerV2I8QMapDataISt3mapI5QChariSt4lessIS3_ESaISt4pairIKS3_iEEEEEptEv
FNDA:0,_ZN9QtPrivate30QExplicitlySharedDataPointerV2I8QMapDataISt3mapI5QChariSt4lessIS3_ESaISt4pairIKS3_iEEEEEptEv
FN:112,_ZNK9QtPrivate30QExplicitlySharedDataPointerV2I8QMapDataISt3mapI7QStringS3_St4lessIS3_ESaISt4pairIKS3_S3_EEEEEptEv
FNDA:0,_ZNK9QtPrivate30QExplicitlySharedDataPointerV2I8QMapDataISt3mapI7QStringS3_St4lessIS3_ESaISt4pairIKS3_S3_EEEEEptEv
FN:117,_ZNK9QtPrivate30QExplicitlySharedDataPointerV2I8QMapDataISt3mapI7QStringS3_St4lessIS3_ESaISt4pairIKS3_S3_EEEEEcvbEv
FNDA:0,_ZNK9QtPrivate30QExplicitlySharedDataPointerV2I8QMapDataISt3mapI7QStringS3_St4lessIS3_ESaISt4pairIKS3_S3_EEEEEcvbEv
FN:117,_ZNK9QtPrivate30QExplicitlySharedDataPointerV2I8QMapDataISt3mapIiiSt4lessIiESaISt4pairIKiiEEEEEcvbEv
FNDA:0,_ZNK9QtPrivate30QExplicitlySharedDataPointerV2I8QMapDataISt3mapIiiSt4lessIiESaISt4pairIKiiEEEEEcvbEv
FN:117,_ZNK9QtPrivate30QExplicitlySharedDataPointerV2I8QMapDataISt3mapI5QChar5QListI7QStringESt4lessIS3_ESaISt4pairIKS3_S6_EEEEEcvbEv
FNDA:0,_ZNK9QtPrivate30QExplicitlySharedDataPointerV2I8QMapDataISt3mapI5QChar5QListI7QStringESt4lessIS3_ESaISt4pairIKS3_S6_EEEEEcvbEv
FN:117,_ZNK9QtPrivate30QExplicitlySharedDataPointerV2I8QMapDataISt3mapI5QChar7QStringSt4lessIS3_ESaISt4pairIKS3_S4_EEEEEcvbEv
FNDA:0,_ZNK9QtPrivate30QExplicitlySharedDataPointerV2I8QMapDataISt3mapI5QChar7QStringSt4lessIS3_ESaISt4pairIKS3_S4_EEEEEcvbEv
FN:117,_ZNK9QtPrivate30QExplicitlySharedDataPointerV2I8QMapDataISt3mapI5QChariSt4lessIS3_ESaISt4pairIKS3_iEEEEEcvbEv
FNDA:0,_ZNK9QtPrivate30QExplicitlySharedDataPointerV2I8QMapDataISt3mapI5QChariSt4lessIS3_ESaISt4pairIKS3_iEEEEEcvbEv
DA:25,0
DA:25,0
DA:25,0
DA:25,0
DA:25,0
DA:27,0
DA:28,0
DA:30,0
BRDA:30,0,0,-
BRDA:30,0,1,-
DA:31,0
DA:32,0
DA:27,0
DA:28,0
DA:30,0
BRDA:30,0,0,-
BRDA:30,0,1,-
DA:31,0
DA:32,0
DA:27,0
DA:28,0
DA:30,0
BRDA:30,0,0,-
BRDA:30,0,1,-
DA:31,0
DA:32,0
DA:27,0
DA:28,0
DA:30,0
BRDA:30,0,0,-
BRDA:30,0,1,-
DA:31,0
DA:32,0
DA:27,0
DA:28,0
DA:30,0
BRDA:30,0,0,-
BRDA:30,0,1,-
DA:31,0
DA:32,0
DA:39,0
DA:40,0
DA:42,0
BRDA:42,0,0,-
BRDA:42,0,1,-
DA:43,0
DA:44,0
DA:39,0
DA:40,0
DA:42,0
BRDA:42,0,0,-
BRDA:42,0,1,-
DA:43,0
DA:44,0
DA:39,0
DA:40,0
DA:42,0
BRDA:42,0,0,-
BRDA:42,0,1,-
DA:43,0
DA:44,0
DA:39,0
DA:40,0
DA:42,0
BRDA:42,0,0,-
BRDA:42,0,1,-
DA:43,0
DA:44,0
DA:39,0
DA:40,0
DA:42,0
BRDA:42,0,0,-
BRDA:42,0,1,-
DA:43,0
DA:44,0
DA:53,0
DA:54,0
DA:56,0
DA:53,0
DA:54,0
DA:56,0
DA:53,0
DA:54,0
DA:56,0
DA:53,0
DA:54,0
DA:56,0
DA:53,2
DA:54,2
DA:56,2
DA:58,2
DA:60,2
DA:61,2
DA:62,4
DA:63,2
DA:65,0
DA:67,0
BRDA:67,0,0,-
BRDA:67,0,1,-
BRDA:67,0,2,-
BRDA:67,0,3,-
BRDA:67,0,4,-
BRDA:67,0,5,-
DA:68,0
BRDA:68,0,0,-
BRDA:68,0,1,-
DA:69,0
DA:65,0
DA:67,0
BRDA:67,0,0,-
BRDA:67,0,1,-
BRDA:67,0,2,-
BRDA:67,0,3,-
BRDA:67,0,4,-
BRDA:67,0,5,-
DA:68,0
BRDA:68,0,0,-
BRDA:68,0,1,-
DA:69,0
DA:65,0
DA:67,0
BRDA:67,0,0,-
BRDA:67,0,1,-
BRDA:67,0,2,-
BRDA:67,0,3,-
BRDA:67,0,4,-
BRDA:67,0,5,-
DA:68,0
BRDA:68,0,0,-
BRDA:68,0,1,-
DA:69,0
DA:65,0
DA:67,0
BRDA:67,0,0,-
BRDA:67,0,1,-
BRDA:67,0,2,-
BRDA:67,0,3,-
BRDA:67,0,4,-
BRDA:67,0,5,-
DA:68,0
BRDA:68,0,0,-
BRDA:68,0,1,-
DA:69,0
DA:65,0
DA:67,0
BRDA:67,0,0,-
BRDA:67,0,1,-
BRDA:67,0,2,-
BRDA:67,0,3,-
BRDA:67,0,4,-
BRDA:67,0,5,-
DA:68,0
BRDA:68,0,0,-
BRDA:68,0,1,-
DA:69,0
DA:71,0
DA:73,0
BRDA:73,0,0,-
BRDA:73,0,1,-
DA:75,0
DA:76,0
DA:77,0
BRDA:77,0,0,-
BRDA:77,0,1,-
DA:79,0
BRDA:79,0,0,-
BRDA:79,0,1,-
BRDA:79,0,2,-
BRDA:79,0,3,-
DA:80,0
DA:81,0
DA:82,0
DA:71,0
DA:73,0
BRDA:73,0,0,-
BRDA:73,0,1,-
DA:75,0
DA:76,0
DA:77,0
BRDA:77,0,0,-
BRDA:77,0,1,-
DA:79,0
BRDA:79,0,0,-
BRDA:79,0,1,-
BRDA:79,0,2,-
BRDA:79,0,3,-
DA:80,0
DA:81,0
DA:82,0
DA:71,0
DA:73,0
BRDA:73,0,0,-
BRDA:73,0,1,-
DA:75,0
DA:76,0
DA:77,0
BRDA:77,0,0,-
BRDA:77,0,1,-
DA:79,0
BRDA:79,0,0,-
BRDA:79,0,1,-
BRDA:79,0,2,-
BRDA:79,0,3,-
DA:80,0
DA:81,0
DA:82,0
DA:71,0
DA:73,0
BRDA:73,0,0,-
BRDA:73,0,1,-
DA:75,0
DA:76,0
DA:77,0
BRDA:77,0,0,-
BRDA:77,0,1,-
DA:79,0
BRDA:79,0,0,-
BRDA:79,0,1,-
BRDA:79,0,2,-
BRDA:79,0,3,-
DA:80,0
DA:81,0
DA:82,0
DA:71,0
DA:73,0
BRDA:73,0,0,-
BRDA:73,0,1,-
DA:75,0
DA:76,0
DA:77,0
BRDA:77,0,0,-
BRDA:77,0,1,-
DA:79,0
BRDA:79,0,0,-
BRDA:79,0,1,-
BRDA:79,0,2,-
BRDA:79,0,3,-
DA:80,0
DA:81,0
DA:82,0
DA:84,0
DA:86,0
BRDA:86,0,0,-
BRDA:86,0,1,-
BRDA:86,0,2,-
BRDA:86,0,3,-
BRDA:86,0,4,-
BRDA:86,0,5,-
DA:87,0
BRDA:87,0,0,-
BRDA:87,0,1,-
DA:88,0
DA:89,0
BRDA:89,0,0,-
BRDA:89,0,1,-
DA:90,0
DA:91,0
DA:84,0
DA:86,0
BRDA:86,0,0,-
BRDA:86,0,1,-
BRDA:86,0,2,-
BRDA:86,0,3,-
BRDA:86,0,4,-
BRDA:86,0,5,-
DA:87,0
BRDA:87,0,0,-
BRDA:87,0,1,-
DA:88,0
DA:89,0
BRDA:89,0,0,-
BRDA:89,0,1,-
DA:90,0
DA:91,0
DA:84,0
DA:86,0
BRDA:86,0,0,-
BRDA:86,0,1,-
BRDA:86,0,2,-
BRDA:86,0,3,-
BRDA:86,0,4,-
BRDA:86,0,5,-
DA:87,0
BRDA:87,0,0,-
BRDA:87,0,1,-
DA:88,0
DA:89,0
BRDA:89,0,0,-
BRDA:89,0,1,-
DA:90,0
DA:91,0
DA:84,0
DA:86,0
BRDA:86,0,0,-
BRDA:86,0,1,-
BRDA:86,0,2,-
BRDA:86,0,3,-
BRDA:86,0,4,-
BRDA:86,0,5,-
DA:87,0
BRDA:87,0,0,-
BRDA:87,0,1,-
DA:88,0
DA:89,0
BRDA:89,0,0,-
BRDA:89,0,1,-
DA:90,0
DA:91,0
DA:84,0
DA:86,0
BRDA:86,0,0,-
BRDA:86,0,1,-
BRDA:86,0,2,-
BRDA:86,0,3,-
BRDA:86,0,4,-
BRDA:86,0,5,-
DA:87,0
BRDA:87,0,0,-
BRDA:87,0,1,-
DA:88,0
DA:89,0
BRDA:89,0,0,-
BRDA:89,0,1,-
DA:90,0
DA:91,0
DA:98,0
DA:100,0
BRDA:100,0,0,-
BRDA:100,0,1,-
BRDA:100,0,2,-
BRDA:100,0,3,-
DA:98,0
DA:100,0
BRDA:100,0,0,-
BRDA:100,0,1,-
BRDA:100,0,2,-
BRDA:100,0,3,-
DA:98,0
DA:100,0
BRDA:100,0,0,-
BRDA:100,0,1,-
BRDA:100,0,2,-
BRDA:100,0,3,-
DA:98,0
DA:100,0
BRDA:100,0,0,-
BRDA:100,0,1,-
BRDA:100,0,2,-
BRDA:100,0,3,-
DA:98,0
DA:100,0
BRDA:100,0,0,-
BRDA:100,0,1,-
BRDA:100,0,2,-
BRDA:100,0,3,-
DA:103,0
DA:105,0
DA:106,0
DA:103,0
DA:105,0
DA:106,0
DA:103,0
DA:105,0
DA:106,0
DA:103,0
DA:105,0
DA:106,0
DA:103,0
DA:105,0
DA:106,0
DA:110,0
DA:110,0
DA:110,0
DA:110,0
DA:110,0
DA:112,0
DA:117,0
DA:117,0
DA:117,0
DA:117,0
DA:117,0
end_of_record
SF:/home/pavle/Qt/6.6.1/gcc_64/include/QtCore/qarraydatapointer.h
FN:31,_ZN17QArrayDataPointerIDsEC1Ev
FNDA:0,_ZN17QArrayDataPointerIDsEC1Ev
FN:31,_ZN17QArrayDataPointerI5QCharEC1Ev
FNDA:22,_ZN17QArrayDataPointerI5QCharEC1Ev
FN:31,_ZN17QArrayDataPointerIiEC1Ev
FNDA:0,_ZN17QArrayDataPointerIiEC1Ev
FN:31,_ZN17QArrayDataPointerI7QStringEC1Ev
FNDA:0,_ZN17QArrayDataPointerI7QStringEC1Ev
FN:31,_ZN17QArrayDataPointerI4QMapI7QStringS1_EEC1Ev
FNDA:11,_ZN17QArrayDataPointerI4QMapI7QStringS1_EEC1Ev
FN:31,_ZN17QArrayDataPointerI5QListIiEEC1Ev
FNDA:12,_ZN17QArrayDataPointerI5QListIiEEC1Ev
FN:31,_ZN17QArrayDataPointerI4QMapI5QChariEEC1Ev
FNDA:0,_ZN17QArrayDataPointerI4QMapI5QChariEEC1Ev
FN:31,_ZN17QArrayDataPointerI4QMapI5QChar7QStringEEC1Ev
FNDA:0,_ZN17QArrayDataPointerI4QMapI5QChar7QStringEEC1Ev
FN:31,_ZN17QArrayDataPointerI4QMapI5QChar5QListI7QStringEEEC1Ev
FNDA:0,_ZN17QArrayDataPointerI4QMapI5QChar5QListI7QStringEEEC1Ev
FN:31,_ZN17QArrayDataPointerIP9GameModelEC1Ev
FNDA:0,_ZN17QArrayDataPointerIP9GameModelEC1Ev
FN:37,_ZN17QArrayDataPointerIDsEC2ERKS0_
FNDA:0,_ZN17QArrayDataPointerIDsEC2ERKS0_
FN:37,_ZN17QArrayDataPointerI7QStringEC2ERKS1_
FNDA:0,_ZN17QArrayDataPointerI7QStringEC2ERKS1_
FN:37,_ZN17QArrayDataPointerI5QCharEC2ERKS1_
FNDA:0,_ZN17QArrayDataPointerI5QCharEC2ERKS1_
FN:37,_ZN17QArrayDataPointerIP9GameModelEC2ERKS2_
FNDA:0,_ZN17QArrayDataPointerIP9GameModelEC2ERKS2_
FN:37,_ZN17QArrayDataPointerIiEC2ERKS0_
FNDA:0,_ZN17QArrayDataPointerIiEC2ERKS0_
FN:44,_ZN17QArrayDataPointerIiEC2EP15QTypedArrayDataIiEPix
FNDA:0,_ZN17QArrayDataPointerIiEC2EP15QTypedArrayDataIiEPix
FN:44,_ZN17QArrayDataPointerI7QStringEC2EP15QTypedArrayDataIS0_EPS0_x
FNDA:0,_ZN17QArrayDataPointerI7QStringEC2EP15QTypedArrayDataIS0_EPS0_x
FN:44,_ZN17QArrayDataPointerIP9GameModelEC2EP15QTypedArrayDataIS1_EPS1_x
FNDA:0,_ZN17QArrayDataPointerIP9GameModelEC2EP15QTypedArrayDataIS1_EPS1_x
FN:44,_ZN17QArrayDataPointerI5QCharEC2EP15QTypedArrayDataIS0_EPS0_x
FNDA:0,_ZN17QArrayDataPointerI5QCharEC2EP15QTypedArrayDataIS0_EPS0_x
FN:44,_ZN17QArrayDataPointerI4QMapI7QStringS1_EEC2EP15QTypedArrayDataIS2_EPS2_x
FNDA:0,_ZN17QArrayDataPointerI4QMapI7QStringS1_EEC2EP15QTypedArrayDataIS2_EPS2_x
FN:44,_ZN17QArrayDataPointerIbEC2EP15QTypedArrayDataIbEPbx
FNDA:0,_ZN17QArrayDataPointerIbEC2EP15QTypedArrayDataIbEPbx
FN:44,_ZN17QArrayDataPointerI4QMapI5QChar5QListI7QStringEEEC2EP15QTypedArrayDataIS5_EPS5_x
FNDA:0,_ZN17QArrayDataPointerI4QMapI5QChar5QListI7QStringEEEC2EP15QTypedArrayDataIS5_EPS5_x
FN:44,_ZN17QArrayDataPointerI4QMapI5QChar7QStringEEC2EP15QTypedArrayDataIS3_EPS3_x
FNDA:0,_ZN17QArrayDataPointerI4QMapI5QChar7QStringEEC2EP15QTypedArrayDataIS3_EPS3_x
FN:44,_ZN17QArrayDataPointerI5QListIiEEC2EP15QTypedArrayDataIS1_EPS1_x
FNDA:1,_ZN17QArrayDataPointerI5QListIiEEC2EP15QTypedArrayDataIS1_EPS1_x
FN:44,_ZN17QArrayDataPointerI4QMapI5QChariEEC2EP15QTypedArrayDataIS2_EPS2_x
FNDA:0,_ZN17QArrayDataPointerI4QMapI5QChariEEC2EP15QTypedArrayDataIS2_EPS2_x
FN:50,_ZN17QArrayDataPointerI5QCharEC2ESt4pairIP15QTypedArrayDataIS0_EPS0_Ex
FNDA:0,_ZN17QArrayDataPointerI5QCharEC2ESt4pairIP15QTypedArrayDataIS0_EPS0_Ex
FN:50,_ZN17QArrayDataPointerIiEC2ESt4pairIP15QTypedArrayDataIiEPiEx
FNDA:0,_ZN17QArrayDataPointerIiEC2ESt4pairIP15QTypedArrayDataIiEPiEx
FN:50,_ZN17QArrayDataPointerIbEC2ESt4pairIP15QTypedArrayDataIbEPbEx
FNDA:2592,_ZN17QArrayDataPointerIbEC2ESt4pairIP15QTypedArrayDataIbEPbEx
FN:50,_ZN17QArrayDataPointerI7QStringEC2ESt4pairIP15QTypedArrayDataIS0_EPS0_Ex
FNDA:0,_ZN17QArrayDataPointerI7QStringEC2ESt4pairIP15QTypedArrayDataIS0_EPS0_Ex
FN:62,_ZN17QArrayDataPointerI7QStringEaSERKS1_
FNDA:0,_ZN17QArrayDataPointerI7QStringEaSERKS1_
FN:62,_ZN17QArrayDataPointerIP9GameModelEaSERKS2_
FNDA:0,_ZN17QArrayDataPointerIP9GameModelEaSERKS2_
FN:70,_ZN17QArrayDataPointerI5QListIiEEC2EOS2_
FNDA:1,_ZN17QArrayDataPointerI5QListIiEEC2EOS2_
FN:70,_ZN17QArrayDataPointerIiEC2EOS0_
FNDA:0,_ZN17QArrayDataPointerIiEC2EOS0_
FN:70,_ZN17QArrayDataPointerI5QCharEC2EOS1_
FNDA:0,_ZN17QArrayDataPointerI5QCharEC2EOS1_
FN:70,_ZN17QArrayDataPointerI7QStringEC2EOS1_
FNDA:0,_ZN17QArrayDataPointerI7QStringEC2EOS1_
FN:70,_ZN17QArrayDataPointerIDsEC2EOS0_
FNDA:0,_ZN17QArrayDataPointerIDsEC2EOS0_
FN:70,_ZN17QArrayDataPointerI4QMapI7QStringS1_EEC2EOS3_
FNDA:0,_ZN17QArrayDataPointerI4QMapI7QStringS1_EEC2EOS3_
FN:70,_ZN17QArrayDataPointerI4QMapI5QChar5QListI7QStringEEEC2EOS6_
FNDA:0,_ZN17QArrayDataPointerI4QMapI5QChar5QListI7QStringEEEC2EOS6_
FN:70,_ZN17QArrayDataPointerI4QMapI5QChar7QStringEEC2EOS4_
FNDA:0,_ZN17QArrayDataPointerI4QMapI5QChar7QStringEEC2EOS4_
FN:70,_ZN17QArrayDataPointerI4QMapI5QChariEEC2EOS3_
FNDA:0,_ZN17QArrayDataPointerI4QMapI5QChariEEC2EOS3_
FN:78,_ZN17QArrayDataPointerI7QStringEaSEOS1_
FNDA:0,_ZN17QArrayDataPointerI7QStringEaSEOS1_
FN:78,_ZN17QArrayDataPointerI4QMapI7QStringS1_EEaSEOS3_
FNDA:0,_ZN17QArrayDataPointerI4QMapI7QStringS1_EEaSEOS3_
FN:78,_ZN17QArrayDataPointerI4QMapI5QChar5QListI7QStringEEEaSEOS6_
FNDA:0,_ZN17QArrayDataPointerI4QMapI5QChar5QListI7QStringEEEaSEOS6_
FN:78,_ZN17QArrayDataPointerI4QMapI5QChar7QStringEEaSEOS4_
FNDA:0,_ZN17QArrayDataPointerI4QMapI5QChar7QStringEEaSEOS4_
FN:78,_ZN17QArrayDataPointerIiEaSEOS0_
FNDA:0,_ZN17QArrayDataPointerIiEaSEOS0_
FN:78,_ZN17QArrayDataPointerI4QMapI5QChariEEaSEOS3_
FNDA:0,_ZN17QArrayDataPointerI4QMapI5QChariEEaSEOS3_
FN:78,_ZN17QArrayDataPointerI5QCharEaSEOS1_
FNDA:0,_ZN17QArrayDataPointerI5QCharEaSEOS1_
FN:78,_ZN17QArrayDataPointerI5QListIiEEaSEOS2_
FNDA:1,_ZN17QArrayDataPointerI5QListIiEEaSEOS2_
FN:85,_ZN17QArrayDataPointerI4QMapI7QStringS1_EEptEv
FNDA:0,_ZN17QArrayDataPointerI4QMapI7QStringS1_EEptEv
FN:85,_ZN17QArrayDataPointerIcEptEv
FNDA:0,_ZN17QArrayDataPointerIcEptEv
FN:85,_ZN17QArrayDataPointerIiEptEv
FNDA:0,_ZN17QArrayDataPointerIiEptEv
FN:85,_ZN17QArrayDataPointerI5QCharEptEv
FNDA:0,_ZN17QArrayDataPointerI5QCharEptEv
FN:85,_ZN17QArrayDataPointerI7QStringEptEv
FNDA:0,_ZN17QArrayDataPointerI7QStringEptEv
FN:85,_ZN17QArrayDataPointerI5QListIiEEptEv
FNDA:8,_ZN17QArrayDataPointerI5QListIiEEptEv
FN:85,_ZN17QArrayDataPointerIbEptEv
FNDA:26472,_ZN17QArrayDataPointerIbEptEv
FN:85,_ZN17QArrayDataPointerI4QMapI5QChariEEptEv
FNDA:0,_ZN17QArrayDataPointerI4QMapI5QChariEEptEv
FN:85,_ZN17QArrayDataPointerI4QMapI5QChar7QStringEEptEv
FNDA:0,_ZN17QArrayDataPointerI4QMapI5QChar7QStringEEptEv
FN:85,_ZN17QArrayDataPointerI4QMapI5QChar5QListI7QStringEEEptEv
FNDA:0,_ZN17QArrayDataPointerI4QMapI5QChar5QListI7QStringEEEptEv
FN:85,_ZN17QArrayDataPointerIP9GameModelEptEv
FNDA:0,_ZN17QArrayDataPointerIP9GameModelEptEv
FN:85,_ZN17QArrayDataPointerIDsEptEv
FNDA:0,_ZN17QArrayDataPointerIDsEptEv
FN:95,_ZNK17QArrayDataPointerIcEptEv
FNDA:0,_ZNK17QArrayDataPointerIcEptEv
FN:95,_ZNK17QArrayDataPointerIiEptEv
FNDA:0,_ZNK17QArrayDataPointerIiEptEv
FN:95,_ZNK17QArrayDataPointerIP9GameModelEptEv
FNDA:0,_ZNK17QArrayDataPointerIP9GameModelEptEv
FN:95,_ZNK17QArrayDataPointerI7QStringEptEv
FNDA:0,_ZNK17QArrayDataPointerI7QStringEptEv
FN:95,_ZNK17QArrayDataPointerI4QMapI7QStringS1_EEptEv
FNDA:0,_ZNK17QArrayDataPointerI4QMapI7QStringS1_EEptEv
FN:95,_ZNK17QArrayDataPointerIDsEptEv
FNDA:0,_ZNK17QArrayDataPointerIDsEptEv
FN:95,_ZNK17QArrayDataPointerI5QCharEptEv
FNDA:0,_ZNK17QArrayDataPointerI5QCharEptEv
FN:100,_ZN17QArrayDataPointerIcED2Ev
FNDA:0,_ZN17QArrayDataPointerIcED2Ev
FN:100,_ZN17QArrayDataPointerI4QMapI7QStringS1_EED2Ev
FNDA:0,_ZN17QArrayDataPointerI4QMapI7QStringS1_EED2Ev
FN:100,_ZN17QArrayDataPointerIiED2Ev
FNDA:0,_ZN17QArrayDataPointerIiED2Ev
FN:100,_ZN17QArrayDataPointerI5QCharED2Ev
FNDA:0,_ZN17QArrayDataPointerI5QCharED2Ev
FN:100,_ZN17QArrayDataPointerI5QListIiEED2Ev
FNDA:3,_ZN17QArrayDataPointerI5QListIiEED2Ev
FN:100,_ZN17QArrayDataPointerI4QMapI5QChariEED2Ev
FNDA:0,_ZN17QArrayDataPointerI4QMapI5QChariEED2Ev
FN:100,_ZN17QArrayDataPointerI4QMapI5QChar7QStringEED2Ev
FNDA:0,_ZN17QArrayDataPointerI4QMapI5QChar7QStringEED2Ev
FN:100,_ZN17QArrayDataPointerIDsED2Ev
FNDA:0,_ZN17QArrayDataPointerIDsED2Ev
FN:100,_ZN17QArrayDataPointerI7QStringED2Ev
FNDA:0,_ZN17QArrayDataPointerI7QStringED2Ev
FN:100,_ZN17QArrayDataPointerI4QMapI5QChar5QListI7QStringEEED2Ev
FNDA:0,_ZN17QArrayDataPointerI4QMapI5QChar5QListI7QStringEEED2Ev
FN:100,_ZN17QArrayDataPointerIP9GameModelED2Ev
FNDA:0,_ZN17QArrayDataPointerIP9GameModelED2Ev
FN:100,_ZN17QArrayDataPointerIbED2Ev
FNDA:2592,_ZN17QArrayDataPointerIbED2Ev
FN:108,_ZNK17QArrayDataPointerIDsE6isNullEv
FNDA:0,_ZNK17QArrayDataPointerIDsE6isNullEv
FN:108,_ZNK17QArrayDataPointerIcE6isNullEv
FNDA:0,_ZNK17QArrayDataPointerIcE6isNullEv
FN:113,_ZN17QArrayDataPointerI5QListIiEE4dataEv
FNDA:5,_ZN17QArrayDataPointerI5QListIiEE4dataEv
FN:113,_ZN17QArrayDataPointerI5QCharE4dataEv
FNDA:0,_ZN17QArrayDataPointerI5QCharE4dataEv
FN:113,_ZN17QArrayDataPointerI4QMapI5QChar7QStringEE4dataEv
FNDA:0,_ZN17QArrayDataPointerI4QMapI5QChar7QStringEE4dataEv
FN:113,_ZN17QArrayDataPointerI4QMapI5QChar5QListI7QStringEEE4dataEv
FNDA:0,_ZN17QArrayDataPointerI4QMapI5QChar5QListI7QStringEEE4dataEv
FN:113,_ZN17QArrayDataPointerI4QMapI7QStringS1_EE4dataEv
FNDA:0,_ZN17QArrayDataPointerI4QMapI7QStringS1_EE4dataEv
FN:113,_ZN17QArrayDataPointerIbE4dataEv
FNDA:13236,_ZN17QArrayDataPointerIbE4dataEv
FN:113,_ZN17QArrayDataPointerIiE4dataEv
FNDA:0,_ZN17QArrayDataPointerIiE4dataEv
FN:113,_ZN17QArrayDataPointerI7QStringE4dataEv
FNDA:0,_ZN17QArrayDataPointerI7QStringE4dataEv
FN:113,_ZN17QArrayDataPointerIP9GameModelE4dataEv
FNDA:0,_ZN17QArrayDataPointerIP9GameModelE4dataEv
FN:113,_ZN17QArrayDataPointerI4QMapI5QChariEE4dataEv
FNDA:0,_ZN17QArrayDataPointerI4QMapI5QChariEE4dataEv
FN:113,_ZN17QArrayDataPointerIDsE4dataEv
FNDA:0,_ZN17QArrayDataPointerIDsE4dataEv
FN:114,_ZNK17QArrayDataPointerIiE4dataEv
FNDA:0,_ZNK17QArrayDataPointerIiE4dataEv
FN:114,_ZNK17QArrayDataPointerI4QMapI5QChariEE4dataEv
FNDA:0,_ZNK17QArrayDataPointerI4QMapI5QChariEE4dataEv
FN:114,_ZNK17QArrayDataPointerI4QMapI5QChar7QStringEE4dataEv
FNDA:0,_ZNK17QArrayDataPointerI4QMapI5QChar7QStringEE4dataEv
FN:114,_ZNK17QArrayDataPointerI5QCharE4dataEv
FNDA:0,_ZNK17QArrayDataPointerI5QCharE4dataEv
FN:114,_ZNK17QArrayDataPointerIcE4dataEv
FNDA:0,_ZNK17QArrayDataPointerIcE4dataEv
FN:114,_ZNK17QArrayDataPointerI4QMapI7QStringS1_EE4dataEv
FNDA:0,_ZNK17QArrayDataPointerI4QMapI7QStringS1_EE4dataEv
FN:114,_ZNK17QArrayDataPointerIDsE4dataEv
FNDA:0,_ZNK17QArrayDataPointerIDsE4dataEv
FN:114,_ZNK17QArrayDataPointerI4QMapI5QChar5QListI7QStringEEE4dataEv
FNDA:0,_ZNK17QArrayDataPointerI4QMapI5QChar5QListI7QStringEEE4dataEv
FN:114,_ZNK17QArrayDataPointerI5QListIiEE4dataEv
FNDA:0,_ZNK17QArrayDataPointerI5QListIiEE4dataEv
FN:114,_ZNK17QArrayDataPointerIP9GameModelE4dataEv
FNDA:0,_ZNK17QArrayDataPointerIP9GameModelE4dataEv
FN:114,_ZNK17QArrayDataPointerI7QStringE4dataEv
FNDA:0,_ZNK17QArrayDataPointerI7QStringE4dataEv
FN:116,_ZN17QArrayDataPointerI4QMapI5QChar7QStringEE5beginEv
FNDA:0,_ZN17QArrayDataPointerI4QMapI5QChar7QStringEE5beginEv
FN:116,_ZN17QArrayDataPointerIbE5beginEv
FNDA:0,_ZN17QArrayDataPointerIbE5beginEv
FN:116,_ZN17QArrayDataPointerIiE5beginEv
FNDA:0,_ZN17QArrayDataPointerIiE5beginEv
FN:116,_ZN17QArrayDataPointerI4QMapI5QChar5QListI7QStringEEE5beginEv
FNDA:0,_ZN17QArrayDataPointerI4QMapI5QChar5QListI7QStringEEE5beginEv
FN:116,_ZN17QArrayDataPointerI7QStringE5beginEv
FNDA:0,_ZN17QArrayDataPointerI7QStringE5beginEv
FN:116,_ZN17QArrayDataPointerI4QMapI5QChariEE5beginEv
FNDA:0,_ZN17QArrayDataPointerI4QMapI5QChariEE5beginEv
FN:116,_ZN17QArrayDataPointerIP9GameModelE5beginEv
FNDA:0,_ZN17QArrayDataPointerIP9GameModelE5beginEv
FN:116,_ZN17QArrayDataPointerI5QListIiEE5beginEv
FNDA:0,_ZN17QArrayDataPointerI5QListIiEE5beginEv
FN:116,_ZN17QArrayDataPointerI4QMapI7QStringS1_EE5beginEv
FNDA:0,_ZN17QArrayDataPointerI4QMapI7QStringS1_EE5beginEv
FN:116,_ZN17QArrayDataPointerI5QCharE5beginEv
FNDA:0,_ZN17QArrayDataPointerI5QCharE5beginEv
FN:117,_ZN17QArrayDataPointerIbE3endEv
FNDA:2592,_ZN17QArrayDataPointerIbE3endEv
FN:117,_ZN17QArrayDataPointerI7QStringE3endEv
FNDA:0,_ZN17QArrayDataPointerI7QStringE3endEv
FN:117,_ZN17QArrayDataPointerI4QMapI5QChar5QListI7QStringEEE3endEv
FNDA:0,_ZN17QArrayDataPointerI4QMapI5QChar5QListI7QStringEEE3endEv
FN:117,_ZN17QArrayDataPointerI4QMapI5QChar7QStringEE3endEv
FNDA:0,_ZN17QArrayDataPointerI4QMapI5QChar7QStringEE3endEv
FN:117,_ZN17QArrayDataPointerI4QMapI5QChariEE3endEv
FNDA:0,_ZN17QArrayDataPointerI4QMapI5QChariEE3endEv
FN:117,_ZN17QArrayDataPointerI5QListIiEE3endEv
FNDA:3,_ZN17QArrayDataPointerI5QListIiEE3endEv
FN:117,_ZN17QArrayDataPointerI4QMapI7QStringS1_EE3endEv
FNDA:0,_ZN17QArrayDataPointerI4QMapI7QStringS1_EE3endEv
FN:117,_ZN17QArrayDataPointerI5QCharE3endEv
FNDA:0,_ZN17QArrayDataPointerI5QCharE3endEv
FN:117,_ZN17QArrayDataPointerIP9GameModelE3endEv
FNDA:0,_ZN17QArrayDataPointerIP9GameModelE3endEv
FN:117,_ZN17QArrayDataPointerIiE3endEv
FNDA:0,_ZN17QArrayDataPointerIiE3endEv
FN:118,_ZNK17QArrayDataPointerI5QCharE5beginEv
FNDA:0,_ZNK17QArrayDataPointerI5QCharE5beginEv
FN:118,_ZNK17QArrayDataPointerI4QMapI7QStringS1_EE5beginEv
FNDA:0,_ZNK17QArrayDataPointerI4QMapI7QStringS1_EE5beginEv
FN:118,_ZNK17QArrayDataPointerI4QMapI5QChar5QListI7QStringEEE5beginEv
FNDA:0,_ZNK17QArrayDataPointerI4QMapI5QChar5QListI7QStringEEE5beginEv
FN:118,_ZNK17QArrayDataPointerIP9GameModelE5beginEv
FNDA:0,_ZNK17QArrayDataPointerIP9GameModelE5beginEv
FN:118,_ZNK17QArrayDataPointerI7QStringE5beginEv
FNDA:0,_ZNK17QArrayDataPointerI7QStringE5beginEv
FN:118,_ZNK17QArrayDataPointerI4QMapI5QChar7QStringEE5beginEv
FNDA:0,_ZNK17QArrayDataPointerI4QMapI5QChar7QStringEE5beginEv
FN:118,_ZNK17QArrayDataPointerI4QMapI5QChariEE5beginEv
FNDA:0,_ZNK17QArrayDataPointerI4QMapI5QChariEE5beginEv
FN:118,_ZNK17QArrayDataPointerIiE5beginEv
FNDA:0,_ZNK17QArrayDataPointerIiE5beginEv
FN:118,_ZNK17QArrayDataPointerI5QListIiEE5beginEv
FNDA:0,_ZNK17QArrayDataPointerI5QListIiEE5beginEv
FN:119,_ZNK17QArrayDataPointerI5QCharE3endEv
FNDA:0,_ZNK17QArrayDataPointerI5QCharE3endEv
FN:119,_ZNK17QArrayDataPointerI4QMapI7QStringS1_EE3endEv
FNDA:0,_ZNK17QArrayDataPointerI4QMapI7QStringS1_EE3endEv
FN:119,_ZNK17QArrayDataPointerI4QMapI5QChar5QListI7QStringEEE3endEv
FNDA:0,_ZNK17QArrayDataPointerI4QMapI5QChar5QListI7QStringEEE3endEv
FN:119,_ZNK17QArrayDataPointerI4QMapI5QChar7QStringEE3endEv
FNDA:0,_ZNK17QArrayDataPointerI4QMapI5QChar7QStringEE3endEv
FN:119,_ZNK17QArrayDataPointerIiE3endEv
FNDA:0,_ZNK17QArrayDataPointerIiE3endEv
FN:119,_ZNK17QArrayDataPointerI5QListIiEE3endEv
FNDA:0,_ZNK17QArrayDataPointerI5QListIiEE3endEv
FN:119,_ZNK17QArrayDataPointerI4QMapI5QChariEE3endEv
FNDA:0,_ZNK17QArrayDataPointerI4QMapI5QChariEE3endEv
FN:119,_ZNK17QArrayDataPointerI7QStringE3endEv
FNDA:0,_ZNK17QArrayDataPointerI7QStringE3endEv
FN:119,_ZNK17QArrayDataPointerIP9GameModelE3endEv
FNDA:0,_ZNK17QArrayDataPointerIP9GameModelE3endEv
FN:120,_ZNK17QArrayDataPointerI7QStringE10constBeginEv
FNDA:0,_ZNK17QArrayDataPointerI7QStringE10constBeginEv
FN:120,_ZNK17QArrayDataPointerIiE10constBeginEv
FNDA:0,_ZNK17QArrayDataPointerIiE10constBeginEv
FN:120,_ZNK17QArrayDataPointerI4QMapI7QStringS1_EE10constBeginEv
FNDA:0,_ZNK17QArrayDataPointerI4QMapI7QStringS1_EE10constBeginEv
FN:121,_ZNK17QArrayDataPointerIiE8constEndEv
FNDA:0,_ZNK17QArrayDataPointerIiE8constEndEv
FN:121,_ZNK17QArrayDataPointerI7QStringE8constEndEv
FNDA:0,_ZNK17QArrayDataPointerI7QStringE8constEndEv
FN:121,_ZNK17QArrayDataPointerI4QMapI7QStringS1_EE8constEndEv
FNDA:0,_ZNK17QArrayDataPointerI4QMapI7QStringS1_EE8constEndEv
FN:123,_ZN17QArrayDataPointerI4QMapI5QChar5QListI7QStringEEE4swapERS6_
FNDA:0,_ZN17QArrayDataPointerI4QMapI5QChar5QListI7QStringEEE4swapERS6_
FN:123,_ZN17QArrayDataPointerI4QMapI7QStringS1_EE4swapERS3_
FNDA:0,_ZN17QArrayDataPointerI4QMapI7QStringS1_EE4swapERS3_
FN:123,_ZN17QArrayDataPointerIP9GameModelE4swapERS2_
FNDA:0,_ZN17QArrayDataPointerIP9GameModelE4swapERS2_
FN:123,_ZN17QArrayDataPointerI5QCharE4swapERS1_
FNDA:0,_ZN17QArrayDataPointerI5QCharE4swapERS1_
FN:123,_ZN17QArrayDataPointerI4QMapI5QChar7QStringEE4swapERS4_
FNDA:0,_ZN17QArrayDataPointerI4QMapI5QChar7QStringEE4swapERS4_
FN:123,_ZN17QArrayDataPointerI7QStringE4swapERS1_
FNDA:0,_ZN17QArrayDataPointerI7QStringE4swapERS1_
FN:123,_ZN17QArrayDataPointerI5QListIiEE4swapERS2_
FNDA:2,_ZN17QArrayDataPointerI5QListIiEE4swapERS2_
FN:123,_ZN17QArrayDataPointerIbE4swapERS0_
FNDA:0,_ZN17QArrayDataPointerIbE4swapERS0_
FN:123,_ZN17QArrayDataPointerIDsE4swapERS0_
FNDA:0,_ZN17QArrayDataPointerIDsE4swapERS0_
FN:123,_ZN17QArrayDataPointerI4QMapI5QChariEE4swapERS3_
FNDA:0,_ZN17QArrayDataPointerI4QMapI5QChariEE4swapERS3_
FN:123,_ZN17QArrayDataPointerIiE4swapERS0_
FNDA:0,_ZN17QArrayDataPointerIiE4swapERS0_
FN:136,_ZN17QArrayDataPointerI4QMapI5QChariEE6detachEPS3_
FNDA:0,_ZN17QArrayDataPointerI4QMapI5QChariEE6detachEPS3_
FN:136,_ZN17QArrayDataPointerI4QMapI5QChar7QStringEE6detachEPS4_
FNDA:0,_ZN17QArrayDataPointerI4QMapI5QChar7QStringEE6detachEPS4_
FN:136,_ZN17QArrayDataPointerI5QCharE6detachEPS1_
FNDA:0,_ZN17QArrayDataPointerI5QCharE6detachEPS1_
FN:136,_ZN17QArrayDataPointerIiE6detachEPS0_
FNDA:0,_ZN17QArrayDataPointerIiE6detachEPS0_
FN:136,_ZN17QArrayDataPointerI7QStringE6detachEPS1_
FNDA:0,_ZN17QArrayDataPointerI7QStringE6detachEPS1_
FN:136,_ZN17QArrayDataPointerIP9GameModelE6detachEPS2_
FNDA:0,_ZN17QArrayDataPointerIP9GameModelE6detachEPS2_
FN:136,_ZN17QArrayDataPointerI4QMapI7QStringS1_EE6detachEPS3_
FNDA:0,_ZN17QArrayDataPointerI4QMapI7QStringS1_EE6detachEPS3_
FN:136,_ZN17QArrayDataPointerI5QListIiEE6detachEPS2_
FNDA:3,_ZN17QArrayDataPointerI5QListIiEE6detachEPS2_
FN:136,_ZN17QArrayDataPointerIbE6detachEPS0_
FNDA:10644,_ZN17QArrayDataPointerIbE6detachEPS0_
FN:136,_ZN17QArrayDataPointerI4QMapI5QChar5QListI7QStringEEE6detachEPS6_
FNDA:0,_ZN17QArrayDataPointerI4QMapI5QChar5QListI7QStringEEE6detachEPS6_
FN:187,_ZN17QArrayDataPointerI7QStringE13detachAndGrowEN10QArrayData14GrowthPositionExPPKS0_PS1_
FNDA:0,_ZN17QArrayDataPointerI7QStringE13detachAndGrowEN10QArrayData14GrowthPositionExPPKS0_PS1_
FN:187,_ZN17QArrayDataPointerI4QMapI7QStringS1_EE13detachAndGrowEN10QArrayData14GrowthPositionExPPKS2_PS3_
FNDA:0,_ZN17QArrayDataPointerI4QMapI7QStringS1_EE13detachAndGrowEN10QArrayData14GrowthPositionExPPKS2_PS3_
FN:187,_ZN17QArrayDataPointerI4QMapI5QChariEE13detachAndGrowEN10QArrayData14GrowthPositionExPPKS2_PS3_
FNDA:0,_ZN17QArrayDataPointerI4QMapI5QChariEE13detachAndGrowEN10QArrayData14GrowthPositionExPPKS2_PS3_
FN:187,_ZN17QArrayDataPointerI5QListIiEE13detachAndGrowEN10QArrayData14GrowthPositionExPPKS1_PS2_
FNDA:1,_ZN17QArrayDataPointerI5QListIiEE13detachAndGrowEN10QArrayData14GrowthPositionExPPKS1_PS2_
FN:187,_ZN17QArrayDataPointerI4QMapI5QChar5QListI7QStringEEE13detachAndGrowEN10QArrayData14GrowthPositionExPPKS5_PS6_
FNDA:0,_ZN17QArrayDataPointerI4QMapI5QChar5QListI7QStringEEE13detachAndGrowEN10QArrayData14GrowthPositionExPPKS5_PS6_
FN:187,_ZN17QArrayDataPointerIiE13detachAndGrowEN10QArrayData14GrowthPositionExPPKiPS0_
FNDA:0,_ZN17QArrayDataPointerIiE13detachAndGrowEN10QArrayData14GrowthPositionExPPKiPS0_
FN:187,_ZN17QArrayDataPointerI4QMapI5QChar7QStringEE13detachAndGrowEN10QArrayData14GrowthPositionExPPKS3_PS4_
FNDA:0,_ZN17QArrayDataPointerI4QMapI5QChar7QStringEE13detachAndGrowEN10QArrayData14GrowthPositionExPPKS3_PS4_
FN:187,_ZN17QArrayDataPointerI5QCharE13detachAndGrowEN10QArrayData14GrowthPositionExPPKS0_PS1_
FNDA:0,_ZN17QArrayDataPointerI5QCharE13detachAndGrowEN10QArrayData14GrowthPositionExPPKS0_PS1_
FN:187,_ZN17QArrayDataPointerIP9GameModelE13detachAndGrowEN10QArrayData14GrowthPositionExPPKS1_PS2_
FNDA:0,_ZN17QArrayDataPointerIP9GameModelE13detachAndGrowEN10QArrayData14GrowthPositionExPPKS1_PS2_
FN:212,_ZN17QArrayDataPointerI4QMapI7QStringS1_EE17reallocateAndGrowEN10QArrayData14GrowthPositionExPS3_
FNDA:0,_ZN17QArrayDataPointerI4QMapI7QStringS1_EE17reallocateAndGrowEN10QArrayData14GrowthPositionExPS3_
FN:212,_ZN17QArrayDataPointerIiE17reallocateAndGrowEN10QArrayData14GrowthPositionExPS0_
FNDA:0,_ZN17QArrayDataPointerIiE17reallocateAndGrowEN10QArrayData14GrowthPositionExPS0_
FN:212,_ZN17QArrayDataPointerI5QCharE17reallocateAndGrowEN10QArrayData14GrowthPositionExPS1_
FNDA:0,_ZN17QArrayDataPointerI5QCharE17reallocateAndGrowEN10QArrayData14GrowthPositionExPS1_
FN:212,_ZN17QArrayDataPointerI4QMapI5QChar5QListI7QStringEEE17reallocateAndGrowEN10QArrayData14GrowthPositionExPS6_
FNDA:0,_ZN17QArrayDataPointerI4QMapI5QChar5QListI7QStringEEE17reallocateAndGrowEN10QArrayData14GrowthPositionExPS6_
FN:212,_ZN17QArrayDataPointerI4QMapI5QChar7QStringEE17reallocateAndGrowEN10QArrayData14GrowthPositionExPS4_
FNDA:0,_ZN17QArrayDataPointerI4QMapI5QChar7QStringEE17reallocateAndGrowEN10QArrayData14GrowthPositionExPS4_
FN:212,_ZN17QArrayDataPointerIP9GameModelE17reallocateAndGrowEN10QArrayData14GrowthPositionExPS2_
FNDA:0,_ZN17QArrayDataPointerIP9GameModelE17reallocateAndGrowEN10QArrayData14GrowthPositionExPS2_
FN:212,_ZN17QArrayDataPointerI5QListIiEE17reallocateAndGrowEN10QArrayData14GrowthPositionExPS2_
FNDA:1,_ZN17QArrayDataPointerI5QListIiEE17reallocateAndGrowEN10QArrayData14GrowthPositionExPS2_
FN:212,_ZN17QArrayDataPointerI4QMapI5QChariEE17reallocateAndGrowEN10QArrayData14GrowthPositionExPS3_
FNDA:0,_ZN17QArrayDataPointerI4QMapI5QChariEE17reallocateAndGrowEN10QArrayData14GrowthPositionExPS3_
FN:212,_ZN17QArrayDataPointerIbE17reallocateAndGrowEN10QArrayData14GrowthPositionExPS0_
FNDA:0,_ZN17QArrayDataPointerIbE17reallocateAndGrowEN10QArrayData14GrowthPositionExPS0_
FN:212,_ZN17QArrayDataPointerI7QStringE17reallocateAndGrowEN10QArrayData14GrowthPositionExPS1_
FNDA:0,_ZN17QArrayDataPointerI7QStringE17reallocateAndGrowEN10QArrayData14GrowthPositionExPS1_
FN:263,_ZN17QArrayDataPointerI4QMapI5QChar7QStringEE20tryReadjustFreeSpaceEN10QArrayData14GrowthPositionExPPKS3_
FNDA:0,_ZN17QArrayDataPointerI4QMapI5QChar7QStringEE20tryReadjustFreeSpaceEN10QArrayData14GrowthPositionExPPKS3_
FN:263,_ZN17QArrayDataPointerI4QMapI5QChar5QListI7QStringEEE20tryReadjustFreeSpaceEN10QArrayData14GrowthPositionExPPKS5_
FNDA:0,_ZN17QArrayDataPointerI4QMapI5QChar5QListI7QStringEEE20tryReadjustFreeSpaceEN10QArrayData14GrowthPositionExPPKS5_
FN:263,_ZN17QArrayDataPointerIiE20tryReadjustFreeSpaceEN10QArrayData14GrowthPositionExPPKi
FNDA:0,_ZN17QArrayDataPointerIiE20tryReadjustFreeSpaceEN10QArrayData14GrowthPositionExPPKi
FN:263,_ZN17QArrayDataPointerI5QListIiEE20tryReadjustFreeSpaceEN10QArrayData14GrowthPositionExPPKS1_
FNDA:0,_ZN17QArrayDataPointerI5QListIiEE20tryReadjustFreeSpaceEN10QArrayData14GrowthPositionExPPKS1_
FN:263,_ZN17QArrayDataPointerI5QCharE20tryReadjustFreeSpaceEN10QArrayData14GrowthPositionExPPKS0_
FNDA:0,_ZN17QArrayDataPointerI5QCharE20tryReadjustFreeSpaceEN10QArrayData14GrowthPositionExPPKS0_
FN:263,_ZN17QArrayDataPointerIP9GameModelE20tryReadjustFreeSpaceEN10QArrayData14GrowthPositionExPPKS1_
FNDA:0,_ZN17QArrayDataPointerIP9GameModelE20tryReadjustFreeSpaceEN10QArrayData14GrowthPositionExPPKS1_
FN:263,_ZN17QArrayDataPointerI4QMapI5QChariEE20tryReadjustFreeSpaceEN10QArrayData14GrowthPositionExPPKS2_
FNDA:0,_ZN17QArrayDataPointerI4QMapI5QChariEE20tryReadjustFreeSpaceEN10QArrayData14GrowthPositionExPPKS2_
FN:263,_ZN17QArrayDataPointerI7QStringE20tryReadjustFreeSpaceEN10QArrayData14GrowthPositionExPPKS0_
FNDA:0,_ZN17QArrayDataPointerI7QStringE20tryReadjustFreeSpaceEN10QArrayData14GrowthPositionExPPKS0_
FN:263,_ZN17QArrayDataPointerI4QMapI7QStringS1_EE20tryReadjustFreeSpaceEN10QArrayData14GrowthPositionExPPKS2_
FNDA:0,_ZN17QArrayDataPointerI4QMapI7QStringS1_EE20tryReadjustFreeSpaceEN10QArrayData14GrowthPositionExPPKS2_
FN:307,_ZN17QArrayDataPointerI4QMapI5QChar5QListI7QStringEEE8relocateExPPKS5_
FNDA:0,_ZN17QArrayDataPointerI4QMapI5QChar5QListI7QStringEEE8relocateExPPKS5_
FN:307,_ZN17QArrayDataPointerIiE8relocateExPPKi
FNDA:0,_ZN17QArrayDataPointerIiE8relocateExPPKi
FN:307,_ZN17QArrayDataPointerI7QStringE8relocateExPPKS0_
FNDA:0,_ZN17QArrayDataPointerI7QStringE8relocateExPPKS0_
FN:307,_ZN17QArrayDataPointerI5QListIiEE8relocateExPPKS1_
FNDA:0,_ZN17QArrayDataPointerI5QListIiEE8relocateExPPKS1_
FN:307,_ZN17QArrayDataPointerI4QMapI5QChariEE8relocateExPPKS2_
FNDA:0,_ZN17QArrayDataPointerI4QMapI5QChariEE8relocateExPPKS2_
FN:307,_ZN17QArrayDataPointerI4QMapI7QStringS1_EE8relocateExPPKS2_
FNDA:0,_ZN17QArrayDataPointerI4QMapI7QStringS1_EE8relocateExPPKS2_
FN:307,_ZN17QArrayDataPointerI4QMapI5QChar7QStringEE8relocateExPPKS3_
FNDA:0,_ZN17QArrayDataPointerI4QMapI5QChar7QStringEE8relocateExPPKS3_
FN:307,_ZN17QArrayDataPointerIP9GameModelE8relocateExPPKS1_
FNDA:0,_ZN17QArrayDataPointerIP9GameModelE8relocateExPPKS1_
FN:307,_ZN17QArrayDataPointerI5QCharE8relocateExPPKS0_
FNDA:0,_ZN17QArrayDataPointerI5QCharE8relocateExPPKS0_
FN:411,_ZNK17QArrayDataPointerIP9GameModelE22constAllocatedCapacityEv
FNDA:0,_ZNK17QArrayDataPointerIP9GameModelE22constAllocatedCapacityEv
FN:411,_ZNK17QArrayDataPointerI4QMapI7QStringS1_EE22constAllocatedCapacityEv
FNDA:0,_ZNK17QArrayDataPointerI4QMapI7QStringS1_EE22constAllocatedCapacityEv
FN:411,_ZNK17QArrayDataPointerIbE22constAllocatedCapacityEv
FNDA:0,_ZNK17QArrayDataPointerIbE22constAllocatedCapacityEv
FN:411,_ZNK17QArrayDataPointerI4QMapI5QChariEE22constAllocatedCapacityEv
FNDA:0,_ZNK17QArrayDataPointerI4QMapI5QChariEE22constAllocatedCapacityEv
FN:411,_ZNK17QArrayDataPointerI5QCharE22constAllocatedCapacityEv
FNDA:0,_ZNK17QArrayDataPointerI5QCharE22constAllocatedCapacityEv
FN:411,_ZNK17QArrayDataPointerI4QMapI5QChar7QStringEE22constAllocatedCapacityEv
FNDA:0,_ZNK17QArrayDataPointerI4QMapI5QChar7QStringEE22constAllocatedCapacityEv
FN:411,_ZNK17QArrayDataPointerI4QMapI5QChar5QListI7QStringEEE22constAllocatedCapacityEv
FNDA:0,_ZNK17QArrayDataPointerI4QMapI5QChar5QListI7QStringEEE22constAllocatedCapacityEv
FN:411,_ZNK17QArrayDataPointerI5QListIiEE22constAllocatedCapacityEv
FNDA:2,_ZNK17QArrayDataPointerI5QListIiEE22constAllocatedCapacityEv
FN:411,_ZNK17QArrayDataPointerI7QStringE22constAllocatedCapacityEv
FNDA:0,_ZNK17QArrayDataPointerI7QStringE22constAllocatedCapacityEv
FN:411,_ZNK17QArrayDataPointerIiE22constAllocatedCapacityEv
FNDA:0,_ZNK17QArrayDataPointerIiE22constAllocatedCapacityEv
FN:412,_ZN17QArrayDataPointerI7QStringE3refEv
FNDA:0,_ZN17QArrayDataPointerI7QStringE3refEv
FN:412,_ZN17QArrayDataPointerI5QCharE3refEv
FNDA:0,_ZN17QArrayDataPointerI5QCharE3refEv
FN:412,_ZN17QArrayDataPointerIP9GameModelE3refEv
FNDA:0,_ZN17QArrayDataPointerIP9GameModelE3refEv
FN:412,_ZN17QArrayDataPointerIiE3refEv
FNDA:0,_ZN17QArrayDataPointerIiE3refEv
FN:412,_ZN17QArrayDataPointerIDsE3refEv
FNDA:0,_ZN17QArrayDataPointerIDsE3refEv
FN:413,_ZN17QArrayDataPointerI4QMapI5QChariEE5derefEv
FNDA:0,_ZN17QArrayDataPointerI4QMapI5QChariEE5derefEv
FN:413,_ZN17QArrayDataPointerIP9GameModelE5derefEv
FNDA:0,_ZN17QArrayDataPointerIP9GameModelE5derefEv
FN:413,_ZN17QArrayDataPointerI4QMapI5QChar5QListI7QStringEEE5derefEv
FNDA:0,_ZN17QArrayDataPointerI4QMapI5QChar5QListI7QStringEEE5derefEv
FN:413,_ZN17QArrayDataPointerI4QMapI5QChar7QStringEE5derefEv
FNDA:0,_ZN17QArrayDataPointerI4QMapI5QChar7QStringEE5derefEv
FN:413,_ZN17QArrayDataPointerI7QStringE5derefEv
FNDA:0,_ZN17QArrayDataPointerI7QStringE5derefEv
FN:413,_ZN17QArrayDataPointerI5QListIiEE5derefEv
FNDA:3,_ZN17QArrayDataPointerI5QListIiEE5derefEv
FN:413,_ZN17QArrayDataPointerIcE5derefEv
FNDA:0,_ZN17QArrayDataPointerIcE5derefEv
FN:413,_ZN17QArrayDataPointerIDsE5derefEv
FNDA:0,_ZN17QArrayDataPointerIDsE5derefEv
FN:413,_ZN17QArrayDataPointerI4QMapI7QStringS1_EE5derefEv
FNDA:0,_ZN17QArrayDataPointerI4QMapI7QStringS1_EE5derefEv
FN:413,_ZN17QArrayDataPointerIbE5derefEv
FNDA:2592,_ZN17QArrayDataPointerIbE5derefEv
FN:413,_ZN17QArrayDataPointerIiE5derefEv
FNDA:0,_ZN17QArrayDataPointerIiE5derefEv
FN:413,_ZN17QArrayDataPointerI5QCharE5derefEv
FNDA:0,_ZN17QArrayDataPointerI5QCharE5derefEv
FN:414,_ZNK17QArrayDataPointerI4QMapI7QStringS1_EE9isMutableEv
FNDA:0,_ZNK17QArrayDataPointerI4QMapI7QStringS1_EE9isMutableEv
FN:414,_ZNK17QArrayDataPointerI4QMapI5QChar5QListI7QStringEEE9isMutableEv
FNDA:0,_ZNK17QArrayDataPointerI4QMapI5QChar5QListI7QStringEEE9isMutableEv
FN:414,_ZNK17QArrayDataPointerIP9GameModelE9isMutableEv
FNDA:0,_ZNK17QArrayDataPointerIP9GameModelE9isMutableEv
FN:414,_ZNK17QArrayDataPointerI4QMapI5QChar7QStringEE9isMutableEv
FNDA:0,_ZNK17QArrayDataPointerI4QMapI5QChar7QStringEE9isMutableEv
FN:414,_ZNK17QArrayDataPointerI5QListIiEE9isMutableEv
FNDA:0,_ZNK17QArrayDataPointerI5QListIiEE9isMutableEv
FN:414,_ZNK17QArrayDataPointerI4QMapI5QChariEE9isMutableEv
FNDA:0,_ZNK17QArrayDataPointerI4QMapI5QChariEE9isMutableEv
FN:414,_ZNK17QArrayDataPointerI5QCharE9isMutableEv
FNDA:0,_ZNK17QArrayDataPointerI5QCharE9isMutableEv
FN:414,_ZNK17QArrayDataPointerI7QStringE9isMutableEv
FNDA:0,_ZNK17QArrayDataPointerI7QStringE9isMutableEv
FN:414,_ZNK17QArrayDataPointerIiE9isMutableEv
FNDA:0,_ZNK17QArrayDataPointerIiE9isMutableEv
FN:414,_ZNK17QArrayDataPointerIbE9isMutableEv
FNDA:2592,_ZNK17QArrayDataPointerIbE9isMutableEv
FN:415,_ZNK17QArrayDataPointerI4QMapI7QStringS1_EE8isSharedEv
FNDA:0,_ZNK17QArrayDataPointerI4QMapI7QStringS1_EE8isSharedEv
FN:415,_ZNK17QArrayDataPointerI7QStringE8isSharedEv
FNDA:0,_ZNK17QArrayDataPointerI7QStringE8isSharedEv
FN:415,_ZNK17QArrayDataPointerI4QMapI5QChariEE8isSharedEv
FNDA:0,_ZNK17QArrayDataPointerI4QMapI5QChariEE8isSharedEv
FN:415,_ZNK17QArrayDataPointerI5QCharE8isSharedEv
FNDA:0,_ZNK17QArrayDataPointerI5QCharE8isSharedEv
FN:415,_ZNK17QArrayDataPointerI5QListIiEE8isSharedEv
FNDA:0,_ZNK17QArrayDataPointerI5QListIiEE8isSharedEv
FN:415,_ZNK17QArrayDataPointerI4QMapI5QChar7QStringEE8isSharedEv
FNDA:0,_ZNK17QArrayDataPointerI4QMapI5QChar7QStringEE8isSharedEv
FN:415,_ZNK17QArrayDataPointerIiE8isSharedEv
FNDA:0,_ZNK17QArrayDataPointerIiE8isSharedEv
FN:415,_ZNK17QArrayDataPointerI4QMapI5QChar5QListI7QStringEEE8isSharedEv
FNDA:0,_ZNK17QArrayDataPointerI4QMapI5QChar5QListI7QStringEEE8isSharedEv
FN:415,_ZNK17QArrayDataPointerIbE8isSharedEv
FNDA:2592,_ZNK17QArrayDataPointerIbE8isSharedEv
FN:415,_ZNK17QArrayDataPointerIP9GameModelE8isSharedEv
FNDA:0,_ZNK17QArrayDataPointerIP9GameModelE8isSharedEv
FN:417,_ZNK17QArrayDataPointerIDsE11needsDetachEv
FNDA:0,_ZNK17QArrayDataPointerIDsE11needsDetachEv
FN:417,_ZNK17QArrayDataPointerIiE11needsDetachEv
FNDA:0,_ZNK17QArrayDataPointerIiE11needsDetachEv
FN:417,_ZNK17QArrayDataPointerI4QMapI5QChariEE11needsDetachEv
FNDA:0,_ZNK17QArrayDataPointerI4QMapI5QChariEE11needsDetachEv
FN:417,_ZNK17QArrayDataPointerI5QListIiEE11needsDetachEv
FNDA:7,_ZNK17QArrayDataPointerI5QListIiEE11needsDetachEv
FN:417,_ZNK17QArrayDataPointerI5QCharE11needsDetachEv
FNDA:0,_ZNK17QArrayDataPointerI5QCharE11needsDetachEv
FN:417,_ZNK17QArrayDataPointerIbE11needsDetachEv
FNDA:10644,_ZNK17QArrayDataPointerIbE11needsDetachEv
FN:417,_ZNK17QArrayDataPointerI7QStringE11needsDetachEv
FNDA:0,_ZNK17QArrayDataPointerI7QStringE11needsDetachEv
FN:417,_ZNK17QArrayDataPointerIP9GameModelE11needsDetachEv
FNDA:0,_ZNK17QArrayDataPointerIP9GameModelE11needsDetachEv
FN:417,_ZNK17QArrayDataPointerI4QMapI7QStringS1_EE11needsDetachEv
FNDA:0,_ZNK17QArrayDataPointerI4QMapI7QStringS1_EE11needsDetachEv
FN:417,_ZNK17QArrayDataPointerI4QMapI5QChar5QListI7QStringEEE11needsDetachEv
FNDA:0,_ZNK17QArrayDataPointerI4QMapI5QChar5QListI7QStringEEE11needsDetachEv
FN:417,_ZNK17QArrayDataPointerI4QMapI5QChar7QStringEE11needsDetachEv
FNDA:0,_ZNK17QArrayDataPointerI4QMapI5QChar7QStringEE11needsDetachEv
FN:418,_ZNK17QArrayDataPointerIP9GameModelE14detachCapacityEx
FNDA:0,_ZNK17QArrayDataPointerIP9GameModelE14detachCapacityEx
FN:418,_ZNK17QArrayDataPointerI4QMapI5QChariEE14detachCapacityEx
FNDA:0,_ZNK17QArrayDataPointerI4QMapI5QChariEE14detachCapacityEx
FN:418,_ZNK17QArrayDataPointerI4QMapI7QStringS1_EE14detachCapacityEx
FNDA:0,_ZNK17QArrayDataPointerI4QMapI7QStringS1_EE14detachCapacityEx
FN:418,_ZNK17QArrayDataPointerI4QMapI5QChar7QStringEE14detachCapacityEx
FNDA:0,_ZNK17QArrayDataPointerI4QMapI5QChar7QStringEE14detachCapacityEx
FN:418,_ZNK17QArrayDataPointerI7QStringE14detachCapacityEx
FNDA:0,_ZNK17QArrayDataPointerI7QStringE14detachCapacityEx
FN:418,_ZNK17QArrayDataPointerI4QMapI5QChar5QListI7QStringEEE14detachCapacityEx
FNDA:0,_ZNK17QArrayDataPointerI4QMapI5QChar5QListI7QStringEEE14detachCapacityEx
FN:418,_ZNK17QArrayDataPointerI5QListIiEE14detachCapacityEx
FNDA:1,_ZNK17QArrayDataPointerI5QListIiEE14detachCapacityEx
FN:418,_ZNK17QArrayDataPointerIbE14detachCapacityEx
FNDA:0,_ZNK17QArrayDataPointerIbE14detachCapacityEx
FN:418,_ZNK17QArrayDataPointerI5QCharE14detachCapacityEx
FNDA:0,_ZNK17QArrayDataPointerI5QCharE14detachCapacityEx
FN:418,_ZNK17QArrayDataPointerIiE14detachCapacityEx
FNDA:0,_ZNK17QArrayDataPointerIiE14detachCapacityEx
FN:419,_ZNK17QArrayDataPointerI5QListIiEE5flagsEv
FNDA:1,_ZNK17QArrayDataPointerI5QListIiEE5flagsEv
FN:419,_ZNK17QArrayDataPointerI4QMapI5QChar7QStringEE5flagsEv
FNDA:0,_ZNK17QArrayDataPointerI4QMapI5QChar7QStringEE5flagsEv
FN:419,_ZNK17QArrayDataPointerIP9GameModelE5flagsEv
FNDA:0,_ZNK17QArrayDataPointerIP9GameModelE5flagsEv
FN:419,_ZNK17QArrayDataPointerI4QMapI5QChariEE5flagsEv
FNDA:0,_ZNK17QArrayDataPointerI4QMapI5QChariEE5flagsEv
FN:419,_ZNK17QArrayDataPointerIbE5flagsEv
FNDA:0,_ZNK17QArrayDataPointerIbE5flagsEv
FN:419,_ZNK17QArrayDataPointerI7QStringE5flagsEv
FNDA:0,_ZNK17QArrayDataPointerI7QStringE5flagsEv
FN:419,_ZNK17QArrayDataPointerI4QMapI5QChar5QListI7QStringEEE5flagsEv
FNDA:0,_ZNK17QArrayDataPointerI4QMapI5QChar5QListI7QStringEEE5flagsEv
FN:419,_ZNK17QArrayDataPointerI4QMapI7QStringS1_EE5flagsEv
FNDA:0,_ZNK17QArrayDataPointerI4QMapI7QStringS1_EE5flagsEv
FN:419,_ZNK17QArrayDataPointerIiE5flagsEv
FNDA:0,_ZNK17QArrayDataPointerIiE5flagsEv
FN:419,_ZNK17QArrayDataPointerI5QCharE5flagsEv
FNDA:0,_ZNK17QArrayDataPointerI5QCharE5flagsEv
FN:420,_ZN17QArrayDataPointerI7QStringE7setFlagE6QFlagsIN10QArrayData11ArrayOptionEE
FNDA:0,_ZN17QArrayDataPointerI7QStringE7setFlagE6QFlagsIN10QArrayData11ArrayOptionEE
FN:423,_ZN17QArrayDataPointerI7QStringE5d_ptrEv
FNDA:0,_ZN17QArrayDataPointerI7QStringE5d_ptrEv
FN:426,_ZNK17QArrayDataPointerI4QMapI5QChar7QStringEE16freeSpaceAtBeginEv
FNDA:0,_ZNK17QArrayDataPointerI4QMapI5QChar7QStringEE16freeSpaceAtBeginEv
FN:426,_ZNK17QArrayDataPointerI5QCharE16freeSpaceAtBeginEv
FNDA:0,_ZNK17QArrayDataPointerI5QCharE16freeSpaceAtBeginEv
FN:426,_ZNK17QArrayDataPointerI4QMapI7QStringS1_EE16freeSpaceAtBeginEv
FNDA:0,_ZNK17QArrayDataPointerI4QMapI7QStringS1_EE16freeSpaceAtBeginEv
FN:426,_ZNK17QArrayDataPointerIiE16freeSpaceAtBeginEv
FNDA:0,_ZNK17QArrayDataPointerIiE16freeSpaceAtBeginEv
FN:426,_ZNK17QArrayDataPointerIP9GameModelE16freeSpaceAtBeginEv
FNDA:0,_ZNK17QArrayDataPointerIP9GameModelE16freeSpaceAtBeginEv
FN:426,_ZNK17QArrayDataPointerI5QListIiEE16freeSpaceAtBeginEv
FNDA:3,_ZNK17QArrayDataPointerI5QListIiEE16freeSpaceAtBeginEv
FN:426,_ZNK17QArrayDataPointerI7QStringE16freeSpaceAtBeginEv
FNDA:0,_ZNK17QArrayDataPointerI7QStringE16freeSpaceAtBeginEv
FN:426,_ZNK17QArrayDataPointerI4QMapI5QChariEE16freeSpaceAtBeginEv
FNDA:0,_ZNK17QArrayDataPointerI4QMapI5QChariEE16freeSpaceAtBeginEv
FN:426,_ZNK17QArrayDataPointerIbE16freeSpaceAtBeginEv
FNDA:2592,_ZNK17QArrayDataPointerIbE16freeSpaceAtBeginEv
FN:426,_ZNK17QArrayDataPointerI4QMapI5QChar5QListI7QStringEEE16freeSpaceAtBeginEv
FNDA:0,_ZNK17QArrayDataPointerI4QMapI5QChar5QListI7QStringEEE16freeSpaceAtBeginEv
FN:433,_ZNK17QArrayDataPointerI5QListIiEE14freeSpaceAtEndEv
FNDA:3,_ZNK17QArrayDataPointerI5QListIiEE14freeSpaceAtEndEv
FN:433,_ZNK17QArrayDataPointerI7QStringE14freeSpaceAtEndEv
FNDA:0,_ZNK17QArrayDataPointerI7QStringE14freeSpaceAtEndEv
FN:433,_ZNK17QArrayDataPointerI4QMapI5QChariEE14freeSpaceAtEndEv
FNDA:0,_ZNK17QArrayDataPointerI4QMapI5QChariEE14freeSpaceAtEndEv
FN:433,_ZNK17QArrayDataPointerI4QMapI7QStringS1_EE14freeSpaceAtEndEv
FNDA:0,_ZNK17QArrayDataPointerI4QMapI7QStringS1_EE14freeSpaceAtEndEv
FN:433,_ZNK17QArrayDataPointerIbE14freeSpaceAtEndEv
FNDA:2592,_ZNK17QArrayDataPointerIbE14freeSpaceAtEndEv
FN:433,_ZNK17QArrayDataPointerI4QMapI5QChar7QStringEE14freeSpaceAtEndEv
FNDA:0,_ZNK17QArrayDataPointerI4QMapI5QChar7QStringEE14freeSpaceAtEndEv
FN:433,_ZNK17QArrayDataPointerI5QCharE14freeSpaceAtEndEv
FNDA:0,_ZNK17QArrayDataPointerI5QCharE14freeSpaceAtEndEv
FN:433,_ZNK17QArrayDataPointerI4QMapI5QChar5QListI7QStringEEE14freeSpaceAtEndEv
FNDA:0,_ZNK17QArrayDataPointerI4QMapI5QChar5QListI7QStringEEE14freeSpaceAtEndEv
FN:433,_ZNK17QArrayDataPointerIP9GameModelE14freeSpaceAtEndEv
FNDA:0,_ZNK17QArrayDataPointerIP9GameModelE14freeSpaceAtEndEv
FN:433,_ZNK17QArrayDataPointerIiE14freeSpaceAtEndEv
FNDA:0,_ZNK17QArrayDataPointerIiE14freeSpaceAtEndEv
FN:441,_ZN17QArrayDataPointerIiE12allocateGrowERKS0_xN10QArrayData14GrowthPositionE
FNDA:0,_ZN17QArrayDataPointerIiE12allocateGrowERKS0_xN10QArrayData14GrowthPositionE
FN:441,_ZN17QArrayDataPointerI4QMapI7QStringS1_EE12allocateGrowERKS3_xN10QArrayData14GrowthPositionE
FNDA:0,_ZN17QArrayDataPointerI4QMapI7QStringS1_EE12allocateGrowERKS3_xN10QArrayData14GrowthPositionE
FN:441,_ZN17QArrayDataPointerI5QCharE12allocateGrowERKS1_xN10QArrayData14GrowthPositionE
FNDA:0,_ZN17QArrayDataPointerI5QCharE12allocateGrowERKS1_xN10QArrayData14GrowthPositionE
FN:441,_ZN17QArrayDataPointerI4QMapI5QChar7QStringEE12allocateGrowERKS4_xN10QArrayData14GrowthPositionE
FNDA:0,_ZN17QArrayDataPointerI4QMapI5QChar7QStringEE12allocateGrowERKS4_xN10QArrayData14GrowthPositionE
FN:441,_ZN17QArrayDataPointerI5QListIiEE12allocateGrowERKS2_xN10QArrayData14GrowthPositionE
FNDA:1,_ZN17QArrayDataPointerI5QListIiEE12allocateGrowERKS2_xN10QArrayData14GrowthPositionE
FN:441,_ZN17QArrayDataPointerI7QStringE12allocateGrowERKS1_xN10QArrayData14GrowthPositionE
FNDA:0,_ZN17QArrayDataPointerI7QStringE12allocateGrowERKS1_xN10QArrayData14GrowthPositionE
FN:441,_ZN17QArrayDataPointerI4QMapI5QChariEE12allocateGrowERKS3_xN10QArrayData14GrowthPositionE
FNDA:0,_ZN17QArrayDataPointerI4QMapI5QChariEE12allocateGrowERKS3_xN10QArrayData14GrowthPositionE
FN:441,_ZN17QArrayDataPointerIP9GameModelE12allocateGrowERKS2_xN10QArrayData14GrowthPositionE
FNDA:0,_ZN17QArrayDataPointerIP9GameModelE12allocateGrowERKS2_xN10QArrayData14GrowthPositionE
FN:441,_ZN17QArrayDataPointerIbE12allocateGrowERKS0_xN10QArrayData14GrowthPositionE
FNDA:0,_ZN17QArrayDataPointerIbE12allocateGrowERKS0_xN10QArrayData14GrowthPositionE
FN:441,_ZN17QArrayDataPointerI4QMapI5QChar5QListI7QStringEEE12allocateGrowERKS6_xN10QArrayData14GrowthPositionE
FNDA:0,_ZN17QArrayDataPointerI4QMapI5QChar5QListI7QStringEEE12allocateGrowERKS6_xN10QArrayData14GrowthPositionE
DA:31,0
DA:32,0
DA:34,0
DA:31,0
DA:32,0
DA:34,0
DA:31,0
DA:32,0
DA:34,0
DA:31,0
DA:32,0
DA:34,0
DA:31,12
DA:32,12
DA:34,12
DA:31,11
DA:32,11
DA:34,11
DA:31,0
DA:32,0
DA:34,0
DA:31,0
DA:32,0
DA:34,0
DA:31,22
DA:32,22
DA:34,22
DA:31,0
DA:32,0
DA:34,0
DA:37,0
DA:38,0
DA:40,0
DA:41,0
DA:37,0
DA:38,0
DA:40,0
DA:41,0
DA:37,0
DA:38,0
DA:40,0
DA:41,0
DA:37,0
DA:38,0
DA:40,0
DA:41,0
DA:37,0
DA:38,0
DA:40,0
DA:41,0
DA:44,0
DA:45,0
DA:47,0
DA:44,0
DA:45,0
DA:47,0
DA:44,1
DA:45,1
DA:47,1
DA:44,0
DA:45,0
DA:47,0
DA:44,0
DA:45,0
DA:47,0
DA:44,0
DA:45,0
DA:47,0
DA:44,0
DA:45,0
DA:47,0
DA:44,0
DA:45,0
DA:47,0
DA:44,0
DA:45,0
DA:47,0
DA:44,0
DA:45,0
DA:47,0
DA:50,0
DA:51,0
DA:53,0
DA:50,2592
DA:51,2592
DA:53,2592
DA:50,0
DA:51,0
DA:53,0
DA:50,0
DA:51,0
DA:53,0
DA:62,0
DA:64,0
DA:65,0
DA:66,0
DA:67,0
DA:62,0
DA:64,0
DA:65,0
DA:66,0
DA:67,0
DA:70,0
DA:71,0
DA:73,0
DA:74,0
DA:75,0
DA:76,0
DA:70,1
DA:71,1
DA:73,1
DA:74,1
DA:75,1
DA:76,1
DA:70,0
DA:71,0
DA:73,0
DA:74,0
DA:75,0
DA:76,0
DA:70,0
DA:71,0
DA:73,0
DA:74,0
DA:75,0
DA:76,0
DA:70,0
DA:71,0
DA:73,0
DA:74,0
DA:75,0
DA:76,0
DA:70,0
DA:71,0
DA:73,0
DA:74,0
DA:75,0
DA:76,0
DA:70,0
DA:71,0
DA:73,0
DA:74,0
DA:75,0
DA:76,0
DA:70,0
DA:71,0
DA:73,0
DA:74,0
DA:75,0
DA:76,0
DA:70,0
DA:71,0
DA:73,0
DA:74,0
DA:75,0
DA:76,0
DA:78,0
DA:78,0
DA:78,1
DA:78,0
DA:78,0
DA:78,0
DA:78,0
DA:78,0
DA:85,26472
DA:87,26472
DA:85,0
DA:87,0
DA:85,0
DA:87,0
DA:85,0
DA:87,0
DA:85,0
DA:87,0
DA:85,8
DA:87,8
DA:85,0
DA:87,0
DA:85,0
DA:87,0
DA:85,0
DA:87,0
DA:85,0
DA:87,0
DA:85,0
DA:87,0
DA:85,0
DA:87,0
DA:95,0
DA:97,0
DA:95,0
DA:97,0
DA:95,0
DA:97,0
DA:95,0
DA:97,0
DA:95,0
DA:97,0
DA:95,0
DA:97,0
DA:95,0
DA:97,0
DA:100,2592
DA:102,2592
BRDA:102,0,0,2592
BRDA:102,0,1,0
DA:103,2592
DA:104,2592
DA:106,2592
DA:100,0
DA:102,0
BRDA:102,0,0,-
BRDA:102,0,1,-
DA:103,0
DA:104,0
DA:106,0
DA:100,0
DA:102,0
BRDA:102,0,0,-
BRDA:102,0,1,-
DA:103,0
DA:104,0
DA:106,0
DA:100,0
DA:102,0
BRDA:102,0,0,-
BRDA:102,0,1,-
DA:103,0
DA:104,0
DA:106,0
DA:100,0
DA:102,0
BRDA:102,0,0,-
BRDA:102,0,1,-
DA:103,0
DA:104,0
DA:106,0
DA:100,3
DA:102,3
BRDA:102,0,0,0
BRDA:102,0,1,3
DA:103,0
DA:104,0
DA:106,3
DA:100,0
DA:102,0
BRDA:102,0,0,-
BRDA:102,0,1,-
DA:103,0
DA:104,0
DA:106,0
DA:100,0
DA:102,0
BRDA:102,0,0,-
BRDA:102,0,1,-
DA:103,0
DA:104,0
DA:106,0
DA:100,0
DA:102,0
BRDA:102,0,0,-
BRDA:102,0,1,-
DA:103,0
DA:104,0
DA:106,0
DA:100,0
DA:102,0
BRDA:102,0,0,-
BRDA:102,0,1,-
DA:103,0
DA:104,0
DA:106,0
DA:100,0
DA:102,0
BRDA:102,0,0,-
BRDA:102,0,1,-
DA:103,0
DA:104,0
DA:106,0
DA:100,0
DA:102,0
BRDA:102,0,0,-
BRDA:102,0,1,-
DA:103,0
DA:104,0
DA:106,0
DA:108,0
DA:110,0
DA:108,0
DA:110,0
DA:113,0
DA:113,0
DA:113,0
DA:113,0
DA:113,13236
DA:113,5
DA:113,0
DA:113,0
DA:113,0
DA:113,0
DA:113,0
DA:114,0
DA:114,0
DA:114,0
DA:114,0
DA:114,0
DA:114,0
DA:114,0
DA:114,0
DA:114,0
DA:114,0
DA:114,0
DA:116,0
DA:116,0
DA:116,0
DA:116,0
DA:116,0
DA:116,0
DA:116,0
DA:116,0
DA:116,0
DA:116,0
DA:117,2592
DA:117,0
DA:117,0
DA:117,0
DA:117,3
DA:117,0
DA:117,0
DA:117,0
DA:117,0
DA:117,0
DA:118,0
DA:118,0
DA:118,0
DA:118,0
DA:118,0
DA:118,0
DA:118,0
DA:118,0
DA:118,0
DA:119,0
DA:119,0
DA:119,0
DA:119,0
DA:119,0
DA:119,0
DA:119,0
DA:119,0
DA:119,0
DA:120,0
DA:120,0
DA:120,0
DA:121,0
DA:121,0
DA:121,0
DA:123,0
DA:125,0
DA:126,0
DA:127,0
DA:128,0
DA:123,0
DA:125,0
DA:126,0
DA:127,0
DA:128,0
DA:123,0
DA:125,0
DA:126,0
DA:127,0
DA:128,0
DA:123,2
DA:125,2
DA:126,2
DA:127,2
DA:128,2
DA:123,0
DA:125,0
DA:126,0
DA:127,0
DA:128,0
DA:123,0
DA:125,0
DA:126,0
DA:127,0
DA:128,0
DA:123,0
DA:125,0
DA:126,0
DA:127,0
DA:128,0
DA:123,0
DA:125,0
DA:126,0
DA:127,0
DA:128,0
DA:123,0
DA:125,0
DA:126,0
DA:127,0
DA:128,0
DA:123,0
DA:125,0
DA:126,0
DA:127,0
DA:128,0
DA:123,0
DA:125,0
DA:126,0
DA:127,0
DA:128,0
DA:136,0
DA:138,0
BRDA:138,0,0,-
BRDA:138,0,1,-
DA:139,0
DA:140,0
DA:136,0
DA:138,0
BRDA:138,0,0,-
BRDA:138,0,1,-
DA:139,0
DA:140,0
DA:136,0
DA:138,0
BRDA:138,0,0,-
BRDA:138,0,1,-
DA:139,0
DA:140,0
DA:136,0
DA:138,0
BRDA:138,0,0,-
BRDA:138,0,1,-
DA:139,0
DA:140,0
DA:136,10644
DA:138,10644
BRDA:138,0,0,0
BRDA:138,0,1,10644
DA:139,0
DA:140,10644
DA:136,3
DA:138,3
BRDA:138,0,0,0
BRDA:138,0,1,3
DA:139,0
DA:140,3
DA:136,0
DA:138,0
BRDA:138,0,0,-
BRDA:138,0,1,-
DA:139,0
DA:140,0
DA:136,0
DA:138,0
BRDA:138,0,0,-
BRDA:138,0,1,-
DA:139,0
DA:140,0
DA:136,0
DA:138,0
BRDA:138,0,0,-
BRDA:138,0,1,-
DA:139,0
DA:140,0
DA:136,0
DA:138,0
BRDA:138,0,0,-
BRDA:138,0,1,-
DA:139,0
DA:140,0
DA:187,0
DA:190,0
DA:191,0
DA:192,0
BRDA:192,0,0,-
BRDA:192,0,1,-
DA:193,0
BRDA:193,0,0,-
BRDA:193,0,1,-
BRDA:193,0,2,-
BRDA:193,0,3,-
DA:194,0
BRDA:194,0,0,-
BRDA:194,0,1,-
BRDA:194,0,2,-
BRDA:194,0,3,-
BRDA:194,0,4,-
BRDA:194,0,5,-
BRDA:194,0,6,-
BRDA:194,0,7,-
DA:195,0
DA:196,0
DA:197,0
BRDA:197,0,0,-
BRDA:197,0,1,-
BRDA:197,0,2,-
BRDA:197,0,3,-
BRDA:197,0,4,-
BRDA:197,0,5,-
BRDA:197,0,6,-
BRDA:197,0,7,-
BRDA:197,0,8,-
BRDA:197,0,9,-
DA:202,0
BRDA:202,0,0,-
BRDA:202,0,1,-
DA:203,0
DA:187,0
DA:190,0
DA:191,0
DA:192,0
BRDA:192,0,0,-
BRDA:192,0,1,-
DA:193,0
BRDA:193,0,0,-
BRDA:193,0,1,-
BRDA:193,0,2,-
BRDA:193,0,3,-
DA:194,0
BRDA:194,0,0,-
BRDA:194,0,1,-
BRDA:194,0,2,-
BRDA:194,0,3,-
BRDA:194,0,4,-
BRDA:194,0,5,-
BRDA:194,0,6,-
BRDA:194,0,7,-
DA:195,0
DA:196,0
DA:197,0
BRDA:197,0,0,-
BRDA:197,0,1,-
BRDA:197,0,2,-
BRDA:197,0,3,-
BRDA:197,0,4,-
BRDA:197,0,5,-
BRDA:197,0,6,-
BRDA:197,0,7,-
BRDA:197,0,8,-
BRDA:197,0,9,-
DA:202,0
BRDA:202,0,0,-
BRDA:202,0,1,-
DA:203,0
DA:187,0
DA:190,0
DA:191,0
DA:192,0
BRDA:192,0,0,-
BRDA:192,0,1,-
DA:193,0
BRDA:193,0,0,-
BRDA:193,0,1,-
BRDA:193,0,2,-
BRDA:193,0,3,-
DA:194,0
BRDA:194,0,0,-
BRDA:194,0,1,-
BRDA:194,0,2,-
BRDA:194,0,3,-
BRDA:194,0,4,-
BRDA:194,0,5,-
BRDA:194,0,6,-
BRDA:194,0,7,-
DA:195,0
DA:196,0
DA:197,0
BRDA:197,0,0,-
BRDA:197,0,1,-
BRDA:197,0,2,-
BRDA:197,0,3,-
BRDA:197,0,4,-
BRDA:197,0,5,-
BRDA:197,0,6,-
BRDA:197,0,7,-
BRDA:197,0,8,-
BRDA:197,0,9,-
DA:202,0
BRDA:202,0,0,-
BRDA:202,0,1,-
DA:203,0
DA:187,1
DA:190,1
DA:191,1
DA:192,1
BRDA:192,0,0,0
BRDA:192,0,1,1
DA:193,0
BRDA:193,0,0,-
BRDA:193,0,1,-
BRDA:193,0,2,-
BRDA:193,0,3,-
DA:194,0
BRDA:194,0,0,-
BRDA:194,0,1,-
BRDA:194,0,2,-
BRDA:194,0,3,-
BRDA:194,0,4,-
BRDA:194,0,5,-
BRDA:194,0,6,-
BRDA:194,0,7,-
DA:195,0
DA:196,0
DA:197,0
BRDA:197,0,0,-
BRDA:197,0,1,-
BRDA:197,0,2,-
BRDA:197,0,3,-
BRDA:197,0,4,-
BRDA:197,0,5,-
BRDA:197,0,6,-
BRDA:197,0,7,-
BRDA:197,0,8,-
BRDA:197,0,9,-
DA:202,1
BRDA:202,0,0,1
BRDA:202,0,1,0
DA:203,1
DA:187,0
DA:190,0
DA:191,0
DA:192,0
BRDA:192,0,0,-
BRDA:192,0,1,-
DA:193,0
BRDA:193,0,0,-
BRDA:193,0,1,-
BRDA:193,0,2,-
BRDA:193,0,3,-
DA:194,0
BRDA:194,0,0,-
BRDA:194,0,1,-
BRDA:194,0,2,-
BRDA:194,0,3,-
BRDA:194,0,4,-
BRDA:194,0,5,-
BRDA:194,0,6,-
BRDA:194,0,7,-
DA:195,0
DA:196,0
DA:197,0
BRDA:197,0,0,-
BRDA:197,0,1,-
BRDA:197,0,2,-
BRDA:197,0,3,-
BRDA:197,0,4,-
BRDA:197,0,5,-
BRDA:197,0,6,-
BRDA:197,0,7,-
BRDA:197,0,8,-
BRDA:197,0,9,-
DA:202,0
BRDA:202,0,0,-
BRDA:202,0,1,-
DA:203,0
DA:187,0
DA:190,0
DA:191,0
DA:192,0
BRDA:192,0,0,-
BRDA:192,0,1,-
DA:193,0
BRDA:193,0,0,-
BRDA:193,0,1,-
BRDA:193,0,2,-
BRDA:193,0,3,-
DA:194,0
BRDA:194,0,0,-
BRDA:194,0,1,-
BRDA:194,0,2,-
BRDA:194,0,3,-
BRDA:194,0,4,-
BRDA:194,0,5,-
BRDA:194,0,6,-
BRDA:194,0,7,-
DA:195,0
DA:196,0
DA:197,0
BRDA:197,0,0,-
BRDA:197,0,1,-
BRDA:197,0,2,-
BRDA:197,0,3,-
BRDA:197,0,4,-
BRDA:197,0,5,-
BRDA:197,0,6,-
BRDA:197,0,7,-
BRDA:197,0,8,-
BRDA:197,0,9,-
DA:202,0
BRDA:202,0,0,-
BRDA:202,0,1,-
DA:203,0
DA:187,0
DA:190,0
DA:191,0
DA:192,0
BRDA:192,0,0,-
BRDA:192,0,1,-
DA:193,0
BRDA:193,0,0,-
BRDA:193,0,1,-
BRDA:193,0,2,-
BRDA:193,0,3,-
DA:194,0
BRDA:194,0,0,-
BRDA:194,0,1,-
BRDA:194,0,2,-
BRDA:194,0,3,-
BRDA:194,0,4,-
BRDA:194,0,5,-
BRDA:194,0,6,-
BRDA:194,0,7,-
DA:195,0
DA:196,0
DA:197,0
BRDA:197,0,0,-
BRDA:197,0,1,-
BRDA:197,0,2,-
BRDA:197,0,3,-
BRDA:197,0,4,-
BRDA:197,0,5,-
BRDA:197,0,6,-
BRDA:197,0,7,-
BRDA:197,0,8,-
BRDA:197,0,9,-
DA:202,0
BRDA:202,0,0,-
BRDA:202,0,1,-
DA:203,0
DA:187,0
DA:190,0
DA:191,0
DA:192,0
BRDA:192,0,0,-
BRDA:192,0,1,-
DA:193,0
BRDA:193,0,0,-
BRDA:193,0,1,-
BRDA:193,0,2,-
BRDA:193,0,3,-
DA:194,0
BRDA:194,0,0,-
BRDA:194,0,1,-
BRDA:194,0,2,-
BRDA:194,0,3,-
BRDA:194,0,4,-
BRDA:194,0,5,-
BRDA:194,0,6,-
BRDA:194,0,7,-
DA:195,0
DA:196,0
DA:197,0
BRDA:197,0,0,-
BRDA:197,0,1,-
BRDA:197,0,2,-
BRDA:197,0,3,-
BRDA:197,0,4,-
BRDA:197,0,5,-
BRDA:197,0,6,-
BRDA:197,0,7,-
BRDA:197,0,8,-
BRDA:197,0,9,-
DA:202,0
BRDA:202,0,0,-
BRDA:202,0,1,-
DA:203,0
DA:187,0
DA:190,0
DA:191,0
DA:192,0
BRDA:192,0,0,-
BRDA:192,0,1,-
DA:193,0
BRDA:193,0,0,-
BRDA:193,0,1,-
BRDA:193,0,2,-
BRDA:193,0,3,-
DA:194,0
BRDA:194,0,0,-
BRDA:194,0,1,-
BRDA:194,0,2,-
BRDA:194,0,3,-
BRDA:194,0,4,-
BRDA:194,0,5,-
BRDA:194,0,6,-
BRDA:194,0,7,-
DA:195,0
DA:196,0
DA:197,0
BRDA:197,0,0,-
BRDA:197,0,1,-
BRDA:197,0,2,-
BRDA:197,0,3,-
BRDA:197,0,4,-
BRDA:197,0,5,-
BRDA:197,0,6,-
BRDA:197,0,7,-
BRDA:197,0,8,-
BRDA:197,0,9,-
DA:202,0
BRDA:202,0,0,-
BRDA:202,0,1,-
DA:203,0
DA:212,0
DA:216,0
BRDA:216,0,0,-
BRDA:216,0,1,-
BRDA:216,0,2,-
BRDA:216,0,3,-
BRDA:216,0,4,-
BRDA:216,0,5,-
BRDA:216,0,6,-
BRDA:216,0,7,-
BRDA:216,0,8,-
BRDA:216,0,9,-
DA:217,0
BRDA:217,0,0,-
BRDA:217,0,1,-
DA:218,0
DA:222,0
BRDA:222,0,0,-
BRDA:222,0,1,-
DA:223,0
BRDA:223,0,0,-
BRDA:223,0,1,-
DA:224,0
BRDA:224,0,0,-
BRDA:224,0,1,-
DA:225,0
BRDA:225,0,0,-
BRDA:225,0,1,-
DA:226,0
BRDA:226,0,0,-
BRDA:226,0,1,-
DA:228,0
BRDA:228,0,0,-
BRDA:228,0,1,-
DA:230,0
BRDA:230,0,0,-
BRDA:230,0,1,-
DA:231,0
DA:232,0
BRDA:232,0,0,-
BRDA:232,0,1,-
DA:233,0
DA:234,0
BRDA:234,0,0,-
BRDA:234,0,1,-
BRDA:234,0,2,-
BRDA:234,0,3,-
BRDA:234,0,4,-
BRDA:234,0,5,-
DA:235,0
DA:237,0
DA:238,0
BRDA:238,0,0,-
BRDA:238,0,1,-
DA:241,0
DA:242,0
BRDA:242,0,0,-
BRDA:242,0,1,-
DA:243,0
DA:244,0
DA:212,0
DA:216,0
BRDA:216,0,0,-
BRDA:216,0,1,-
BRDA:216,0,2,-
BRDA:216,0,3,-
BRDA:216,0,4,-
BRDA:216,0,5,-
BRDA:216,0,6,-
BRDA:216,0,7,-
BRDA:216,0,8,-
BRDA:216,0,9,-
DA:217,0
BRDA:217,0,0,-
BRDA:217,0,1,-
DA:218,0
DA:222,0
BRDA:222,0,0,-
BRDA:222,0,1,-
DA:223,0
BRDA:223,0,0,-
BRDA:223,0,1,-
DA:224,0
BRDA:224,0,0,-
BRDA:224,0,1,-
DA:225,0
BRDA:225,0,0,-
BRDA:225,0,1,-
DA:226,0
BRDA:226,0,0,-
BRDA:226,0,1,-
DA:228,0
BRDA:228,0,0,-
BRDA:228,0,1,-
DA:230,0
BRDA:230,0,0,-
BRDA:230,0,1,-
DA:231,0
DA:232,0
BRDA:232,0,0,-
BRDA:232,0,1,-
DA:233,0
DA:234,0
BRDA:234,0,0,-
BRDA:234,0,1,-
BRDA:234,0,2,-
BRDA:234,0,3,-
BRDA:234,0,4,-
BRDA:234,0,5,-
DA:235,0
DA:237,0
DA:238,0
BRDA:238,0,0,-
BRDA:238,0,1,-
DA:241,0
DA:242,0
BRDA:242,0,0,-
BRDA:242,0,1,-
DA:243,0
DA:244,0
DA:212,1
DA:216,1
BRDA:216,0,0,1
BRDA:216,0,1,0
BRDA:216,0,2,1
BRDA:216,0,3,0
BRDA:216,0,4,0
BRDA:216,0,5,1
BRDA:216,0,6,0
BRDA:216,0,7,0
BRDA:216,0,8,0
BRDA:216,0,9,1
DA:217,0
BRDA:217,0,0,-
BRDA:217,0,1,-
DA:218,0
DA:222,1
BRDA:222,0,0,1
BRDA:222,0,1,0
DA:223,1
BRDA:223,0,0,1
BRDA:223,0,1,0
DA:224,1
BRDA:224,0,0,0
BRDA:224,0,1,1
DA:225,1
BRDA:225,0,0,0
BRDA:225,0,1,1
DA:226,0
BRDA:226,0,0,-
BRDA:226,0,1,-
DA:228,1
BRDA:228,0,0,0
BRDA:228,0,1,1
DA:230,1
BRDA:230,0,0,0
BRDA:230,0,1,1
DA:231,0
DA:232,0
BRDA:232,0,0,-
BRDA:232,0,1,-
DA:233,0
DA:234,0
BRDA:234,0,0,-
BRDA:234,0,1,-
BRDA:234,0,2,-
BRDA:234,0,3,-
BRDA:234,0,4,-
BRDA:234,0,5,-
DA:235,0
DA:237,0
DA:238,0
BRDA:238,0,0,-
BRDA:238,0,1,-
DA:241,1
DA:242,1
BRDA:242,0,0,0
BRDA:242,0,1,1
DA:243,0
DA:244,1
DA:212,0
DA:216,0
BRDA:216,0,0,-
BRDA:216,0,1,-
BRDA:216,0,2,-
BRDA:216,0,3,-
BRDA:216,0,4,-
BRDA:216,0,5,-
BRDA:216,0,6,-
BRDA:216,0,7,-
BRDA:216,0,8,-
BRDA:216,0,9,-
DA:217,0
BRDA:217,0,0,-
BRDA:217,0,1,-
DA:218,0
DA:222,0
BRDA:222,0,0,-
BRDA:222,0,1,-
DA:223,0
BRDA:223,0,0,-
BRDA:223,0,1,-
DA:224,0
BRDA:224,0,0,-
BRDA:224,0,1,-
DA:225,0
BRDA:225,0,0,-
BRDA:225,0,1,-
DA:226,0
BRDA:226,0,0,-
BRDA:226,0,1,-
DA:228,0
BRDA:228,0,0,-
BRDA:228,0,1,-
DA:230,0
BRDA:230,0,0,-
BRDA:230,0,1,-
DA:231,0
DA:232,0
BRDA:232,0,0,-
BRDA:232,0,1,-
DA:233,0
DA:234,0
BRDA:234,0,0,-
BRDA:234,0,1,-
BRDA:234,0,2,-
BRDA:234,0,3,-
BRDA:234,0,4,-
BRDA:234,0,5,-
DA:235,0
DA:237,0
DA:238,0
BRDA:238,0,0,-
BRDA:238,0,1,-
DA:241,0
DA:242,0
BRDA:242,0,0,-
BRDA:242,0,1,-
DA:243,0
DA:244,0
DA:212,0
DA:216,0
BRDA:216,0,0,-
BRDA:216,0,1,-
BRDA:216,0,2,-
BRDA:216,0,3,-
BRDA:216,0,4,-
BRDA:216,0,5,-
BRDA:216,0,6,-
BRDA:216,0,7,-
BRDA:216,0,8,-
BRDA:216,0,9,-
DA:217,0
BRDA:217,0,0,-
BRDA:217,0,1,-
DA:218,0
DA:222,0
BRDA:222,0,0,-
BRDA:222,0,1,-
DA:223,0
BRDA:223,0,0,-
BRDA:223,0,1,-
DA:224,0
BRDA:224,0,0,-
BRDA:224,0,1,-
DA:225,0
BRDA:225,0,0,-
BRDA:225,0,1,-
DA:226,0
BRDA:226,0,0,-
BRDA:226,0,1,-
DA:228,0
BRDA:228,0,0,-
BRDA:228,0,1,-
DA:230,0
BRDA:230,0,0,-
BRDA:230,0,1,-
DA:231,0
DA:232,0
BRDA:232,0,0,-
BRDA:232,0,1,-
DA:233,0
DA:234,0
BRDA:234,0,0,-
BRDA:234,0,1,-
BRDA:234,0,2,-
BRDA:234,0,3,-
BRDA:234,0,4,-
BRDA:234,0,5,-
DA:235,0
DA:237,0
DA:238,0
BRDA:238,0,0,-
BRDA:238,0,1,-
DA:241,0
DA:242,0
BRDA:242,0,0,-
BRDA:242,0,1,-
DA:243,0
DA:244,0
DA:212,0
DA:216,0
BRDA:216,0,0,-
BRDA:216,0,1,-
BRDA:216,0,2,-
BRDA:216,0,3,-
BRDA:216,0,4,-
BRDA:216,0,5,-
BRDA:216,0,6,-
BRDA:216,0,7,-
BRDA:216,0,8,-
BRDA:216,0,9,-
DA:217,0
BRDA:217,0,0,-
BRDA:217,0,1,-
DA:218,0
DA:222,0
BRDA:222,0,0,-
BRDA:222,0,1,-
DA:223,0
BRDA:223,0,0,-
BRDA:223,0,1,-
DA:224,0
BRDA:224,0,0,-
BRDA:224,0,1,-
DA:225,0
BRDA:225,0,0,-
BRDA:225,0,1,-
DA:226,0
BRDA:226,0,0,-
BRDA:226,0,1,-
DA:228,0
BRDA:228,0,0,-
BRDA:228,0,1,-
DA:230,0
BRDA:230,0,0,-
BRDA:230,0,1,-
DA:231,0
DA:232,0
BRDA:232,0,0,-
BRDA:232,0,1,-
DA:233,0
DA:234,0
BRDA:234,0,0,-
BRDA:234,0,1,-
BRDA:234,0,2,-
BRDA:234,0,3,-
BRDA:234,0,4,-
BRDA:234,0,5,-
DA:235,0
DA:237,0
DA:238,0
BRDA:238,0,0,-
BRDA:238,0,1,-
DA:241,0
DA:242,0
BRDA:242,0,0,-
BRDA:242,0,1,-
DA:243,0
DA:244,0
DA:212,0
DA:216,0
BRDA:216,0,0,-
BRDA:216,0,1,-
BRDA:216,0,2,-
BRDA:216,0,3,-
BRDA:216,0,4,-
BRDA:216,0,5,-
BRDA:216,0,6,-
BRDA:216,0,7,-
BRDA:216,0,8,-
BRDA:216,0,9,-
DA:217,0
BRDA:217,0,0,-
BRDA:217,0,1,-
DA:218,0
DA:222,0
BRDA:222,0,0,-
BRDA:222,0,1,-
DA:223,0
BRDA:223,0,0,-
BRDA:223,0,1,-
DA:224,0
BRDA:224,0,0,-
BRDA:224,0,1,-
DA:225,0
BRDA:225,0,0,-
BRDA:225,0,1,-
DA:226,0
BRDA:226,0,0,-
BRDA:226,0,1,-
DA:228,0
BRDA:228,0,0,-
BRDA:228,0,1,-
DA:230,0
BRDA:230,0,0,-
BRDA:230,0,1,-
DA:231,0
DA:232,0
BRDA:232,0,0,-
BRDA:232,0,1,-
DA:233,0
DA:234,0
BRDA:234,0,0,-
BRDA:234,0,1,-
BRDA:234,0,2,-
BRDA:234,0,3,-
BRDA:234,0,4,-
BRDA:234,0,5,-
DA:235,0
DA:237,0
DA:238,0
BRDA:238,0,0,-
BRDA:238,0,1,-
DA:241,0
DA:242,0
BRDA:242,0,0,-
BRDA:242,0,1,-
DA:243,0
DA:244,0
DA:212,0
DA:216,0
BRDA:216,0,0,-
BRDA:216,0,1,-
BRDA:216,0,2,-
BRDA:216,0,3,-
BRDA:216,0,4,-
BRDA:216,0,5,-
BRDA:216,0,6,-
BRDA:216,0,7,-
BRDA:216,0,8,-
BRDA:216,0,9,-
DA:217,0
BRDA:217,0,0,-
BRDA:217,0,1,-
DA:218,0
DA:222,0
BRDA:222,0,0,-
BRDA:222,0,1,-
DA:223,0
BRDA:223,0,0,-
BRDA:223,0,1,-
DA:224,0
BRDA:224,0,0,-
BRDA:224,0,1,-
DA:225,0
BRDA:225,0,0,-
BRDA:225,0,1,-
DA:226,0
BRDA:226,0,0,-
BRDA:226,0,1,-
DA:228,0
BRDA:228,0,0,-
BRDA:228,0,1,-
DA:230,0
BRDA:230,0,0,-
BRDA:230,0,1,-
DA:231,0
DA:232,0
BRDA:232,0,0,-
BRDA:232,0,1,-
DA:233,0
DA:234,0
BRDA:234,0,0,-
BRDA:234,0,1,-
BRDA:234,0,2,-
BRDA:234,0,3,-
BRDA:234,0,4,-
BRDA:234,0,5,-
DA:235,0
DA:237,0
DA:238,0
BRDA:238,0,0,-
BRDA:238,0,1,-
DA:241,0
DA:242,0
BRDA:242,0,0,-
BRDA:242,0,1,-
DA:243,0
DA:244,0
DA:212,0
DA:216,0
BRDA:216,0,0,-
BRDA:216,0,1,-
BRDA:216,0,2,-
BRDA:216,0,3,-
BRDA:216,0,4,-
BRDA:216,0,5,-
BRDA:216,0,6,-
BRDA:216,0,7,-
BRDA:216,0,8,-
BRDA:216,0,9,-
DA:217,0
BRDA:217,0,0,-
BRDA:217,0,1,-
DA:218,0
DA:222,0
BRDA:222,0,0,-
BRDA:222,0,1,-
DA:223,0
BRDA:223,0,0,-
BRDA:223,0,1,-
DA:224,0
BRDA:224,0,0,-
BRDA:224,0,1,-
DA:225,0
BRDA:225,0,0,-
BRDA:225,0,1,-
DA:226,0
BRDA:226,0,0,-
BRDA:226,0,1,-
DA:228,0
BRDA:228,0,0,-
BRDA:228,0,1,-
DA:230,0
BRDA:230,0,0,-
BRDA:230,0,1,-
DA:231,0
DA:232,0
BRDA:232,0,0,-
BRDA:232,0,1,-
DA:233,0
DA:234,0
BRDA:234,0,0,-
BRDA:234,0,1,-
BRDA:234,0,2,-
BRDA:234,0,3,-
BRDA:234,0,4,-
BRDA:234,0,5,-
DA:235,0
DA:237,0
DA:238,0
BRDA:238,0,0,-
BRDA:238,0,1,-
DA:241,0
DA:242,0
BRDA:242,0,0,-
BRDA:242,0,1,-
DA:243,0
DA:244,0
DA:212,0
DA:216,0
BRDA:216,0,0,-
BRDA:216,0,1,-
BRDA:216,0,2,-
BRDA:216,0,3,-
BRDA:216,0,4,-
BRDA:216,0,5,-
BRDA:216,0,6,-
BRDA:216,0,7,-
BRDA:216,0,8,-
BRDA:216,0,9,-
DA:217,0
BRDA:217,0,0,-
BRDA:217,0,1,-
DA:218,0
DA:222,0
BRDA:222,0,0,-
BRDA:222,0,1,-
DA:223,0
BRDA:223,0,0,-
BRDA:223,0,1,-
DA:224,0
BRDA:224,0,0,-
BRDA:224,0,1,-
DA:225,0
BRDA:225,0,0,-
BRDA:225,0,1,-
DA:226,0
BRDA:226,0,0,-
BRDA:226,0,1,-
DA:228,0
BRDA:228,0,0,-
BRDA:228,0,1,-
DA:230,0
BRDA:230,0,0,-
BRDA:230,0,1,-
DA:231,0
DA:232,0
BRDA:232,0,0,-
BRDA:232,0,1,-
DA:233,0
DA:234,0
BRDA:234,0,0,-
BRDA:234,0,1,-
BRDA:234,0,2,-
BRDA:234,0,3,-
BRDA:234,0,4,-
BRDA:234,0,5,-
DA:235,0
DA:237,0
DA:238,0
BRDA:238,0,0,-
BRDA:238,0,1,-
DA:241,0
DA:242,0
BRDA:242,0,0,-
BRDA:242,0,1,-
DA:243,0
DA:244,0
DA:263,0
DA:265,0
BRDA:265,0,0,-
BRDA:265,0,1,-
DA:266,0
BRDA:266,0,0,-
BRDA:266,0,1,-
DA:267,0
BRDA:267,0,0,-
BRDA:267,0,1,-
BRDA:267,0,2,-
BRDA:267,0,3,-
BRDA:267,0,4,-
BRDA:267,0,5,-
BRDA:267,0,6,-
BRDA:267,0,7,-
DA:270,0
DA:271,0
DA:272,0
DA:274,0
DA:283,0
BRDA:283,0,0,-
BRDA:283,0,1,-
BRDA:283,0,2,-
BRDA:283,0,3,-
DA:284,0
BRDA:284,0,0,-
BRDA:284,0,1,-
DA:286,0
BRDA:286,0,0,-
BRDA:286,0,1,-
BRDA:286,0,2,-
BRDA:286,0,3,-
DA:287,0
BRDA:287,0,0,-
BRDA:287,0,1,-
DA:289,0
DA:292,0
DA:295,0
DA:297,0
BRDA:297,0,0,-
BRDA:297,0,1,-
BRDA:297,0,2,-
BRDA:297,0,3,-
BRDA:297,0,4,-
BRDA:297,0,5,-
BRDA:297,0,6,-
BRDA:297,0,7,-
DA:299,0
DA:263,0
DA:265,0
BRDA:265,0,0,-
BRDA:265,0,1,-
DA:266,0
BRDA:266,0,0,-
BRDA:266,0,1,-
DA:267,0
BRDA:267,0,0,-
BRDA:267,0,1,-
BRDA:267,0,2,-
BRDA:267,0,3,-
BRDA:267,0,4,-
BRDA:267,0,5,-
BRDA:267,0,6,-
BRDA:267,0,7,-
DA:270,0
DA:271,0
DA:272,0
DA:274,0
DA:283,0
BRDA:283,0,0,-
BRDA:283,0,1,-
BRDA:283,0,2,-
BRDA:283,0,3,-
DA:284,0
BRDA:284,0,0,-
BRDA:284,0,1,-
DA:286,0
BRDA:286,0,0,-
BRDA:286,0,1,-
BRDA:286,0,2,-
BRDA:286,0,3,-
DA:287,0
BRDA:287,0,0,-
BRDA:287,0,1,-
DA:289,0
DA:292,0
DA:295,0
DA:297,0
BRDA:297,0,0,-
BRDA:297,0,1,-
BRDA:297,0,2,-
BRDA:297,0,3,-
BRDA:297,0,4,-
BRDA:297,0,5,-
BRDA:297,0,6,-
BRDA:297,0,7,-
DA:299,0
DA:263,0
DA:265,0
BRDA:265,0,0,-
BRDA:265,0,1,-
DA:266,0
BRDA:266,0,0,-
BRDA:266,0,1,-
DA:267,0
BRDA:267,0,0,-
BRDA:267,0,1,-
BRDA:267,0,2,-
BRDA:267,0,3,-
BRDA:267,0,4,-
BRDA:267,0,5,-
BRDA:267,0,6,-
BRDA:267,0,7,-
DA:270,0
DA:271,0
DA:272,0
DA:274,0
DA:283,0
BRDA:283,0,0,-
BRDA:283,0,1,-
BRDA:283,0,2,-
BRDA:283,0,3,-
DA:284,0
BRDA:284,0,0,-
BRDA:284,0,1,-
DA:286,0
BRDA:286,0,0,-
BRDA:286,0,1,-
BRDA:286,0,2,-
BRDA:286,0,3,-
DA:287,0
BRDA:287,0,0,-
BRDA:287,0,1,-
DA:289,0
DA:292,0
DA:295,0
DA:297,0
BRDA:297,0,0,-
BRDA:297,0,1,-
BRDA:297,0,2,-
BRDA:297,0,3,-
BRDA:297,0,4,-
BRDA:297,0,5,-
BRDA:297,0,6,-
BRDA:297,0,7,-
DA:299,0
DA:263,0
DA:265,0
BRDA:265,0,0,-
BRDA:265,0,1,-
DA:266,0
BRDA:266,0,0,-
BRDA:266,0,1,-
DA:267,0
BRDA:267,0,0,-
BRDA:267,0,1,-
BRDA:267,0,2,-
BRDA:267,0,3,-
BRDA:267,0,4,-
BRDA:267,0,5,-
BRDA:267,0,6,-
BRDA:267,0,7,-
DA:270,0
DA:271,0
DA:272,0
DA:274,0
DA:283,0
BRDA:283,0,0,-
BRDA:283,0,1,-
BRDA:283,0,2,-
BRDA:283,0,3,-
DA:284,0
BRDA:284,0,0,-
BRDA:284,0,1,-
DA:286,0
BRDA:286,0,0,-
BRDA:286,0,1,-
BRDA:286,0,2,-
BRDA:286,0,3,-
DA:287,0
BRDA:287,0,0,-
BRDA:287,0,1,-
DA:289,0
DA:292,0
DA:295,0
DA:297,0
BRDA:297,0,0,-
BRDA:297,0,1,-
BRDA:297,0,2,-
BRDA:297,0,3,-
BRDA:297,0,4,-
BRDA:297,0,5,-
BRDA:297,0,6,-
BRDA:297,0,7,-
DA:299,0
DA:263,0
DA:265,0
BRDA:265,0,0,-
BRDA:265,0,1,-
DA:266,0
BRDA:266,0,0,-
BRDA:266,0,1,-
DA:267,0
BRDA:267,0,0,-
BRDA:267,0,1,-
BRDA:267,0,2,-
BRDA:267,0,3,-
BRDA:267,0,4,-
BRDA:267,0,5,-
BRDA:267,0,6,-
BRDA:267,0,7,-
DA:270,0
DA:271,0
DA:272,0
DA:274,0
DA:283,0
BRDA:283,0,0,-
BRDA:283,0,1,-
BRDA:283,0,2,-
BRDA:283,0,3,-
DA:284,0
BRDA:284,0,0,-
BRDA:284,0,1,-
DA:286,0
BRDA:286,0,0,-
BRDA:286,0,1,-
BRDA:286,0,2,-
BRDA:286,0,3,-
DA:287,0
BRDA:287,0,0,-
BRDA:287,0,1,-
DA:289,0
DA:292,0
DA:295,0
DA:297,0
BRDA:297,0,0,-
BRDA:297,0,1,-
BRDA:297,0,2,-
BRDA:297,0,3,-
BRDA:297,0,4,-
BRDA:297,0,5,-
BRDA:297,0,6,-
BRDA:297,0,7,-
DA:299,0
DA:263,0
DA:265,0
BRDA:265,0,0,-
BRDA:265,0,1,-
DA:266,0
BRDA:266,0,0,-
BRDA:266,0,1,-
DA:267,0
BRDA:267,0,0,-
BRDA:267,0,1,-
BRDA:267,0,2,-
BRDA:267,0,3,-
BRDA:267,0,4,-
BRDA:267,0,5,-
BRDA:267,0,6,-
BRDA:267,0,7,-
DA:270,0
DA:271,0
DA:272,0
DA:274,0
DA:283,0
BRDA:283,0,0,-
BRDA:283,0,1,-
BRDA:283,0,2,-
BRDA:283,0,3,-
DA:284,0
BRDA:284,0,0,-
BRDA:284,0,1,-
DA:286,0
BRDA:286,0,0,-
BRDA:286,0,1,-
BRDA:286,0,2,-
BRDA:286,0,3,-
DA:287,0
BRDA:287,0,0,-
BRDA:287,0,1,-
DA:289,0
DA:292,0
DA:295,0
DA:297,0
BRDA:297,0,0,-
BRDA:297,0,1,-
BRDA:297,0,2,-
BRDA:297,0,3,-
BRDA:297,0,4,-
BRDA:297,0,5,-
BRDA:297,0,6,-
BRDA:297,0,7,-
DA:299,0
DA:263,0
DA:265,0
BRDA:265,0,0,-
BRDA:265,0,1,-
DA:266,0
BRDA:266,0,0,-
BRDA:266,0,1,-
DA:267,0
BRDA:267,0,0,-
BRDA:267,0,1,-
BRDA:267,0,2,-
BRDA:267,0,3,-
BRDA:267,0,4,-
BRDA:267,0,5,-
BRDA:267,0,6,-
BRDA:267,0,7,-
DA:270,0
DA:271,0
DA:272,0
DA:274,0
DA:283,0
BRDA:283,0,0,-
BRDA:283,0,1,-
BRDA:283,0,2,-
BRDA:283,0,3,-
DA:284,0
BRDA:284,0,0,-
BRDA:284,0,1,-
DA:286,0
BRDA:286,0,0,-
BRDA:286,0,1,-
BRDA:286,0,2,-
BRDA:286,0,3,-
DA:287,0
BRDA:287,0,0,-
BRDA:287,0,1,-
DA:289,0
DA:292,0
DA:295,0
DA:297,0
BRDA:297,0,0,-
BRDA:297,0,1,-
BRDA:297,0,2,-
BRDA:297,0,3,-
BRDA:297,0,4,-
BRDA:297,0,5,-
BRDA:297,0,6,-
BRDA:297,0,7,-
DA:299,0
DA:263,0
DA:265,0
BRDA:265,0,0,-
BRDA:265,0,1,-
DA:266,0
BRDA:266,0,0,-
BRDA:266,0,1,-
DA:267,0
BRDA:267,0,0,-
BRDA:267,0,1,-
BRDA:267,0,2,-
BRDA:267,0,3,-
BRDA:267,0,4,-
BRDA:267,0,5,-
BRDA:267,0,6,-
BRDA:267,0,7,-
DA:270,0
DA:271,0
DA:272,0
DA:274,0
DA:283,0
BRDA:283,0,0,-
BRDA:283,0,1,-
BRDA:283,0,2,-
BRDA:283,0,3,-
DA:284,0
BRDA:284,0,0,-
BRDA:284,0,1,-
DA:286,0
BRDA:286,0,0,-
BRDA:286,0,1,-
BRDA:286,0,2,-
BRDA:286,0,3,-
DA:287,0
BRDA:287,0,0,-
BRDA:287,0,1,-
DA:289,0
DA:292,0
DA:295,0
DA:297,0
BRDA:297,0,0,-
BRDA:297,0,1,-
BRDA:297,0,2,-
BRDA:297,0,3,-
BRDA:297,0,4,-
BRDA:297,0,5,-
BRDA:297,0,6,-
BRDA:297,0,7,-
DA:299,0
DA:263,0
DA:265,0
BRDA:265,0,0,-
BRDA:265,0,1,-
DA:266,0
BRDA:266,0,0,-
BRDA:266,0,1,-
DA:267,0
BRDA:267,0,0,-
BRDA:267,0,1,-
BRDA:267,0,2,-
BRDA:267,0,3,-
BRDA:267,0,4,-
BRDA:267,0,5,-
BRDA:267,0,6,-
BRDA:267,0,7,-
DA:270,0
DA:271,0
DA:272,0
DA:274,0
DA:283,0
BRDA:283,0,0,-
BRDA:283,0,1,-
BRDA:283,0,2,-
BRDA:283,0,3,-
DA:284,0
BRDA:284,0,0,-
BRDA:284,0,1,-
DA:286,0
BRDA:286,0,0,-
BRDA:286,0,1,-
BRDA:286,0,2,-
BRDA:286,0,3,-
DA:287,0
BRDA:287,0,0,-
BRDA:287,0,1,-
DA:289,0
DA:292,0
DA:295,0
DA:297,0
BRDA:297,0,0,-
BRDA:297,0,1,-
BRDA:297,0,2,-
BRDA:297,0,3,-
BRDA:297,0,4,-
BRDA:297,0,5,-
BRDA:297,0,6,-
BRDA:297,0,7,-
DA:299,0
DA:307,0
DA:309,0
DA:310,0
DA:312,0
BRDA:312,0,0,-
BRDA:312,0,1,-
BRDA:312,0,2,-
BRDA:312,0,3,-
BRDA:312,0,4,-
BRDA:312,0,5,-
DA:313,0
DA:314,0
DA:315,0
DA:307,0
DA:309,0
DA:310,0
DA:312,0
BRDA:312,0,0,-
BRDA:312,0,1,-
BRDA:312,0,2,-
BRDA:312,0,3,-
BRDA:312,0,4,-
BRDA:312,0,5,-
DA:313,0
DA:314,0
DA:315,0
DA:307,0
DA:309,0
DA:310,0
DA:312,0
BRDA:312,0,0,-
BRDA:312,0,1,-
BRDA:312,0,2,-
BRDA:312,0,3,-
BRDA:312,0,4,-
BRDA:312,0,5,-
DA:313,0
DA:314,0
DA:315,0
DA:307,0
DA:309,0
DA:310,0
DA:312,0
BRDA:312,0,0,-
BRDA:312,0,1,-
BRDA:312,0,2,-
BRDA:312,0,3,-
BRDA:312,0,4,-
BRDA:312,0,5,-
DA:313,0
DA:314,0
DA:315,0
DA:307,0
DA:309,0
DA:310,0
DA:312,0
BRDA:312,0,0,-
BRDA:312,0,1,-
BRDA:312,0,2,-
BRDA:312,0,3,-
BRDA:312,0,4,-
BRDA:312,0,5,-
DA:313,0
DA:314,0
DA:315,0
DA:307,0
DA:309,0
DA:310,0
DA:312,0
BRDA:312,0,0,-
BRDA:312,0,1,-
BRDA:312,0,2,-
BRDA:312,0,3,-
BRDA:312,0,4,-
BRDA:312,0,5,-
DA:313,0
DA:314,0
DA:315,0
DA:307,0
DA:309,0
DA:310,0
DA:312,0
BRDA:312,0,0,-
BRDA:312,0,1,-
BRDA:312,0,2,-
BRDA:312,0,3,-
BRDA:312,0,4,-
BRDA:312,0,5,-
DA:313,0
DA:314,0
DA:315,0
DA:307,0
DA:309,0
DA:310,0
DA:312,0
BRDA:312,0,0,-
BRDA:312,0,1,-
BRDA:312,0,2,-
BRDA:312,0,3,-
BRDA:312,0,4,-
BRDA:312,0,5,-
DA:313,0
DA:314,0
DA:315,0
DA:307,0
DA:309,0
DA:310,0
DA:312,0
BRDA:312,0,0,-
BRDA:312,0,1,-
BRDA:312,0,2,-
BRDA:312,0,3,-
BRDA:312,0,4,-
BRDA:312,0,5,-
DA:313,0
DA:314,0
DA:315,0
DA:411,0
BRDA:411,0,0,-
BRDA:411,0,1,-
DA:411,0
BRDA:411,0,0,-
BRDA:411,0,1,-
DA:411,2
BRDA:411,0,0,0
BRDA:411,0,1,2
DA:411,0
BRDA:411,0,0,-
BRDA:411,0,1,-
DA:411,0
BRDA:411,0,0,-
BRDA:411,0,1,-
DA:411,0
BRDA:411,0,0,-
BRDA:411,0,1,-
DA:411,0
BRDA:411,0,0,-
BRDA:411,0,1,-
DA:411,0
BRDA:411,0,0,-
BRDA:411,0,1,-
DA:411,0
BRDA:411,0,0,-
BRDA:411,0,1,-
DA:411,0
BRDA:411,0,0,-
BRDA:411,0,1,-
DA:412,0
BRDA:412,0,0,-
BRDA:412,0,1,-
DA:412,0
BRDA:412,0,0,-
BRDA:412,0,1,-
DA:412,0
BRDA:412,0,0,-
BRDA:412,0,1,-
DA:412,0
BRDA:412,0,0,-
BRDA:412,0,1,-
DA:412,0
BRDA:412,0,0,-
BRDA:412,0,1,-
DA:413,2592
BRDA:413,0,0,2592
BRDA:413,0,1,0
BRDA:413,0,2,0
BRDA:413,0,3,2592
DA:413,0
BRDA:413,0,0,-
BRDA:413,0,1,-
BRDA:413,0,2,-
BRDA:413,0,3,-
DA:413,0
BRDA:413,0,0,-
BRDA:413,0,1,-
BRDA:413,0,2,-
BRDA:413,0,3,-
DA:413,0
BRDA:413,0,0,-
BRDA:413,0,1,-
BRDA:413,0,2,-
BRDA:413,0,3,-
DA:413,0
BRDA:413,0,0,-
BRDA:413,0,1,-
BRDA:413,0,2,-
BRDA:413,0,3,-
DA:413,3
BRDA:413,0,0,0
BRDA:413,0,1,3
BRDA:413,0,2,0
BRDA:413,0,3,0
DA:413,0
BRDA:413,0,0,-
BRDA:413,0,1,-
BRDA:413,0,2,-
BRDA:413,0,3,-
DA:413,0
BRDA:413,0,0,-
BRDA:413,0,1,-
BRDA:413,0,2,-
BRDA:413,0,3,-
DA:413,0
BRDA:413,0,0,-
BRDA:413,0,1,-
BRDA:413,0,2,-
BRDA:413,0,3,-
DA:413,0
BRDA:413,0,0,-
BRDA:413,0,1,-
BRDA:413,0,2,-
BRDA:413,0,3,-
DA:413,0
BRDA:413,0,0,-
BRDA:413,0,1,-
BRDA:413,0,2,-
BRDA:413,0,3,-
DA:413,0
BRDA:413,0,0,-
BRDA:413,0,1,-
BRDA:413,0,2,-
BRDA:413,0,3,-
DA:414,0
DA:414,0
DA:414,0
DA:414,0
DA:414,0
DA:414,0
DA:414,0
DA:414,2592
DA:414,0
DA:414,0
DA:415,0
BRDA:415,0,0,-
BRDA:415,0,1,-
BRDA:415,0,2,-
BRDA:415,0,3,-
DA:415,0
BRDA:415,0,0,-
BRDA:415,0,1,-
BRDA:415,0,2,-
BRDA:415,0,3,-
DA:415,0
BRDA:415,0,0,-
BRDA:415,0,1,-
BRDA:415,0,2,-
BRDA:415,0,3,-
DA:415,0
BRDA:415,0,0,-
BRDA:415,0,1,-
BRDA:415,0,2,-
BRDA:415,0,3,-
DA:415,0
BRDA:415,0,0,-
BRDA:415,0,1,-
BRDA:415,0,2,-
BRDA:415,0,3,-
DA:415,0
BRDA:415,0,0,-
BRDA:415,0,1,-
BRDA:415,0,2,-
BRDA:415,0,3,-
DA:415,0
BRDA:415,0,0,-
BRDA:415,0,1,-
BRDA:415,0,2,-
BRDA:415,0,3,-
DA:415,2592
BRDA:415,0,0,2592
BRDA:415,0,1,0
BRDA:415,0,2,0
BRDA:415,0,3,2592
DA:415,0
BRDA:415,0,0,-
BRDA:415,0,1,-
BRDA:415,0,2,-
BRDA:415,0,3,-
DA:415,0
BRDA:415,0,0,-
BRDA:415,0,1,-
BRDA:415,0,2,-
BRDA:415,0,3,-
DA:417,10644
BRDA:417,0,0,10644
BRDA:417,0,1,0
BRDA:417,0,2,0
BRDA:417,0,3,10644
DA:417,0
BRDA:417,0,0,-
BRDA:417,0,1,-
BRDA:417,0,2,-
BRDA:417,0,3,-
DA:417,7
BRDA:417,0,0,4
BRDA:417,0,1,3
BRDA:417,0,2,0
BRDA:417,0,3,4
DA:417,0
BRDA:417,0,0,-
BRDA:417,0,1,-
BRDA:417,0,2,-
BRDA:417,0,3,-
DA:417,0
BRDA:417,0,0,-
BRDA:417,0,1,-
BRDA:417,0,2,-
BRDA:417,0,3,-
DA:417,0
BRDA:417,0,0,-
BRDA:417,0,1,-
BRDA:417,0,2,-
BRDA:417,0,3,-
DA:417,0
BRDA:417,0,0,-
BRDA:417,0,1,-
BRDA:417,0,2,-
BRDA:417,0,3,-
DA:417,0
BRDA:417,0,0,-
BRDA:417,0,1,-
BRDA:417,0,2,-
BRDA:417,0,3,-
DA:417,0
BRDA:417,0,0,-
BRDA:417,0,1,-
BRDA:417,0,2,-
BRDA:417,0,3,-
DA:417,0
BRDA:417,0,0,-
BRDA:417,0,1,-
BRDA:417,0,2,-
BRDA:417,0,3,-
DA:417,0
BRDA:417,0,0,-
BRDA:417,0,1,-
BRDA:417,0,2,-
BRDA:417,0,3,-
DA:418,0
BRDA:418,0,0,-
BRDA:418,0,1,-
DA:418,0
BRDA:418,0,0,-
BRDA:418,0,1,-
DA:418,1
BRDA:418,0,0,0
BRDA:418,0,1,1
DA:418,0
BRDA:418,0,0,-
BRDA:418,0,1,-
DA:418,0
BRDA:418,0,0,-
BRDA:418,0,1,-
DA:418,0
BRDA:418,0,0,-
BRDA:418,0,1,-
DA:418,0
BRDA:418,0,0,-
BRDA:418,0,1,-
DA:418,0
BRDA:418,0,0,-
BRDA:418,0,1,-
DA:418,0
BRDA:418,0,0,-
BRDA:418,0,1,-
DA:418,0
BRDA:418,0,0,-
BRDA:418,0,1,-
DA:419,0
BRDA:419,0,0,-
BRDA:419,0,1,-
DA:419,0
BRDA:419,0,0,-
BRDA:419,0,1,-
DA:419,1
BRDA:419,0,0,0
BRDA:419,0,1,1
DA:419,0
BRDA:419,0,0,-
BRDA:419,0,1,-
DA:419,0
BRDA:419,0,0,-
BRDA:419,0,1,-
DA:419,0
BRDA:419,0,0,-
BRDA:419,0,1,-
DA:419,0
BRDA:419,0,0,-
BRDA:419,0,1,-
DA:419,0
BRDA:419,0,0,-
BRDA:419,0,1,-
DA:419,0
BRDA:419,0,0,-
BRDA:419,0,1,-
DA:419,0
BRDA:419,0,0,-
BRDA:419,0,1,-
DA:420,0
BRDA:420,0,0,-
BRDA:420,0,1,-
DA:423,0
DA:426,0
DA:428,0
BRDA:428,0,0,-
BRDA:428,0,1,-
DA:429,0
DA:430,0
DA:426,2592
DA:428,2592
BRDA:428,0,0,0
BRDA:428,0,1,2592
DA:429,0
DA:430,2592
DA:426,0
DA:428,0
BRDA:428,0,0,-
BRDA:428,0,1,-
DA:429,0
DA:430,0
DA:426,3
DA:428,3
BRDA:428,0,0,1
BRDA:428,0,1,2
DA:429,1
DA:430,2
DA:426,0
DA:428,0
BRDA:428,0,0,-
BRDA:428,0,1,-
DA:429,0
DA:430,0
DA:426,0
DA:428,0
BRDA:428,0,0,-
BRDA:428,0,1,-
DA:429,0
DA:430,0
DA:426,0
DA:428,0
BRDA:428,0,0,-
BRDA:428,0,1,-
DA:429,0
DA:430,0
DA:426,0
DA:428,0
BRDA:428,0,0,-
BRDA:428,0,1,-
DA:429,0
DA:430,0
DA:426,0
DA:428,0
BRDA:428,0,0,-
BRDA:428,0,1,-
DA:429,0
DA:430,0
DA:426,0
DA:428,0
BRDA:428,0,0,-
BRDA:428,0,1,-
DA:429,0
DA:430,0
DA:433,0
DA:435,0
BRDA:435,0,0,-
BRDA:435,0,1,-
DA:436,0
DA:437,0
DA:433,0
DA:435,0
BRDA:435,0,0,-
BRDA:435,0,1,-
DA:436,0
DA:437,0
DA:433,3
DA:435,3
BRDA:435,0,0,1
BRDA:435,0,1,2
DA:436,1
DA:437,2
DA:433,0
DA:435,0
BRDA:435,0,0,-
BRDA:435,0,1,-
DA:436,0
DA:437,0
DA:433,0
DA:435,0
BRDA:435,0,0,-
BRDA:435,0,1,-
DA:436,0
DA:437,0
DA:433,0
DA:435,0
BRDA:435,0,0,-
BRDA:435,0,1,-
DA:436,0
DA:437,0
DA:433,0
DA:435,0
BRDA:435,0,0,-
BRDA:435,0,1,-
DA:436,0
DA:437,0
DA:433,2592
DA:435,2592
BRDA:435,0,0,0
BRDA:435,0,1,2592
DA:436,0
DA:437,2592
DA:433,0
DA:435,0
BRDA:435,0,0,-
BRDA:435,0,1,-
DA:436,0
DA:437,0
DA:433,0
DA:435,0
BRDA:435,0,0,-
BRDA:435,0,1,-
DA:436,0
DA:437,0
DA:441,0
DA:447,0
DA:450,0
BRDA:450,0,0,-
BRDA:450,0,1,-
DA:451,0
DA:452,0
DA:453,0
BRDA:453,0,0,-
BRDA:453,0,1,-
BRDA:453,0,2,-
BRDA:453,0,3,-
DA:454,0
BRDA:454,0,0,-
BRDA:454,0,1,-
BRDA:454,0,2,-
BRDA:454,0,3,-
DA:455,0
BRDA:455,0,0,-
BRDA:455,0,1,-
DA:456,0
DA:460,0
DA:461,0
BRDA:461,0,0,-
BRDA:461,0,1,-
DA:462,0
DA:463,0
DA:464,0
DA:441,0
DA:447,0
DA:450,0
BRDA:450,0,0,-
BRDA:450,0,1,-
DA:451,0
DA:452,0
DA:453,0
BRDA:453,0,0,-
BRDA:453,0,1,-
BRDA:453,0,2,-
BRDA:453,0,3,-
DA:454,0
BRDA:454,0,0,-
BRDA:454,0,1,-
BRDA:454,0,2,-
BRDA:454,0,3,-
DA:455,0
BRDA:455,0,0,-
BRDA:455,0,1,-
DA:456,0
DA:460,0
DA:461,0
BRDA:461,0,0,-
BRDA:461,0,1,-
DA:462,0
DA:463,0
DA:464,0
DA:441,1
DA:447,1
DA:450,1
BRDA:450,0,0,1
BRDA:450,0,1,0
DA:451,1
DA:452,1
DA:453,1
BRDA:453,0,0,1
BRDA:453,0,1,0
BRDA:453,0,2,1
BRDA:453,0,3,0
DA:454,1
BRDA:454,0,0,1
BRDA:454,0,1,0
BRDA:454,0,2,1
BRDA:454,0,3,0
DA:455,1
BRDA:455,0,0,0
BRDA:455,0,1,1
DA:456,0
DA:460,1
DA:461,1
BRDA:461,0,0,0
BRDA:461,0,1,1
DA:462,1
DA:463,1
DA:464,1
DA:441,0
DA:447,0
DA:450,0
BRDA:450,0,0,-
BRDA:450,0,1,-
DA:451,0
DA:452,0
DA:453,0
BRDA:453,0,0,-
BRDA:453,0,1,-
BRDA:453,0,2,-
BRDA:453,0,3,-
DA:454,0
BRDA:454,0,0,-
BRDA:454,0,1,-
BRDA:454,0,2,-
BRDA:454,0,3,-
DA:455,0
BRDA:455,0,0,-
BRDA:455,0,1,-
DA:456,0
DA:460,0
DA:461,0
BRDA:461,0,0,-
BRDA:461,0,1,-
DA:462,0
DA:463,0
DA:464,0
DA:441,0
DA:447,0
DA:450,0
BRDA:450,0,0,-
BRDA:450,0,1,-
DA:451,0
DA:452,0
DA:453,0
BRDA:453,0,0,-
BRDA:453,0,1,-
BRDA:453,0,2,-
BRDA:453,0,3,-
DA:454,0
BRDA:454,0,0,-
BRDA:454,0,1,-
BRDA:454,0,2,-
BRDA:454,0,3,-
DA:455,0
BRDA:455,0,0,-
BRDA:455,0,1,-
DA:456,0
DA:460,0
DA:461,0
BRDA:461,0,0,-
BRDA:461,0,1,-
DA:462,0
DA:463,0
DA:464,0
DA:441,0
DA:447,0
DA:450,0
BRDA:450,0,0,-
BRDA:450,0,1,-
DA:451,0
DA:452,0
DA:453,0
BRDA:453,0,0,-
BRDA:453,0,1,-
BRDA:453,0,2,-
BRDA:453,0,3,-
DA:454,0
BRDA:454,0,0,-
BRDA:454,0,1,-
BRDA:454,0,2,-
BRDA:454,0,3,-
DA:455,0
BRDA:455,0,0,-
BRDA:455,0,1,-
DA:456,0
DA:460,0
DA:461,0
BRDA:461,0,0,-
BRDA:461,0,1,-
DA:462,0
DA:463,0
DA:464,0
DA:441,0
DA:447,0
DA:450,0
BRDA:450,0,0,-
BRDA:450,0,1,-
DA:451,0
DA:452,0
DA:453,0
BRDA:453,0,0,-
BRDA:453,0,1,-
BRDA:453,0,2,-
BRDA:453,0,3,-
DA:454,0
BRDA:454,0,0,-
BRDA:454,0,1,-
BRDA:454,0,2,-
BRDA:454,0,3,-
DA:455,0
BRDA:455,0,0,-
BRDA:455,0,1,-
DA:456,0
DA:460,0
DA:461,0
BRDA:461,0,0,-
BRDA:461,0,1,-
DA:462,0
DA:463,0
DA:464,0
DA:441,0
DA:447,0
DA:450,0
BRDA:450,0,0,-
BRDA:450,0,1,-
DA:451,0
DA:452,0
DA:453,0
BRDA:453,0,0,-
BRDA:453,0,1,-
BRDA:453,0,2,-
BRDA:453,0,3,-
DA:454,0
BRDA:454,0,0,-
BRDA:454,0,1,-
BRDA:454,0,2,-
BRDA:454,0,3,-
DA:455,0
BRDA:455,0,0,-
BRDA:455,0,1,-
DA:456,0
DA:460,0
DA:461,0
BRDA:461,0,0,-
BRDA:461,0,1,-
DA:462,0
DA:463,0
DA:464,0
DA:441,0
DA:447,0
DA:450,0
BRDA:450,0,0,-
BRDA:450,0,1,-
DA:451,0
DA:452,0
DA:453,0
BRDA:453,0,0,-
BRDA:453,0,1,-
BRDA:453,0,2,-
BRDA:453,0,3,-
DA:454,0
BRDA:454,0,0,-
BRDA:454,0,1,-
BRDA:454,0,2,-
BRDA:454,0,3,-
DA:455,0
BRDA:455,0,0,-
BRDA:455,0,1,-
DA:456,0
DA:460,0
DA:461,0
BRDA:461,0,0,-
BRDA:461,0,1,-
DA:462,0
DA:463,0
DA:464,0
DA:441,0
DA:447,0
DA:450,0
BRDA:450,0,0,-
BRDA:450,0,1,-
DA:451,0
DA:452,0
DA:453,0
BRDA:453,0,0,-
BRDA:453,0,1,-
BRDA:453,0,2,-
BRDA:453,0,3,-
DA:454,0
BRDA:454,0,0,-
BRDA:454,0,1,-
BRDA:454,0,2,-
BRDA:454,0,3,-
DA:455,0
BRDA:455,0,0,-
BRDA:455,0,1,-
DA:456,0
DA:460,0
DA:461,0
BRDA:461,0,0,-
BRDA:461,0,1,-
DA:462,0
DA:463,0
DA:464,0
end_of_record
SF:/home/pavle/Qt/6.6.1/gcc_64/include/QtCore/qswap.h
FN:44,_Z11qt_ptr_swapI15QTypedArrayDataI5QCharEEvRPT_S5_
FNDA:0,_Z11qt_ptr_swapI15QTypedArrayDataI5QCharEEvRPT_S5_
FN:44,_Z11qt_ptr_swapI15QTypedArrayDataIDsEEvRPT_S4_
FNDA:0,_Z11qt_ptr_swapI15QTypedArrayDataIDsEEvRPT_S4_
FN:44,_Z11qt_ptr_swapIDsEvRPT_S2_
FNDA:0,_Z11qt_ptr_swapIDsEvRPT_S2_
FN:44,_Z11qt_ptr_swapI8QMapDataISt3mapIiiSt4lessIiESaISt4pairIKiiEEEEEvRPT_SC_
FNDA:0,_Z11qt_ptr_swapI8QMapDataISt3mapIiiSt4lessIiESaISt4pairIKiiEEEEEvRPT_SC_
FN:44,_Z11qt_ptr_swapI15QTypedArrayDataI7QStringEEvRPT_S5_
FNDA:0,_Z11qt_ptr_swapI15QTypedArrayDataI7QStringEEvRPT_S5_
FN:44,_Z11qt_ptr_swapI7QStringEvRPT_S3_
FNDA:0,_Z11qt_ptr_swapI7QStringEvRPT_S3_
FN:44,_Z11qt_ptr_swapI15QTypedArrayDataI4QMapI7QStringS2_EEEvRPT_S7_
FNDA:0,_Z11qt_ptr_swapI15QTypedArrayDataI4QMapI7QStringS2_EEEvRPT_S7_
FN:44,_Z11qt_ptr_swapI4QMapI7QStringS1_EEvRPT_S5_
FNDA:0,_Z11qt_ptr_swapI4QMapI7QStringS1_EEvRPT_S5_
FN:44,_Z11qt_ptr_swapI15QTypedArrayDataI4QMapI5QChar5QListI7QStringEEEEvRPT_SA_
FNDA:0,_Z11qt_ptr_swapI15QTypedArrayDataI4QMapI5QChar5QListI7QStringEEEEvRPT_SA_
FN:44,_Z11qt_ptr_swapI4QMapI5QChar5QListI7QStringEEEvRPT_S8_
FNDA:0,_Z11qt_ptr_swapI4QMapI5QChar5QListI7QStringEEEvRPT_S8_
FN:44,_Z11qt_ptr_swapI15QTypedArrayDataI4QMapI5QChar7QStringEEEvRPT_S8_
FNDA:0,_Z11qt_ptr_swapI15QTypedArrayDataI4QMapI5QChar7QStringEEEvRPT_S8_
FN:44,_Z11qt_ptr_swapI4QMapI5QChar7QStringEEvRPT_S6_
FNDA:0,_Z11qt_ptr_swapI4QMapI5QChar7QStringEEvRPT_S6_
FN:44,_Z11qt_ptr_swapI15QTypedArrayDataIP9GameModelEEvRPT_S6_
FNDA:0,_Z11qt_ptr_swapI15QTypedArrayDataIP9GameModelEEvRPT_S6_
FN:44,_Z11qt_ptr_swapIP9GameModelEvRPT_S4_
FNDA:0,_Z11qt_ptr_swapIP9GameModelEvRPT_S4_
FN:44,_Z11qt_ptr_swapIbEvRPT_S2_
FNDA:0,_Z11qt_ptr_swapIbEvRPT_S2_
FN:44,_Z11qt_ptr_swapI5QCharEvRPT_S3_
FNDA:0,_Z11qt_ptr_swapI5QCharEvRPT_S3_
FN:44,_Z11qt_ptr_swapI15QTypedArrayDataI5QListIiEEEvRPT_S6_
FNDA:2,_Z11qt_ptr_swapI15QTypedArrayDataI5QListIiEEEvRPT_S6_
FN:44,_Z11qt_ptr_swapI5QListIiEEvRPT_S4_
FNDA:2,_Z11qt_ptr_swapI5QListIiEEvRPT_S4_
FN:44,_Z11qt_ptr_swapI15QTypedArrayDataI4QMapI5QChariEEEvRPT_S7_
FNDA:0,_Z11qt_ptr_swapI15QTypedArrayDataI4QMapI5QChariEEEvRPT_S7_
FN:44,_Z11qt_ptr_swapI4QMapI5QChariEEvRPT_S5_
FNDA:0,_Z11qt_ptr_swapI4QMapI5QChariEEvRPT_S5_
FN:44,_Z11qt_ptr_swapI15QTypedArrayDataIiEEvRPT_S4_
FNDA:0,_Z11qt_ptr_swapI15QTypedArrayDataIiEEvRPT_S4_
FN:44,_Z11qt_ptr_swapIiEvRPT_S2_
FNDA:0,_Z11qt_ptr_swapIiEvRPT_S2_
FN:44,_Z11qt_ptr_swapI8QMapDataISt3mapI7QStringS2_St4lessIS2_ESaISt4pairIKS2_S2_EEEEEvRPT_SD_
FNDA:0,_Z11qt_ptr_swapI8QMapDataISt3mapI7QStringS2_St4lessIS2_ESaISt4pairIKS2_S2_EEEEEvRPT_SD_
FN:44,_Z11qt_ptr_swapI8QMapDataISt3mapI5QChar5QListI7QStringESt4lessIS2_ESaISt4pairIKS2_S5_EEEEEvRPT_SG_
FNDA:0,_Z11qt_ptr_swapI8QMapDataISt3mapI5QChar5QListI7QStringESt4lessIS2_ESaISt4pairIKS2_S5_EEEEEvRPT_SG_
FN:44,_Z11qt_ptr_swapI8QMapDataISt3mapI5QChar7QStringSt4lessIS2_ESaISt4pairIKS2_S3_EEEEEvRPT_SE_
FNDA:0,_Z11qt_ptr_swapI8QMapDataISt3mapI5QChar7QStringSt4lessIS2_ESaISt4pairIKS2_S3_EEEEEvRPT_SE_
FN:44,_Z11qt_ptr_swapI8QMapDataISt3mapI5QChariSt4lessIS2_ESaISt4pairIKS2_iEEEEEvRPT_SD_
FNDA:0,_Z11qt_ptr_swapI8QMapDataISt3mapI5QChariSt4lessIS2_ESaISt4pairIKS2_iEEEEEvRPT_SD_
FN:44,_Z11qt_ptr_swapI15QTypedArrayDataIbEEvRPT_S4_
FNDA:0,_Z11qt_ptr_swapI15QTypedArrayDataIbEEvRPT_S4_
DA:44,0
DA:46,0
DA:47,0
DA:48,0
DA:49,0
DA:44,0
DA:46,0
DA:47,0
DA:48,0
DA:49,0
DA:44,0
DA:46,0
DA:47,0
DA:48,0
DA:49,0
DA:44,0
DA:46,0
DA:47,0
DA:48,0
DA:49,0
DA:44,0
DA:46,0
DA:47,0
DA:48,0
DA:49,0
DA:44,0
DA:46,0
DA:47,0
DA:48,0
DA:49,0
DA:44,0
DA:46,0
DA:47,0
DA:48,0
DA:49,0
DA:44,0
DA:46,0
DA:47,0
DA:48,0
DA:49,0
DA:44,0
DA:46,0
DA:47,0
DA:48,0
DA:49,0
DA:44,0
DA:46,0
DA:47,0
DA:48,0
DA:49,0
DA:44,0
DA:46,0
DA:47,0
DA:48,0
DA:49,0
DA:44,0
DA:46,0
DA:47,0
DA:48,0
DA:49,0
DA:44,0
DA:46,0
DA:47,0
DA:48,0
DA:49,0
DA:44,0
DA:46,0
DA:47,0
DA:48,0
DA:49,0
DA:44,0
DA:46,0
DA:47,0
DA:48,0
DA:49,0
DA:44,0
DA:46,0
DA:47,0
DA:48,0
DA:49,0
DA:44,2
DA:46,2
DA:47,2
DA:48,2
DA:49,2
DA:44,2
DA:46,2
DA:47,2
DA:48,2
DA:49,2
DA:44,0
DA:46,0
DA:47,0
DA:48,0
DA:49,0
DA:44,0
DA:46,0
DA:47,0
DA:48,0
DA:49,0
DA:44,0
DA:46,0
DA:47,0
DA:48,0
DA:49,0
DA:44,0
DA:46,0
DA:47,0
DA:48,0
DA:49,0
DA:44,0
DA:46,0
DA:47,0
DA:48,0
DA:49,0
DA:44,0
DA:46,0
DA:47,0
DA:48,0
DA:49,0
DA:44,0
DA:46,0
DA:47,0
DA:48,0
DA:49,0
DA:44,0
DA:46,0
DA:47,0
DA:48,0
DA:49,0
DA:44,0
DA:46,0
DA:47,0
DA:48,0
DA:49,0
end_of_record
SF:/usr/include/c++/11/bits/stl_construct.h
FN:146,_ZSt8_DestroyI4QMapI5QChar7QStringEEvPT_
FNDA:0,_ZSt8_DestroyI4QMapI5QChar7QStringEEvPT_
FN:146,_ZSt8_DestroyI4QMapI5QChariEEvPT_
FNDA:0,_ZSt8_DestroyI4QMapI5QChariEEvPT_
FN:146,_ZSt8_DestroyI5QListIiEEvPT_
FNDA:0,_ZSt8_DestroyI5QListIiEEvPT_
FN:146,_ZSt8_DestroyI4QMapI7QStringS1_EEvPT_
FNDA:0,_ZSt8_DestroyI4QMapI7QStringS1_EEvPT_
FN:146,_ZSt8_DestroyI7QStringEvPT_
FNDA:0,_ZSt8_DestroyI7QStringEvPT_
FN:146,_ZSt8_DestroyI4QMapI5QChar5QListI7QStringEEEvPT_
FNDA:0,_ZSt8_DestroyI4QMapI5QChar5QListI7QStringEEEvPT_
FN:160,_ZNSt12_Destroy_auxILb0EE9__destroyIP4QMapI5QChar5QListI7QStringEEEEvT_S9_
FNDA:0,_ZNSt12_Destroy_auxILb0EE9__destroyIP4QMapI5QChar5QListI7QStringEEEEvT_S9_
FN:160,_ZNSt12_Destroy_auxILb0EE9__destroyIP4QMapI5QChar7QStringEEEvT_S7_
FNDA:0,_ZNSt12_Destroy_auxILb0EE9__destroyIP4QMapI5QChar7QStringEEEvT_S7_
FN:160,_ZNSt12_Destroy_auxILb0EE9__destroyIP4QMapI5QChariEEEvT_S6_
FNDA:0,_ZNSt12_Destroy_auxILb0EE9__destroyIP4QMapI5QChariEEEvT_S6_
FN:160,_ZNSt12_Destroy_auxILb0EE9__destroyIP5QListIiEEEvT_S5_
FNDA:0,_ZNSt12_Destroy_auxILb0EE9__destroyIP5QListIiEEEvT_S5_
FN:160,_ZNSt12_Destroy_auxILb0EE9__destroyIP4QMapI7QStringS3_EEEvT_S6_
FNDA:0,_ZNSt12_Destroy_auxILb0EE9__destroyIP4QMapI7QStringS3_EEEvT_S6_
FN:160,_ZNSt12_Destroy_auxILb0EE9__destroyIP7QStringEEvT_S4_
FNDA:0,_ZNSt12_Destroy_auxILb0EE9__destroyIP7QStringEEvT_S4_
FN:182,_ZSt8_DestroyIP4QMapI5QChar5QListI7QStringEEEvT_S7_
FNDA:0,_ZSt8_DestroyIP4QMapI5QChar5QListI7QStringEEEvT_S7_
FN:182,_ZSt8_DestroyIP7QStringEvT_S2_
FNDA:0,_ZSt8_DestroyIP7QStringEvT_S2_
FN:182,_ZSt8_DestroyIP4QMapI7QStringS1_EEvT_S4_
FNDA:0,_ZSt8_DestroyIP4QMapI7QStringS1_EEvT_S4_
FN:182,_ZSt8_DestroyIP5QListIiEEvT_S3_
FNDA:0,_ZSt8_DestroyIP5QListIiEEvT_S3_
FN:182,_ZSt8_DestroyIP4QMapI5QChariEEvT_S4_
FNDA:0,_ZSt8_DestroyIP4QMapI5QChariEEvT_S4_
FN:182,_ZSt8_DestroyIP4QMapI5QChar7QStringEEvT_S5_
FNDA:0,_ZSt8_DestroyIP4QMapI5QChar7QStringEEvT_S5_
FN:251,_ZSt7destroyIP4QMapI5QChar5QListI7QStringEEEvT_S7_
FNDA:0,_ZSt7destroyIP4QMapI5QChar5QListI7QStringEEEvT_S7_
FN:251,_ZSt7destroyIP4QMapI5QChar7QStringEEvT_S5_
FNDA:0,_ZSt7destroyIP4QMapI5QChar7QStringEEvT_S5_
FN:251,_ZSt7destroyIP4QMapI5QChariEEvT_S4_
FNDA:0,_ZSt7destroyIP4QMapI5QChariEEvT_S4_
FN:251,_ZSt7destroyIP5QListIiEEvT_S3_
FNDA:0,_ZSt7destroyIP5QListIiEEvT_S3_
FN:251,_ZSt7destroyIP4QMapI7QStringS1_EEvT_S4_
FNDA:0,_ZSt7destroyIP4QMapI7QStringS1_EEvT_S4_
FN:251,_ZSt7destroyIP7QStringEvT_S2_
FNDA:0,_ZSt7destroyIP7QStringEvT_S2_
DA:146,0
DA:151,0
DA:153,0
DA:146,0
DA:151,0
DA:153,0
DA:146,0
DA:151,0
DA:153,0
DA:146,0
DA:151,0
DA:153,0
DA:146,0
DA:151,0
DA:153,0
DA:146,0
DA:151,0
DA:153,0
DA:160,0
DA:162,0
BRDA:162,0,0,-
BRDA:162,0,1,-
DA:163,0
DA:164,0
DA:160,0
DA:162,0
BRDA:162,0,0,-
BRDA:162,0,1,-
DA:163,0
DA:164,0
DA:160,0
DA:162,0
BRDA:162,0,0,-
BRDA:162,0,1,-
DA:163,0
DA:164,0
DA:160,0
DA:162,0
BRDA:162,0,0,-
BRDA:162,0,1,-
DA:163,0
DA:164,0
DA:160,0
DA:162,0
BRDA:162,0,0,-
BRDA:162,0,1,-
DA:163,0
DA:164,0
DA:160,0
DA:162,0
BRDA:162,0,0,-
BRDA:162,0,1,-
DA:163,0
DA:164,0
DA:182,0
DA:196,0
DA:197,0
DA:182,0
DA:196,0
DA:197,0
DA:182,0
DA:196,0
DA:197,0
DA:182,0
DA:196,0
DA:197,0
DA:182,0
DA:196,0
DA:197,0
DA:182,0
DA:196,0
DA:197,0
DA:251,0
DA:253,0
DA:254,0
DA:251,0
DA:253,0
DA:254,0
DA:251,0
DA:253,0
DA:254,0
DA:251,0
DA:253,0
DA:254,0
DA:251,0
DA:253,0
DA:254,0
DA:251,0
DA:253,0
DA:254,0
end_of_record
SF:/usr/include/c++/11/bits/cpp_type_traits.h
FN:560,_ZSt12__miter_baseIN5QListIP9GameModelE8iteratorEET_S5_
FNDA:0,_ZSt12__miter_baseIN5QListIP9GameModelE8iteratorEET_S5_
DA:560,0
DA:561,0
end_of_record
SF:/usr/include/c++/11/bits/basic_string.h
FN:533,_ZNSt7__cxx1112basic_stringIcSt11char_traitsIcESaIcEEC2IS3_EEPKcRKS3_
FNDA:0,_ZNSt7__cxx1112basic_stringIcSt11char_traitsIcESaIcEEC2IS3_EEPKcRKS3_
DA:533,0
DA:534,0
DA:536,0
BRDA:536,0,0,-
BRDA:536,0,1,-
BRDA:536,0,2,-
BRDA:536,0,3,-
DA:539,0
BRDA:539,0,0,-
BRDA:539,0,1,-
DA:540,0
end_of_record
SF:/usr/include/c++/11/bits/char_traits.h
FN:106,_ZN9__gnu_cxx11char_traitsIcE2eqERKcS3_
FNDA:0,_ZN9__gnu_cxx11char_traitsIcE2eqERKcS3_
FN:167,_ZN9__gnu_cxx11char_traitsIcE6lengthEPKc
FNDA:0,_ZN9__gnu_cxx11char_traitsIcE6lengthEPKc
FN:178,_ZN9__gnu_cxx11char_traitsIcE4findEPKcmRS2_
FNDA:0,_ZN9__gnu_cxx11char_traitsIcE4findEPKcmRS2_
FN:393,_ZNSt11char_traitsIcE6lengthEPKc
FNDA:0,_ZNSt11char_traitsIcE6lengthEPKc
FN:403,_ZNSt11char_traitsIcE4findEPKcmRS1_
FNDA:0,_ZNSt11char_traitsIcE4findEPKcmRS1_
DA:106,0
DA:107,0
DA:167,0
DA:170,0
DA:171,0
BRDA:171,0,0,-
BRDA:171,0,1,-
DA:172,0
DA:173,0
DA:178,0
DA:181,0
BRDA:181,0,0,-
BRDA:181,0,1,-
DA:182,0
BRDA:182,0,0,-
BRDA:182,0,1,-
DA:183,0
DA:184,0
DA:290,0
DA:393,0
DA:396,0
BRDA:396,0,0,-
BRDA:396,0,1,-
DA:397,0
DA:399,0
DA:403,0
DA:405,0
BRDA:405,0,0,-
BRDA:405,0,1,-
DA:406,0
DA:408,0
DA:410,0
BRDA:410,0,0,-
BRDA:410,0,1,-
DA:411,0
DA:413,0
end_of_record
SF:/usr/include/c++/11/bits/stl_pair.h
FN:314,_ZNSt4pairIK5QChar5QListI7QStringEEC2ERKS5_
FNDA:0,_ZNSt4pairIK5QChar5QListI7QStringEEC2ERKS5_
FN:314,_ZNSt4pairIK7QStringS0_EC2ERKS2_
FNDA:0,_ZNSt4pairIK7QStringS0_EC2ERKS2_
FN:314,_ZNSt4pairIK5QChar7QStringEC2ERKS3_
FNDA:0,_ZNSt4pairIK5QChar7QStringEC2ERKS3_
FN:315,_ZNSt4pairIK5QChar7QStringEC2EOS3_
FNDA:0,_ZNSt4pairIK5QChar7QStringEC2EOS3_
FN:315,_ZNSt4pairIK5QChar5QListI7QStringEEC2EOS5_
FNDA:0,_ZNSt4pairIK5QChar5QListI7QStringEEC2EOS5_
FN:315,_ZNSt4pairIK7QStringS0_EC2EOS2_
FNDA:0,_ZNSt4pairIK7QStringS0_EC2EOS2_
FN:322,_ZNSt4pairIPSt18_Rb_tree_node_baseS1_EC2IRS1_Lb1EEEOT_RKS1_
FNDA:0,_ZNSt4pairIPSt18_Rb_tree_node_baseS1_EC2IRS1_Lb1EEEOT_RKS1_
FN:336,_ZNSt4pairIKiiEC2IiLb1EEERS0_OT_
FNDA:0,_ZNSt4pairIKiiEC2IiLb1EEERS0_OT_
FN:336,_ZNSt4pairIK7QStringS0_EC2IS0_Lb1EEERS1_OT_
FNDA:0,_ZNSt4pairIK7QStringS0_EC2IS0_Lb1EEERS1_OT_
FN:336,_ZNSt4pairIK5QChar5QListI7QStringEEC2IS4_Lb1EEERS1_OT_
FNDA:0,_ZNSt4pairIK5QChar5QListI7QStringEEC2IS4_Lb1EEERS1_OT_
FN:336,_ZNSt4pairIK5QChar7QStringEC2IS2_Lb1EEERS1_OT_
FNDA:0,_ZNSt4pairIK5QChar7QStringEC2IS2_Lb1EEERS1_OT_
FN:336,_ZNSt4pairIK5QChariEC2IiLb1EEERS1_OT_
FNDA:0,_ZNSt4pairIK5QChariEC2IiLb1EEERS1_OT_
FN:352,_ZNSt4pairIP15QTypedArrayDataIiEPiEC2IS2_S3_Lb1EEEOT_OT0_
FNDA:0,_ZNSt4pairIP15QTypedArrayDataIiEPiEC2IS2_S3_Lb1EEEOT_OT0_
FN:352,_ZNSt4pairIP15QTypedArrayDataI4QMapI5QChariEEPS3_EC2IS5_S6_Lb1EEEOT_OT0_
FNDA:0,_ZNSt4pairIP15QTypedArrayDataI4QMapI5QChariEEPS3_EC2IS5_S6_Lb1EEEOT_OT0_
FN:352,_ZNSt4pairIP15QTypedArrayDataI5QListIiEEPS2_EC2IS4_S5_Lb1EEEOT_OT0_
FNDA:1,_ZNSt4pairIP15QTypedArrayDataI5QListIiEEPS2_EC2IS4_S5_Lb1EEEOT_OT0_
FN:352,_ZNSt4pairIP15QTypedArrayDataI4QMapI5QChar7QStringEEPS4_EC2IS6_S7_Lb1EEEOT_OT0_
FNDA:0,_ZNSt4pairIP15QTypedArrayDataI4QMapI5QChar7QStringEEPS4_EC2IS6_S7_Lb1EEEOT_OT0_
FN:352,_ZNSt4pairIP15QTypedArrayDataI4QMapI5QChar5QListI7QStringEEEPS6_EC2IS8_S9_Lb1EEEOT_OT0_
FNDA:0,_ZNSt4pairIP15QTypedArrayDataI4QMapI5QChar5QListI7QStringEEEPS6_EC2IS8_S9_Lb1EEEOT_OT0_
FN:352,_ZNSt4pairIP15QTypedArrayDataI4QMapI7QStringS2_EEPS3_EC2IS5_S6_Lb1EEEOT_OT0_
FNDA:0,_ZNSt4pairIP15QTypedArrayDataI4QMapI7QStringS2_EEPS3_EC2IS5_S6_Lb1EEEOT_OT0_
FN:352,_ZNSt4pairISt17_Rb_tree_iteratorIS_IKiiEEbEC2IS3_bLb1EEEOT_OT0_
FNDA:0,_ZNSt4pairISt17_Rb_tree_iteratorIS_IKiiEEbEC2IS3_bLb1EEEOT_OT0_
FN:352,_ZNSt4pairISt17_Rb_tree_iteratorIS_IK7QStringS1_EEbEC2IS4_bLb1EEEOT_OT0_
FNDA:0,_ZNSt4pairISt17_Rb_tree_iteratorIS_IK7QStringS1_EEbEC2IS4_bLb1EEEOT_OT0_
FN:352,_ZNSt4pairISt17_Rb_tree_iteratorIS_IK5QChar5QListI7QStringEEEbEC2IS7_bLb1EEEOT_OT0_
FNDA:0,_ZNSt4pairISt17_Rb_tree_iteratorIS_IK5QChar5QListI7QStringEEEbEC2IS7_bLb1EEEOT_OT0_
FN:352,_ZNSt4pairISt17_Rb_tree_iteratorIS_IK5QChar7QStringEEbEC2IS5_bLb1EEEOT_OT0_
FNDA:0,_ZNSt4pairISt17_Rb_tree_iteratorIS_IK5QChar7QStringEEbEC2IS5_bLb1EEEOT_OT0_
FN:352,_ZNSt4pairIP15QTypedArrayDataI5QCharEPS1_EC2IS3_S4_Lb1EEEOT_OT0_
FNDA:0,_ZNSt4pairIP15QTypedArrayDataI5QCharEPS1_EC2IS3_S4_Lb1EEEOT_OT0_
FN:352,_ZNSt4pairIyyEC2IyyLb1EEEOT_OT0_
FNDA:10,_ZNSt4pairIyyEC2IyyLb1EEEOT_OT0_
FN:352,_ZNSt4pairISt17_Rb_tree_iteratorIS_IK5QChariEEbEC2IS4_bLb1EEEOT_OT0_
FNDA:0,_ZNSt4pairISt17_Rb_tree_iteratorIS_IK5QChariEEbEC2IS4_bLb1EEEOT_OT0_
FN:352,_ZNSt4pairIP15QTypedArrayDataIbEPbEC2IS2_S3_Lb1EEEOT_OT0_
FNDA:2592,_ZNSt4pairIP15QTypedArrayDataIbEPbEC2IS2_S3_Lb1EEEOT_OT0_
FN:352,_ZNSt4pairIP15QTypedArrayDataIP9GameModelEPS2_EC2IS4_S5_Lb1EEEOT_OT0_
FNDA:0,_ZNSt4pairIP15QTypedArrayDataIP9GameModelEPS2_EC2IS4_S5_Lb1EEEOT_OT0_
FN:352,_ZNSt4pairIPSt18_Rb_tree_node_baseS1_EC2IRPSt13_Rb_tree_nodeIS_IK7QStringS5_EERS1_Lb1EEEOT_OT0_
FNDA:0,_ZNSt4pairIPSt18_Rb_tree_node_baseS1_EC2IRPSt13_Rb_tree_nodeIS_IK7QStringS5_EERS1_Lb1EEEOT_OT0_
FN:352,_ZNSt4pairIPSt18_Rb_tree_node_baseS1_EC2IRPSt13_Rb_tree_nodeIS_IK5QChar5QListI7QStringEEERS1_Lb1EEEOT_OT0_
FNDA:0,_ZNSt4pairIPSt18_Rb_tree_node_baseS1_EC2IRPSt13_Rb_tree_nodeIS_IK5QChar5QListI7QStringEEERS1_Lb1EEEOT_OT0_
FN:352,_ZNSt4pairIPSt18_Rb_tree_node_baseS1_EC2IRPSt13_Rb_tree_nodeIS_IK5QChar7QStringEERS1_Lb1EEEOT_OT0_
FNDA:0,_ZNSt4pairIPSt18_Rb_tree_node_baseS1_EC2IRPSt13_Rb_tree_nodeIS_IK5QChar7QStringEERS1_Lb1EEEOT_OT0_
FN:352,_ZNSt4pairIPSt18_Rb_tree_node_baseS1_EC2IRPSt13_Rb_tree_nodeIS_IK5QChariEERS1_Lb1EEEOT_OT0_
FNDA:0,_ZNSt4pairIPSt18_Rb_tree_node_baseS1_EC2IRPSt13_Rb_tree_nodeIS_IK5QChariEERS1_Lb1EEEOT_OT0_
FN:352,_ZNSt4pairIP15QTypedArrayDataI7QStringEPS1_EC2IS3_S4_Lb1EEEOT_OT0_
FNDA:0,_ZNSt4pairIP15QTypedArrayDataI7QStringEPS1_EC2IS3_S4_Lb1EEEOT_OT0_
FN:352,_ZNSt4pairIPSt18_Rb_tree_node_baseS1_EC2IRPSt13_Rb_tree_nodeIS_IKiiEERS1_Lb1EEEOT_OT0_
FNDA:0,_ZNSt4pairIPSt18_Rb_tree_node_baseS1_EC2IRPSt13_Rb_tree_nodeIS_IKiiEERS1_Lb1EEEOT_OT0_
FN:567,_ZSt9make_pairIP15QTypedArrayDataIbEPbESt4pairINSt25__strip_reference_wrapperINSt5decayIT_E4typeEE6__typeENS5_INS6_IT0_E4typeEE6__typeEEOS7_OSC_
FNDA:2592,_ZSt9make_pairIP15QTypedArrayDataIbEPbESt4pairINSt25__strip_reference_wrapperINSt5decayIT_E4typeEE6__typeENS5_INS6_IT0_E4typeEE6__typeEEOS7_OSC_
FN:567,_ZSt9make_pairIP15QTypedArrayDataI4QMapI5QChar7QStringEEPS4_ESt4pairINSt25__strip_reference_wrapperINSt5decayIT_E4typeEE6__typeENS9_INSA_IT0_E4typeEE6__typeEEOSB_OSG_
FNDA:0,_ZSt9make_pairIP15QTypedArrayDataI4QMapI5QChar7QStringEEPS4_ESt4pairINSt25__strip_reference_wrapperINSt5decayIT_E4typeEE6__typeENS9_INSA_IT0_E4typeEE6__typeEEOSB_OSG_
FN:567,_ZSt9make_pairIP15QTypedArrayDataI4QMapI5QChar5QListI7QStringEEEPS6_ESt4pairINSt25__strip_reference_wrapperINSt5decayIT_E4typeEE6__typeENSB_INSC_IT0_E4typeEE6__typeEEOSD_OSI_
FNDA:0,_ZSt9make_pairIP15QTypedArrayDataI4QMapI5QChar5QListI7QStringEEEPS6_ESt4pairINSt25__strip_reference_wrapperINSt5decayIT_E4typeEE6__typeENSB_INSC_IT0_E4typeEE6__typeEEOSD_OSI_
FN:567,_ZSt9make_pairIP15QTypedArrayDataI4QMapI7QStringS2_EEPS3_ESt4pairINSt25__strip_reference_wrapperINSt5decayIT_E4typeEE6__typeENS8_INS9_IT0_E4typeEE6__typeEEOSA_OSF_
FNDA:0,_ZSt9make_pairIP15QTypedArrayDataI4QMapI7QStringS2_EEPS3_ESt4pairINSt25__strip_reference_wrapperINSt5decayIT_E4typeEE6__typeENS8_INS9_IT0_E4typeEE6__typeEEOSA_OSF_
FN:567,_ZSt9make_pairIP15QTypedArrayDataIP9GameModelEPS2_ESt4pairINSt25__strip_reference_wrapperINSt5decayIT_E4typeEE6__typeENS7_INS8_IT0_E4typeEE6__typeEEOS9_OSE_
FNDA:0,_ZSt9make_pairIP15QTypedArrayDataIP9GameModelEPS2_ESt4pairINSt25__strip_reference_wrapperINSt5decayIT_E4typeEE6__typeENS7_INS8_IT0_E4typeEE6__typeEEOS9_OSE_
FN:567,_ZSt9make_pairIP15QTypedArrayDataI5QCharEPS1_ESt4pairINSt25__strip_reference_wrapperINSt5decayIT_E4typeEE6__typeENS6_INS7_IT0_E4typeEE6__typeEEOS8_OSD_
FNDA:0,_ZSt9make_pairIP15QTypedArrayDataI5QCharEPS1_ESt4pairINSt25__strip_reference_wrapperINSt5decayIT_E4typeEE6__typeENS6_INS7_IT0_E4typeEE6__typeEEOS8_OSD_
FN:567,_ZSt9make_pairIyyESt4pairINSt25__strip_reference_wrapperINSt5decayIT_E4typeEE6__typeENS1_INS2_IT0_E4typeEE6__typeEEOS3_OS8_
FNDA:10,_ZSt9make_pairIyyESt4pairINSt25__strip_reference_wrapperINSt5decayIT_E4typeEE6__typeENS1_INS2_IT0_E4typeEE6__typeEEOS3_OS8_
FN:567,_ZSt9make_pairIP15QTypedArrayDataIiEPiESt4pairINSt25__strip_reference_wrapperINSt5decayIT_E4typeEE6__typeENS5_INS6_IT0_E4typeEE6__typeEEOS7_OSC_
FNDA:0,_ZSt9make_pairIP15QTypedArrayDataIiEPiESt4pairINSt25__strip_reference_wrapperINSt5decayIT_E4typeEE6__typeENS5_INS6_IT0_E4typeEE6__typeEEOS7_OSC_
FN:567,_ZSt9make_pairIP15QTypedArrayDataI7QStringEPS1_ESt4pairINSt25__strip_reference_wrapperINSt5decayIT_E4typeEE6__typeENS6_INS7_IT0_E4typeEE6__typeEEOS8_OSD_
FNDA:0,_ZSt9make_pairIP15QTypedArrayDataI7QStringEPS1_ESt4pairINSt25__strip_reference_wrapperINSt5decayIT_E4typeEE6__typeENS6_INS7_IT0_E4typeEE6__typeEEOS8_OSD_
FN:567,_ZSt9make_pairIP15QTypedArrayDataI5QListIiEEPS2_ESt4pairINSt25__strip_reference_wrapperINSt5decayIT_E4typeEE6__typeENS7_INS8_IT0_E4typeEE6__typeEEOS9_OSE_
FNDA:1,_ZSt9make_pairIP15QTypedArrayDataI5QListIiEEPS2_ESt4pairINSt25__strip_reference_wrapperINSt5decayIT_E4typeEE6__typeENS7_INS8_IT0_E4typeEE6__typeEEOS9_OSE_
FN:567,_ZSt9make_pairIP15QTypedArrayDataI4QMapI5QChariEEPS3_ESt4pairINSt25__strip_reference_wrapperINSt5decayIT_E4typeEE6__typeENS8_INS9_IT0_E4typeEE6__typeEEOSA_OSF_
FNDA:0,_ZSt9make_pairIP15QTypedArrayDataI4QMapI5QChariEEPS3_ESt4pairINSt25__strip_reference_wrapperINSt5decayIT_E4typeEE6__typeENS8_INS9_IT0_E4typeEE6__typeEEOSA_OSF_
DA:314,0
DA:314,0
DA:314,0
DA:315,0
DA:315,0
DA:315,0
DA:322,0
DA:323,0
DA:336,0
DA:337,0
DA:336,0
DA:337,0
DA:336,0
DA:337,0
DA:336,0
DA:337,0
DA:336,0
DA:337,0
DA:352,0
DA:353,0
DA:352,0
DA:353,0
DA:352,0
DA:353,0
DA:352,0
DA:353,0
DA:352,0
DA:353,0
DA:352,0
DA:353,0
DA:352,10
DA:353,10
DA:352,0
DA:353,0
DA:352,0
DA:353,0
DA:352,2592
DA:353,2592
DA:352,0
DA:353,0
DA:352,0
DA:353,0
DA:352,0
DA:353,0
DA:352,0
DA:353,0
DA:352,0
DA:353,0
DA:352,0
DA:353,0
DA:352,0
DA:353,0
DA:352,0
DA:353,0
DA:352,0
DA:353,0
DA:352,0
DA:353,0
DA:352,1
DA:353,1
DA:567,0
DA:572,0
DA:567,1
DA:572,1
DA:567,0
DA:572,0
DA:567,0
DA:572,0
DA:567,0
DA:572,0
DA:567,0
DA:572,0
DA:567,0
DA:572,0
DA:567,2592
DA:572,2592
DA:567,0
DA:572,0
DA:567,10
DA:572,10
DA:567,0
DA:572,0
end_of_record
SF:/home/pavle/Qt/6.6.1/gcc_64/include/QtCore/qatomic_cxx11.h
FN:199,_ZN10QAtomicOpsIiE11loadRelaxedIiEET_RKSt6atomicIS2_E
FNDA:0,_ZN10QAtomicOpsIiE11loadRelaxedIiEET_RKSt6atomicIS2_E
FN:211,_ZN10QAtomicOpsIiE11loadAcquireIiEET_RKSt6atomicIS2_E
FNDA:0,_ZN10QAtomicOpsIiE11loadAcquireIiEET_RKSt6atomicIS2_E
FN:235,_ZN10QAtomicOpsIiE12storeReleaseIiEEvRSt6atomicIT_ES3_
FNDA:0,_ZN10QAtomicOpsIiE12storeReleaseIiEEvRSt6atomicIT_ES3_
FN:243,_ZN10QAtomicOpsIiE3refIiEEbRSt6atomicIT_E
FNDA:0,_ZN10QAtomicOpsIiE3refIiEEbRSt6atomicIT_E
FN:262,_ZN10QAtomicOpsIiE5derefIiEEbRSt6atomicIT_E
FNDA:0,_ZN10QAtomicOpsIiE5derefIiEEbRSt6atomicIT_E
DA:199,0
DA:201,0
DA:211,0
DA:213,0
DA:235,0
DA:237,0
DA:238,0
DA:243,0
DA:258,0
DA:262,0
DA:265,0
end_of_record
SF:/usr/include/c++/11/initializer_list
FN:71,_ZNKSt16initializer_listIbE4sizeEv
FNDA:7776,_ZNKSt16initializer_listIbE4sizeEv
FN:71,_ZNKSt16initializer_listIiE4sizeEv
FNDA:9,_ZNKSt16initializer_listIiE4sizeEv
FN:71,_ZNKSt16initializer_listI5QCharE4sizeEv
FNDA:12,_ZNKSt16initializer_listI5QCharE4sizeEv
FN:75,_ZNKSt16initializer_listIbE5beginEv
FNDA:5184,_ZNKSt16initializer_listIbE5beginEv
FN:75,_ZNKSt16initializer_listIiE5beginEv
FNDA:6,_ZNKSt16initializer_listIiE5beginEv
FN:75,_ZNKSt16initializer_listI5QCharE5beginEv
FNDA:8,_ZNKSt16initializer_listI5QCharE5beginEv
FN:79,_ZNKSt16initializer_listIbE3endEv
FNDA:2592,_ZNKSt16initializer_listIbE3endEv
FN:79,_ZNKSt16initializer_listIiE3endEv
FNDA:3,_ZNKSt16initializer_listIiE3endEv
FN:79,_ZNKSt16initializer_listI5QCharE3endEv
FNDA:4,_ZNKSt16initializer_listI5QCharE3endEv
DA:71,7776
DA:71,9
DA:71,12
DA:75,5184
DA:75,6
DA:75,8
DA:79,2592
DA:79,3
DA:79,4
end_of_record
SF:/home/pavle/Qt/6.6.1/gcc_64/include/QtCore/qatomic.h
FN:21,_ZN14QAtomicIntegerIiEC2Ei
FNDA:0,_ZN14QAtomicIntegerIiEC2Ei
FN:117,_ZN10QAtomicIntC2Ei
FNDA:0,_ZN10QAtomicIntC2Ei
DA:21,0
DA:117,0
end_of_record
SF:/usr/include/c++/11/bits/uniform_int_dist.h
FN:93,_ZNSt24uniform_int_distributionIyE10param_typeC2Eyy
FNDA:14,_ZNSt24uniform_int_distributionIyE10param_typeC2Eyy
FN:101,_ZNKSt24uniform_int_distributionIyE10param_type1aEv
FNDA:28,_ZNKSt24uniform_int_distributionIyE10param_type1aEv
FN:105,_ZNKSt24uniform_int_distributionIyE10param_type1bEv
FNDA:14,_ZNKSt24uniform_int_distributionIyE10param_type1bEv
FN:125,_ZNSt24uniform_int_distributionIyEC2Ev
FNDA:0,_ZNSt24uniform_int_distributionIyEC2Ev
FN:131,_ZNSt24uniform_int_distributionIyEC2Eyy
FNDA:14,_ZNSt24uniform_int_distributionIyEC2Eyy
FN:192,_ZNSt24uniform_int_distributionIyEclISt26linear_congruential_engineImLm16807ELm0ELm2147483647EEEEyRT_
FNDA:14,_ZNSt24uniform_int_distributionIyEclISt26linear_congruential_engineImLm16807ELm0ELm2147483647EEEEyRT_
FN:276,_ZNSt24uniform_int_distributionIyEclISt26linear_congruential_engineImLm16807ELm0ELm2147483647EEEEyRT_RKNS0_10param_typeE
FNDA:14,_ZNSt24uniform_int_distributionIyEclISt26linear_congruential_engineImLm16807ELm0ELm2147483647EEEEyRT_RKNS0_10param_typeE
DA:93,14
DA:95,14
DA:98,14
DA:101,28
DA:102,28
DA:105,14
DA:106,14
DA:125,0
DA:131,14
DA:134,14
DA:135,14
DA:192,14
DA:193,14
DA:276,14
DA:284,14
DA:285,14
DA:288,14
DA:290,14
DA:291,14
DA:294,14
BRDA:294,0,0,14
BRDA:294,0,1,0
DA:298,14
DA:322,14
DA:323,14
DA:325,14
DA:326,14
BRDA:326,0,0,0
BRDA:326,0,1,14
DA:327,14
DA:330,0
BRDA:330,0,0,-
BRDA:330,0,1,-
DA:350,0
DA:351,0
DA:352,0
BRDA:352,0,0,-
BRDA:352,0,1,-
DA:353,0
DA:355,0
BRDA:355,0,0,-
BRDA:355,0,1,-
BRDA:355,0,2,-
BRDA:355,0,3,-
DA:358,0
DA:360,14
end_of_record
SF:/home/pavle/Qt/6.6.1/gcc_64/include/QtCore/qflags.h
FN:31,_ZN5QFlagC2Ej
FNDA:0,_ZN5QFlagC2Ej
FN:34,_ZNK5QFlagcvjEv
FNDA:0,_ZNK5QFlagcvjEv
FN:74,_ZN6QFlagsIN13QIODeviceBase12OpenModeFlagEEC2ES1_
FNDA:0,_ZN6QFlagsIN13QIODeviceBase12OpenModeFlagEEC2ES1_
FN:74,_ZN6QFlagsIN10QArrayData11ArrayOptionEEC2ES1_
FNDA:0,_ZN6QFlagsIN10QArrayData11ArrayOptionEEC2ES1_
FN:74,_ZN6QFlagsIN2Qt18SplitBehaviorFlagsEEC2ES1_
FNDA:0,_ZN6QFlagsIN2Qt18SplitBehaviorFlagsEEC2ES1_
FN:75,_ZN6QFlagsIN10QArrayData11ArrayOptionEEC2E5QFlag
FNDA:0,_ZN6QFlagsIN10QArrayData11ArrayOptionEEC2E5QFlag
FN:89,_ZN6QFlagsIN10QArrayData11ArrayOptionEEoRES2_
FNDA:0,_ZN6QFlagsIN10QArrayData11ArrayOptionEEoRES2_
FN:103,_ZNK6QFlagsIN10QArrayData11ArrayOptionEEcvjEv
FNDA:0,_ZNK6QFlagsIN10QArrayData11ArrayOptionEEcvjEv
FN:116,_ZNK6QFlagsIN10QArrayData11ArrayOptionEEanES1_
FNDA:0,_ZNK6QFlagsIN10QArrayData11ArrayOptionEEanES1_
DA:31,0
DA:34,0
DA:74,0
DA:74,0
DA:74,0
DA:75,0
DA:89,0
DA:103,0
DA:116,0
end_of_record
SF:/home/pavle/Qt/6.6.1/gcc_64/include/QtCore/qchar.h
FN:83,_ZN5QCharC2EDs
FNDA:0,_ZN5QCharC2EDs
FN:90,_ZN5QCharC2Ec
FNDA:0,_ZN5QCharC2Ec
FN:582,_Zeq5QCharS_
FNDA:0,_Zeq5QCharS_
FN:583,_Zlt5QCharS_
FNDA:0,_Zlt5QCharS_
DA:83,0
DA:90,0
DA:582,0
DA:583,0
end_of_record
SF:/home/pavle/Qt/6.6.1/gcc_64/include/QtCore/qobjectdefs_impl.h
FN:63,_ZN9QtPrivate16ApplyReturnValueIvEC2EPv
FNDA:0,_ZN9QtPrivate16ApplyReturnValueIvEC2EPv
FN:118,_ZN9QtPrivate16assertObjectTypeI6ServerEEvP7QObject
FNDA:0,_ZN9QtPrivate16assertObjectTypeI6ServerEEvP7QObject
FN:124,_ZZN9QtPrivate16assertObjectTypeI6ServerEEvP7QObjectENKUlS3_E1_clES3_
FNDA:0,_ZZN9QtPrivate16assertObjectTypeI6ServerEEvP7QObjectENKUlS3_E1_clES3_
FN:142,_ZN9QtPrivate11FunctorCallINS_11IndexesListIJLi0EEEENS_4ListIJN15QAbstractSocket11SocketStateEEEEvM6ServerFvS5_EE4callES9_PS7_PPv
FNDA:0,_ZN9QtPrivate11FunctorCallINS_11IndexesListIJLi0EEEENS_4ListIJN15QAbstractSocket11SocketStateEEEEvM6ServerFvS5_EE4callES9_PS7_PPv
FN:142,_ZN9QtPrivate11FunctorCallINS_11IndexesListIJEEENS_4ListIJEEEvM6ServerFvvEE4callES7_PS5_PPv
FNDA:0,_ZN9QtPrivate11FunctorCallINS_11IndexesListIJEEENS_4ListIJEEEvM6ServerFvvEE4callES7_PS5_PPv
FN:181,_ZN9QtPrivate15FunctionPointerIM6ServerFvN15QAbstractSocket11SocketStateEEE4callINS_4ListIJS3_EEEvEEvS5_PS1_PPv
FNDA:0,_ZN9QtPrivate15FunctionPointerIM6ServerFvN15QAbstractSocket11SocketStateEEE4callINS_4ListIJS3_EEEvEEvS5_PS1_PPv
FN:181,_ZN9QtPrivate15FunctionPointerIM6ServerFvvEE4callINS_4ListIJEEEvEEvS3_PS1_PPv
FNDA:0,_ZN9QtPrivate15FunctionPointerIM6ServerFvvEE4callINS_4ListIJEEEvEEvS3_PS1_PPv
FN:416,_ZN9QtPrivate15QSlotObjectBaseC2EPFviPS0_P7QObjectPPvPbE
FNDA:0,_ZN9QtPrivate15QSlotObjectBaseC2EPFviPS0_P7QObjectPPvPbE
FN:448,_ZN9QtPrivate15QSlotObjectBaseD2Ev
FNDA:0,_ZN9QtPrivate15QSlotObjectBaseD2Ev
FN:505,_ZN9QtPrivate15QCallableObjectIM6ServerFvN15QAbstractSocket11SocketStateEENS_4ListIJS3_EEEvE4implEiPNS_15QSlotObjectBaseEP7QObjectPPvPb
FNDA:0,_ZN9QtPrivate15QCallableObjectIM6ServerFvN15QAbstractSocket11SocketStateEENS_4ListIJS3_EEEvE4implEiPNS_15QSlotObjectBaseEP7QObjectPPvPb
FN:505,_ZN9QtPrivate15QCallableObjectIM6ServerFvvENS_4ListIJEEEvE4implEiPNS_15QSlotObjectBaseEP7QObjectPPvPb
FNDA:0,_ZN9QtPrivate15QCallableObjectIM6ServerFvvENS_4ListIJEEEvE4implEiPNS_15QSlotObjectBaseEP7QObjectPPvPb
FN:536,_ZN9QtPrivate15QCallableObjectIM6ServerFvN15QAbstractSocket11SocketStateEENS_4ListIJS3_EEEvEC2EOS5_
FNDA:0,_ZN9QtPrivate15QCallableObjectIM6ServerFvN15QAbstractSocket11SocketStateEENS_4ListIJS3_EEEvEC2EOS5_
FN:536,_ZN9QtPrivate15QCallableObjectIM6ServerFvvENS_4ListIJEEEvEC2EOS3_
FNDA:0,_ZN9QtPrivate15QCallableObjectIM6ServerFvvENS_4ListIJEEEvEC2EOS3_
FN:579,_ZN9QtPrivateL18makeCallableObjectIM15QAbstractSocketFvNS1_11SocketStateEEM6ServerFvS2_EEENSt9enable_ifIXgecl22countMatchingArgumentsIT_T0_EELi0EEPNS_15QSlotObjectBaseEE4typeEOSA_
FNDA:0,_ZN9QtPrivateL18makeCallableObjectIM15QAbstractSocketFvNS1_11SocketStateEEM6ServerFvS2_EEENSt9enable_ifIXgecl22countMatchingArgumentsIT_T0_EELi0EEPNS_15QSlotObjectBaseEE4typeEOSA_
FN:579,_ZN9QtPrivateL18makeCallableObjectIM9QIODeviceFvvEM6ServerFvvEEENSt9enable_ifIXgecl22countMatchingArgumentsIT_T0_EELi0EEPNS_15QSlotObjectBaseEE4typeEOS9_
FNDA:0,_ZN9QtPrivateL18makeCallableObjectIM9QIODeviceFvvEM6ServerFvvEEENSt9enable_ifIXgecl22countMatchingArgumentsIT_T0_EELi0EEPNS_15QSlotObjectBaseEE4typeEOS9_
FN:579,_ZN9QtPrivateL18makeCallableObjectIM15QAbstractSocketFvvEM6ServerFvvEEENSt9enable_ifIXgecl22countMatchingArgumentsIT_T0_EELi0EEPNS_15QSlotObjectBaseEE4typeEOS9_
FNDA:0,_ZN9QtPrivateL18makeCallableObjectIM15QAbstractSocketFvvEM6ServerFvvEEENSt9enable_ifIXgecl22countMatchingArgumentsIT_T0_EELi0EEPNS_15QSlotObjectBaseEE4typeEOS9_
DA:63,0
DA:118,0
DA:124,0
BRDA:124,0,0,-
BRDA:124,0,1,-
DA:129,0
BRDA:129,0,0,-
BRDA:129,0,1,-
BRDA:129,0,2,-
BRDA:129,0,3,-
DA:131,0
DA:142,0
DA:144,0
DA:145,0
BRDA:145,0,0,-
BRDA:145,0,1,-
DA:146,0
DA:142,0
DA:144,0
DA:145,0
BRDA:145,0,0,-
BRDA:145,0,1,-
DA:146,0
DA:181,0
DA:182,0
DA:183,0
DA:181,0
DA:182,0
DA:183,0
DA:416,0
DA:448,0
DA:505,0
DA:513,0
DA:514,0
BRDA:514,0,0,-
BRDA:514,0,1,-
BRDA:514,0,2,-
BRDA:514,0,3,-
DA:515,0
DA:516,0
BRDA:516,0,0,-
BRDA:516,0,1,-
DA:517,0
DA:518,0
DA:520,0
DA:523,0
DA:524,0
DA:526,0
BRDA:526,0,0,-
BRDA:526,0,1,-
BRDA:526,0,2,-
BRDA:526,0,3,-
BRDA:526,0,4,-
BRDA:526,0,5,-
DA:527,0
DA:531,0
DA:534,0
DA:505,0
DA:513,0
DA:514,0
BRDA:514,0,0,-
BRDA:514,0,1,-
BRDA:514,0,2,-
BRDA:514,0,3,-
DA:515,0
DA:516,0
BRDA:516,0,0,-
BRDA:516,0,1,-
DA:517,0
DA:518,0
DA:520,0
DA:523,0
DA:524,0
DA:526,0
BRDA:526,0,0,-
BRDA:526,0,1,-
BRDA:526,0,2,-
BRDA:526,0,3,-
BRDA:526,0,4,-
BRDA:526,0,5,-
DA:527,0
DA:531,0
DA:534,0
DA:536,0
DA:536,0
DA:579,0
DA:586,0
DA:592,0
DA:579,0
DA:586,0
DA:592,0
DA:579,0
DA:586,0
DA:592,0
end_of_record
SF:/usr/include/c++/11/bits/stl_heap.h
FN:134,_ZSt11__push_heapIN5QListIP9GameModelE8iteratorExS2_N9__gnu_cxx5__ops14_Iter_comp_valIZN6Server15socketReadyReadEvEUlPKS1_SA_E0_EEEvT_T0_SE_T1_RT2_
FNDA:0,_ZSt11__push_heapIN5QListIP9GameModelE8iteratorExS2_N9__gnu_cxx5__ops14_Iter_comp_valIZN6Server15socketReadyReadEvEUlPKS1_SA_E0_EEEvT_T0_SE_T1_RT2_
FN:223,_ZSt13__adjust_heapIN5QListIP9GameModelE8iteratorExS2_N9__gnu_cxx5__ops15_Iter_comp_iterIZN6Server15socketReadyReadEvEUlPKS1_SA_E0_EEEvT_T0_SE_T1_T2_
FNDA:0,_ZSt13__adjust_heapIN5QListIP9GameModelE8iteratorExS2_N9__gnu_cxx5__ops15_Iter_comp_iterIZN6Server15socketReadyReadEvEUlPKS1_SA_E0_EEEvT_T0_SE_T1_T2_
FN:253,_ZSt10__pop_heapIN5QListIP9GameModelE8iteratorEN9__gnu_cxx5__ops15_Iter_comp_iterIZN6Server15socketReadyReadEvEUlPKS1_SA_E0_EEEvT_SD_SD_RT0_
FNDA:0,_ZSt10__pop_heapIN5QListIP9GameModelE8iteratorEN9__gnu_cxx5__ops15_Iter_comp_iterIZN6Server15socketReadyReadEvEUlPKS1_SA_E0_EEEvT_SD_SD_RT0_
FN:339,_ZSt11__make_heapIN5QListIP9GameModelE8iteratorEN9__gnu_cxx5__ops15_Iter_comp_iterIZN6Server15socketReadyReadEvEUlPKS1_SA_E0_EEEvT_SD_RT0_
FNDA:0,_ZSt11__make_heapIN5QListIP9GameModelE8iteratorEN9__gnu_cxx5__ops15_Iter_comp_iterIZN6Server15socketReadyReadEvEUlPKS1_SA_E0_EEEvT_SD_RT0_
FN:418,_ZSt11__sort_heapIN5QListIP9GameModelE8iteratorEN9__gnu_cxx5__ops15_Iter_comp_iterIZN6Server15socketReadyReadEvEUlPKS1_SA_E0_EEEvT_SD_RT0_
FNDA:0,_ZSt11__sort_heapIN5QListIP9GameModelE8iteratorEN9__gnu_cxx5__ops15_Iter_comp_iterIZN6Server15socketReadyReadEvEUlPKS1_SA_E0_EEEvT_SD_RT0_
DA:134,0
DA:138,0
DA:139,0
BRDA:139,0,0,-
BRDA:139,0,1,-
BRDA:139,0,2,-
BRDA:139,0,3,-
BRDA:139,0,4,-
BRDA:139,0,5,-
DA:141,0
BRDA:141,0,0,-
BRDA:141,0,1,-
DA:142,0
DA:143,0
DA:145,0
DA:146,0
DA:223,0
DA:226,0
DA:227,0
DA:228,0
BRDA:228,0,0,-
BRDA:228,0,1,-
DA:230,0
DA:231,0
BRDA:231,0,0,-
BRDA:231,0,1,-
BRDA:231,0,2,-
BRDA:231,0,3,-
BRDA:231,0,4,-
BRDA:231,0,5,-
BRDA:231,0,6,-
BRDA:231,0,7,-
DA:233,0
DA:234,0
BRDA:234,0,0,-
BRDA:234,0,1,-
BRDA:234,0,2,-
BRDA:234,0,3,-
DA:235,0
DA:237,0
BRDA:237,0,0,-
BRDA:237,0,1,-
BRDA:237,0,2,-
BRDA:237,0,3,-
DA:239,0
DA:240,0
BRDA:240,0,0,-
BRDA:240,0,1,-
BRDA:240,0,2,-
BRDA:240,0,3,-
DA:242,0
DA:245,0
DA:246,0
BRDA:246,0,0,-
BRDA:246,0,1,-
DA:247,0
DA:248,0
DA:253,0
DA:261,0
DA:262,0
DA:263,0
BRDA:263,0,0,-
BRDA:263,0,1,-
DA:264,0
DA:265,0
DA:266,0
DA:339,0
DA:347,0
BRDA:347,0,0,-
BRDA:347,0,1,-
DA:348,0
DA:350,0
DA:351,0
DA:352,0
DA:354,0
BRDA:354,0,0,-
BRDA:354,0,1,-
DA:355,0
BRDA:355,0,0,-
BRDA:355,0,1,-
DA:357,0
BRDA:357,0,0,-
BRDA:357,0,1,-
DA:358,0
DA:359,0
DA:418,0
DA:421,0
BRDA:421,0,0,-
BRDA:421,0,1,-
DA:423,0
DA:424,0
DA:426,0
end_of_record
SF:/home/pavle/Qt/6.6.1/gcc_64/include/QtCore/qobject_impl.h
FN:37,_ZN9QtPrivate15ConnectionTypesINS_4ListIJEEELb1EE5typesEv
FNDA:0,_ZN9QtPrivate15ConnectionTypesINS_4ListIJEEELb1EE5typesEv
FN:39,_ZN9QtPrivate15ConnectionTypesINS_4ListIJN15QAbstractSocket11SocketStateEEEELb1EE5typesEv
FNDA:0,_ZN9QtPrivate15ConnectionTypesINS_4ListIJN15QAbstractSocket11SocketStateEEEELb1EE5typesEv
DA:37,0
DA:39,0
BRDA:39,0,0,-
BRDA:39,0,1,-
BRDA:39,0,2,-
BRDA:39,0,3,-
BRDA:39,0,4,-
BRDA:39,0,5,-
BRDA:39,0,6,-
BRDA:39,0,7,-
end_of_record
SF:/usr/include/c++/11/bits/stl_function.h
FN:399,_ZNKSt4lessIiEclERKiS2_
FNDA:0,_ZNKSt4lessIiEclERKiS2_
FN:399,_ZNKSt4lessI7QStringEclERKS0_S3_
FNDA:52,_ZNKSt4lessI7QStringEclERKS0_S3_
FN:399,_ZNKSt4lessI5QCharEclERKS0_S3_
FNDA:0,_ZNKSt4lessI5QCharEclERKS0_S3_
FN:447,_ZNKSt4lessIPKP9GameModelEclES3_S3_
FNDA:0,_ZNKSt4lessIPKP9GameModelEclES3_S3_
FN:447,_ZNKSt4lessIPK7QStringEclES2_S2_
FNDA:0,_ZNKSt4lessIPK7QStringEclES2_S2_
FN:447,_ZNKSt4lessIPK4QMapI7QStringS1_EEclES4_S4_
FNDA:0,_ZNKSt4lessIPK4QMapI7QStringS1_EEclES4_S4_
FN:447,_ZNKSt4lessIPK4QMapI5QChar5QListI7QStringEEEclES7_S7_
FNDA:0,_ZNKSt4lessIPK4QMapI5QChar5QListI7QStringEEEclES7_S7_
FN:447,_ZNKSt4lessIPK4QMapI5QChar7QStringEEclES5_S5_
FNDA:0,_ZNKSt4lessIPK4QMapI5QChar7QStringEEclES5_S5_
FN:447,_ZNKSt4lessIPK5QCharEclES2_S2_
FNDA:0,_ZNKSt4lessIPK5QCharEclES2_S2_
FN:447,_ZNKSt4lessIPK4QMapI5QChariEEclES4_S4_
FNDA:0,_ZNKSt4lessIPK4QMapI5QChariEEclES4_S4_
FN:447,_ZNKSt4lessIPK5QListIiEEclES3_S3_
FNDA:0,_ZNKSt4lessIPK5QListIiEEclES3_S3_
FN:447,_ZNKSt4lessIPKiEclES1_S1_
FNDA:0,_ZNKSt4lessIPKiEclES1_S1_
FN:606,_ZNKSt4lessIvEclIKP9GameModelS4_EEbPT_PT0_
FNDA:0,_ZNKSt4lessIvEclIKP9GameModelS4_EEbPT_PT0_
FN:606,_ZNKSt4lessIvEclIK7QStringS3_EEbPT_PT0_
FNDA:0,_ZNKSt4lessIvEclIK7QStringS3_EEbPT_PT0_
FN:606,_ZNKSt4lessIvEclIK4QMapI7QStringS3_ES5_EEbPT_PT0_
FNDA:0,_ZNKSt4lessIvEclIK4QMapI7QStringS3_ES5_EEbPT_PT0_
FN:606,_ZNKSt4lessIvEclIK4QMapI5QChar5QListI7QStringEES8_EEbPT_PT0_
FNDA:0,_ZNKSt4lessIvEclIK4QMapI5QChar5QListI7QStringEES8_EEbPT_PT0_
FN:606,_ZNKSt4lessIvEclIK4QMapI5QChar7QStringES6_EEbPT_PT0_
FNDA:0,_ZNKSt4lessIvEclIK4QMapI5QChar7QStringES6_EEbPT_PT0_
FN:606,_ZNKSt4lessIvEclIKiS2_EEbPT_PT0_
FNDA:0,_ZNKSt4lessIvEclIKiS2_EEbPT_PT0_
FN:606,_ZNKSt4lessIvEclIK5QListIiES4_EEbPT_PT0_
FNDA:0,_ZNKSt4lessIvEclIK5QListIiES4_EEbPT_PT0_
FN:606,_ZNKSt4lessIvEclIK4QMapI5QChariES5_EEbPT_PT0_
FNDA:0,_ZNKSt4lessIvEclIK4QMapI5QChariES5_EEbPT_PT0_
FN:606,_ZNKSt4lessIvEclIK5QCharS3_EEbPT_PT0_
FNDA:0,_ZNKSt4lessIvEclIK5QCharS3_EEbPT_PT0_
FN:1170,_ZNKSt10_Select1stISt4pairIK5QChariEEclERS3_
FNDA:0,_ZNKSt10_Select1stISt4pairIK5QChariEEclERS3_
FN:1170,_ZNKSt10_Select1stISt4pairIK5QChar7QStringEEclERS4_
FNDA:0,_ZNKSt10_Select1stISt4pairIK5QChar7QStringEEclERS4_
FN:1170,_ZNKSt10_Select1stISt4pairIK5QChar5QListI7QStringEEEclERS6_
FNDA:0,_ZNKSt10_Select1stISt4pairIK5QChar5QListI7QStringEEEclERS6_
FN:1170,_ZNKSt10_Select1stISt4pairIK7QStringS1_EEclERS3_
FNDA:0,_ZNKSt10_Select1stISt4pairIK7QStringS1_EEclERS3_
FN:1170,_ZNKSt10_Select1stISt4pairIKiiEEclERS2_
FNDA:0,_ZNKSt10_Select1stISt4pairIKiiEEclERS2_
FN:1174,_ZNKSt10_Select1stISt4pairIK5QChariEEclERKS3_
FNDA:0,_ZNKSt10_Select1stISt4pairIK5QChariEEclERKS3_
FN:1174,_ZNKSt10_Select1stISt4pairIK5QChar7QStringEEclERKS4_
FNDA:0,_ZNKSt10_Select1stISt4pairIK5QChar7QStringEEclERKS4_
FN:1174,_ZNKSt10_Select1stISt4pairIK5QChar5QListI7QStringEEEclERKS6_
FNDA:0,_ZNKSt10_Select1stISt4pairIK5QChar5QListI7QStringEEEclERKS6_
FN:1174,_ZNKSt10_Select1stISt4pairIK7QStringS1_EEclERKS3_
FNDA:0,_ZNKSt10_Select1stISt4pairIK7QStringS1_EEclERKS3_
FN:1174,_ZNKSt10_Select1stISt4pairIKiiEEclERKS2_
FNDA:0,_ZNKSt10_Select1stISt4pairIKiiEEclERKS2_
DA:399,0
DA:400,0
DA:399,52
DA:400,52
DA:399,0
DA:400,0
DA:447,0
DA:457,0
DA:447,0
DA:457,0
DA:447,0
DA:457,0
DA:447,0
DA:457,0
DA:447,0
DA:457,0
DA:447,0
DA:457,0
DA:447,0
DA:457,0
DA:447,0
DA:457,0
DA:447,0
DA:457,0
DA:606,0
DA:607,0
DA:606,0
DA:607,0
DA:606,0
DA:607,0
DA:606,0
DA:607,0
DA:606,0
DA:607,0
DA:606,0
DA:607,0
DA:606,0
DA:607,0
DA:606,0
DA:607,0
DA:606,0
DA:607,0
DA:1170,0
DA:1171,0
DA:1170,0
DA:1171,0
DA:1170,0
DA:1171,0
DA:1170,0
DA:1171,0
DA:1170,0
DA:1171,0
DA:1174,0
DA:1175,0
DA:1174,0
DA:1175,0
DA:1174,0
DA:1175,0
DA:1174,0
DA:1175,0
DA:1174,0
DA:1175,0
end_of_record
SF:/usr/include/c++/11/bits/allocator.h
FN:156,_ZNSaISt13_Rb_tree_nodeISt4pairIK5QChariEEEC2Ev
FNDA:0,_ZNSaISt13_Rb_tree_nodeISt4pairIK5QChariEEEC2Ev
FN:156,_ZNSaISt13_Rb_tree_nodeISt4pairIK5QChar7QStringEEEC2Ev
FNDA:0,_ZNSaISt13_Rb_tree_nodeISt4pairIK5QChar7QStringEEEC2Ev
FN:156,_ZNSaISt13_Rb_tree_nodeISt4pairIK5QChar5QListI7QStringEEEEC2Ev
FNDA:0,_ZNSaISt13_Rb_tree_nodeISt4pairIK5QChar5QListI7QStringEEEEC2Ev
FN:156,_ZNSaISt13_Rb_tree_nodeISt4pairIK7QStringS1_EEEC2Ev
FNDA:0,_ZNSaISt13_Rb_tree_nodeISt4pairIK7QStringS1_EEEC2Ev
FN:156,_ZNSaISt13_Rb_tree_nodeISt4pairIKiiEEEC2Ev
FNDA:0,_ZNSaISt13_Rb_tree_nodeISt4pairIKiiEEEC2Ev
FN:159,_ZNSaISt13_Rb_tree_nodeISt4pairIK5QChariEEEC2ERKS5_
FNDA:0,_ZNSaISt13_Rb_tree_nodeISt4pairIK5QChariEEEC2ERKS5_
FN:159,_ZNSaISt13_Rb_tree_nodeISt4pairIK5QChar7QStringEEEC2ERKS6_
FNDA:0,_ZNSaISt13_Rb_tree_nodeISt4pairIK5QChar7QStringEEEC2ERKS6_
FN:159,_ZNSaISt13_Rb_tree_nodeISt4pairIK5QChar5QListI7QStringEEEEC2ERKS8_
FNDA:0,_ZNSaISt13_Rb_tree_nodeISt4pairIK5QChar5QListI7QStringEEEEC2ERKS8_
FN:159,_ZNSaISt13_Rb_tree_nodeISt4pairIK7QStringS1_EEEC2ERKS5_
FNDA:0,_ZNSaISt13_Rb_tree_nodeISt4pairIK7QStringS1_EEEC2ERKS5_
FN:159,_ZNSaISt13_Rb_tree_nodeISt4pairIKiiEEEC2ERKS4_
FNDA:0,_ZNSaISt13_Rb_tree_nodeISt4pairIKiiEEEC2ERKS4_
FN:174,_ZNSaISt13_Rb_tree_nodeISt4pairIK5QChariEEED2Ev
FNDA:0,_ZNSaISt13_Rb_tree_nodeISt4pairIK5QChariEEED2Ev
FN:174,_ZNSaISt13_Rb_tree_nodeISt4pairIK5QChar7QStringEEED2Ev
FNDA:0,_ZNSaISt13_Rb_tree_nodeISt4pairIK5QChar7QStringEEED2Ev
FN:174,_ZNSaISt13_Rb_tree_nodeISt4pairIK5QChar5QListI7QStringEEEED2Ev
FNDA:0,_ZNSaISt13_Rb_tree_nodeISt4pairIK5QChar5QListI7QStringEEEED2Ev
FN:174,_ZNSaISt13_Rb_tree_nodeISt4pairIK7QStringS1_EEED2Ev
FNDA:0,_ZNSaISt13_Rb_tree_nodeISt4pairIK7QStringS1_EEED2Ev
FN:174,_ZNSaISt13_Rb_tree_nodeISt4pairIKiiEEED2Ev
FNDA:0,_ZNSaISt13_Rb_tree_nodeISt4pairIKiiEEED2Ev
DA:156,0
DA:156,0
DA:156,0
DA:156,0
DA:156,0
DA:159,0
DA:160,0
DA:159,0
DA:160,0
DA:159,0
DA:160,0
DA:159,0
DA:160,0
DA:159,0
DA:160,0
DA:174,0
DA:174,0
DA:174,0
DA:174,0
DA:174,0
end_of_record
SF:/home/pavle/Qt/6.6.1/gcc_64/include/QtCore/qstring.h
FN:178,_ZN7QStringC2EOS_
FNDA:0,_ZN7QStringC2EOS_
FN:180,_ZN7QStringaSEOS_
FNDA:0,_ZN7QStringaSEOS_
FN:181,_ZN7QString4swapERS_
FNDA:0,_ZN7QString4swapERS_
FN:182,_ZNK7QString4sizeEv
FNDA:0,_ZNK7QString4sizeEv
FN:214,_ZNK7QString5frontEv
FNDA:0,_ZNK7QString5frontEv
FN:368,_ZNKR7QString7toLowerEv
FNDA:0,_ZNKR7QString7toLowerEv
FN:380,_ZNKR7QString7trimmedEv
FNDA:0,_ZNKR7QString7trimmedEv
FN:382,_ZNO7QString7trimmedEv
FNDA:0,_ZNO7QString7trimmedEv
FN:407,_ZN7QString6appendE11QStringView
FNDA:0,_ZN7QString6appendE11QStringView
FN:463,_ZN7QStringpLERKS_
FNDA:0,_ZN7QStringpLERKS_
FN:464,_ZN7QStringpLE11QStringView
FNDA:0,_ZN7QStringpLE11QStringView
FN:466,_ZN7QStringpLE20QBasicUtf8StringViewILb0EE
FNDA:42,_ZN7QStringpLE20QBasicUtf8StringViewILb0EE
FN:563,_ZNKR7QString6toUtf8Ev
FNDA:0,_ZNKR7QString6toUtf8Ev
FN:588,_ZN7QString8fromUtf8IvEES_RK10QByteArray
FNDA:0,_ZN7QString8fromUtf8IvEES_RK10QByteArray
FN:660,_ZNK7QString5toIntEPbi
FNDA:0,_ZNK7QString5toIntEPbi
FN:694,_ZeqRK7QStringS1_
FNDA:0,_ZeqRK7QStringS1_
FN:696,_ZltRK7QStringS1_
FNDA:52,_ZltRK7QStringS1_
FN:749,_Zeq5QCharRK7QString
FNDA:0,_Zeq5QCharRK7QString
FN:760,_ZeqRK7QString5QChar
FNDA:0,_ZeqRK7QString5QChar
FN:782,_ZN7QStringC2EPKc
FNDA:0,_ZN7QStringC2EPKc
FN:785,_ZN7QStringC2ERK10QByteArray
FNDA:0,_ZN7QStringC2ERK10QByteArray
FN:788,_ZN7QStringaSEPKc
FNDA:0,_ZN7QStringaSEPKc
FN:806,_ZN7QStringpLEPKc
FNDA:0,_ZN7QStringpLEPKc
FN:898,_ZNK7QString6isNullEv
FNDA:0,_ZNK7QString6isNullEv
FN:970,_ZN7QString17toIntegral_helperIiEET_11QStringViewPbi
FNDA:0,_ZN7QString17toIntegral_helperIiEET_11QStringViewPbi
FN:1079,_ZNK7QString2atEx
FNDA:0,_ZNK7QString2atEx
FN:1085,_ZNK7QString4dataEv
FNDA:0,_ZNK7QString4dataEv
FN:1093,_ZN7QString4dataEv
FNDA:0,_ZN7QString4dataEv
FN:1099,_ZNK7QString9constDataEv
FNDA:0,_ZNK7QString9constDataEv
FN:1101,_ZN7QString6detachEv
FNDA:0,_ZN7QString6detachEv
FN:1107,_ZN7QStringC2ERKS_
FNDA:0,_ZN7QStringC2ERKS_
FN:1168,_ZN7QStringC2Ev
FNDA:0,_ZN7QStringC2Ev
FN:1169,_ZN7QStringD2Ev
FNDA:0,_ZN7QStringD2Ev
FN:1191,_ZN7QStringixEx
FNDA:0,_ZN7QStringixEx
FN:1195,_ZN7QString5beginEv
FNDA:0,_ZN7QString5beginEv
FN:1203,_ZN7QString3endEv
FNDA:0,_ZN7QString3endEv
FN:1221,_ZNK7QStringeqEPKc
FNDA:0,_ZNK7QStringeqEPKc
FN:1293,_ZplO7QStringRKS_
FNDA:0,_ZplO7QStringRKS_
FN:1302,_ZplRK7QStringPKc
FNDA:42,_ZplRK7QStringPKc
FN:1304,_ZplO7QStringPKc
FNDA:0,_ZplO7QStringPKc
FN:1306,_ZplPKcRK7QString
FNDA:0,_ZplPKcRK7QString
DA:178,0
DA:180,0
DA:181,0
DA:182,0
DA:214,0
DA:368,0
DA:369,0
DA:380,0
DA:381,0
DA:382,0
DA:383,0
DA:407,0
DA:463,0
DA:464,0
DA:466,42
DA:563,0
DA:564,0
DA:588,0
BRDA:588,0,0,-
BRDA:588,0,1,-
DA:660,0
DA:661,0
BRDA:661,0,0,-
BRDA:661,0,1,-
DA:694,0
DA:695,0
BRDA:695,0,0,-
BRDA:695,0,1,-
BRDA:695,0,2,-
BRDA:695,0,3,-
DA:696,52
DA:697,52
DA:749,0
DA:750,0
BRDA:750,0,0,-
BRDA:750,0,1,-
BRDA:750,0,2,-
BRDA:750,0,3,-
DA:760,0
DA:782,0
DA:783,0
BRDA:783,0,0,-
BRDA:783,0,1,-
DA:784,0
DA:785,0
DA:786,0
DA:787,0
DA:788,0
DA:789,0
BRDA:789,0,0,-
BRDA:789,0,1,-
DA:806,0
DA:807,0
BRDA:807,0,0,-
BRDA:807,0,1,-
DA:898,0
DA:970,0
DA:976,0
DA:977,0
BRDA:977,0,0,-
BRDA:977,0,1,-
DA:978,0
BRDA:978,0,0,-
BRDA:978,0,1,-
DA:979,0
DA:980,0
DA:982,0
DA:1079,0
DA:1080,0
BRDA:1080,0,0,-
BRDA:1080,0,1,-
DA:1085,0
DA:1088,0
BRDA:1088,0,0,-
BRDA:1088,0,1,-
DA:1093,0
DA:1095,0
DA:1096,0
BRDA:1096,0,0,-
BRDA:1096,0,1,-
DA:1097,0
DA:1099,0
DA:1100,0
DA:1101,0
DA:1102,0
BRDA:1102,0,0,-
BRDA:1102,0,1,-
DA:1107,0
DA:1108,0
DA:1168,0
DA:1169,0
DA:1191,0
DA:1192,0
BRDA:1192,0,0,-
BRDA:1192,0,1,-
BRDA:1192,0,2,-
BRDA:1192,0,3,-
DA:1195,0
DA:1196,0
DA:1203,0
DA:1204,0
DA:1221,0
DA:1222,0
DA:1293,0
DA:1294,0
DA:1302,42
DA:1303,42
BRDA:1303,0,0,42
BRDA:1303,0,1,0
DA:1304,0
DA:1305,0
DA:1306,0
DA:1307,0
BRDA:1307,0,0,-
BRDA:1307,0,1,-
BRDA:1307,0,2,-
BRDA:1307,0,3,-
end_of_record
SF:/usr/include/c++/11/bits/atomic_base.h
FN:104,_ZStanSt12memory_orderSt23__memory_order_modifier
FNDA:0,_ZStanSt12memory_orderSt23__memory_order_modifier
FN:345,_ZNSt13__atomic_baseIiEC2Ei
FNDA:0,_ZNSt13__atomic_baseIiEC2Ei
DA:104,0
DA:106,0
DA:345,0
DA:459,0
DA:464,0
DA:465,0
DA:484,0
DA:488,0
DA:618,0
DA:628,0
end_of_record
SF:/home/pavle/Qt/6.6.1/gcc_64/include/QtCore/qobjectdefs.h
FN:232,_ZNK11QMetaObject4castEP7QObject
FNDA:1,_ZNK11QMetaObject4castEP7QObject
DA:232,1
DA:233,1
end_of_record
SF:/home/pavle/Qt/6.6.1/gcc_64/include/QtCore/qdebug.h
FN:76,_ZN6QDebugC2ERKS_
FNDA:0,_ZN6QDebugC2ERKS_
FN:77,_ZN6QDebugC2EOS_
FNDA:0,_ZN6QDebugC2EOS_
FN:86,_ZN6QDebug7nospaceEv
FNDA:0,_ZN6QDebug7nospaceEv
FN:87,_ZN6QDebug10maybeSpaceEv
FNDA:0,_ZN6QDebug10maybeSpaceEv
FN:102,_ZN6QDebuglsEc
FNDA:0,_ZN6QDebuglsEc
FN:107,_ZN6QDebuglsEi
FNDA:0,_ZN6QDebuglsEi
FN:116,_ZN6QDebuglsEPKc
FNDA:0,_ZN6QDebuglsEPKc
FN:118,_ZN6QDebuglsERK7QString
FNDA:0,_ZN6QDebuglsERK7QString
FN:253,_ZN9QtPrivate24printSequentialContainerI5QListI7QStringEEE6QDebugS4_PKcRKT_
FNDA:0,_ZN9QtPrivate24printSequentialContainerI5QListI7QStringEEE6QDebugS4_PKcRKT_
FN:253,_ZN9QtPrivate24printSequentialContainerI5QListIiEEE6QDebugS3_PKcRKT_
FNDA:0,_ZN9QtPrivate24printSequentialContainerI5QListIiEEE6QDebugS3_PKcRKT_
FN:253,_ZN9QtPrivate24printSequentialContainerI5QListI4QMapI7QStringS3_EEEE6QDebugS6_PKcRKT_
FNDA:0,_ZN9QtPrivate24printSequentialContainerI5QListI4QMapI7QStringS3_EEEE6QDebugS6_PKcRKT_
FN:271,_ZN9QtPrivate25printAssociativeContainerI4QMapI7QStringS2_EEE6QDebugS4_PKcRKT_
FNDA:0,_ZN9QtPrivate25printAssociativeContainerI4QMapI7QStringS2_EEE6QDebugS4_PKcRKT_
FN:296,_ZlsI7QStringENSt9enable_ifIX13conjunction_vISt11disjunctionIJSt10is_base_ofI5QListIT_ES5_EN11QTypeTraits20has_ostream_operatorI6QDebugS5_vEEEEEESA_E4typeESA_RKS6_
FNDA:0,_ZlsI7QStringENSt9enable_ifIX13conjunction_vISt11disjunctionIJSt10is_base_ofI5QListIT_ES5_EN11QTypeTraits20has_ostream_operatorI6QDebugS5_vEEEEEESA_E4typeESA_RKS6_
FN:296,_ZlsIiENSt9enable_ifIX13conjunction_vISt11disjunctionIJSt10is_base_ofI5QListIT_ES4_EN11QTypeTraits20has_ostream_operatorI6QDebugS4_vEEEEEES9_E4typeES9_RKS5_
FNDA:0,_ZlsIiENSt9enable_ifIX13conjunction_vISt11disjunctionIJSt10is_base_ofI5QListIT_ES4_EN11QTypeTraits20has_ostream_operatorI6QDebugS4_vEEEEEES9_E4typeES9_RKS5_
FN:296,_ZlsI4QMapI7QStringS1_EENSt9enable_ifIX13conjunction_vISt11disjunctionIJSt10is_base_ofI5QListIT_ES7_EN11QTypeTraits20has_ostream_operatorI6QDebugS7_vEEEEEESC_E4typeESC_RKS8_
FNDA:0,_ZlsI4QMapI7QStringS1_EENSt9enable_ifIX13conjunction_vISt11disjunctionIJSt10is_base_ofI5QListIT_ES7_EN11QTypeTraits20has_ostream_operatorI6QDebugS7_vEEEEEESC_E4typeESC_RKS8_
FN:338,_ZlsI7QStringS0_ENSt9enable_ifIX13conjunction_vISt11disjunctionIJSt10is_base_ofI4QMapIT_T0_ES5_EN11QTypeTraits20has_ostream_operatorI6QDebugS5_vEEEES2_IJS3_IS7_S6_ENSA_ISB_S6_vEEEEEESB_E4typeESB_RKS7_
FNDA:0,_ZlsI7QStringS0_ENSt9enable_ifIX13conjunction_vISt11disjunctionIJSt10is_base_ofI4QMapIT_T0_ES5_EN11QTypeTraits20has_ostream_operatorI6QDebugS5_vEEEES2_IJS3_IS7_S6_ENSA_ISB_S6_vEEEEEESB_E4typeESB_RKS7_
DA:76,0
DA:77,0
DA:86,0
DA:87,0
BRDA:87,0,0,-
BRDA:87,0,1,-
DA:102,0
DA:107,0
DA:116,0
BRDA:116,0,0,-
BRDA:116,0,1,-
BRDA:116,0,2,-
BRDA:116,0,3,-
DA:118,0
DA:253,0
DA:255,0
BRDA:255,0,0,-
BRDA:255,0,1,-
DA:256,0
BRDA:256,0,0,-
BRDA:256,0,1,-
BRDA:256,0,2,-
BRDA:256,0,3,-
DA:257,0
DA:258,0
BRDA:258,0,0,-
BRDA:258,0,1,-
DA:259,0
BRDA:259,0,0,-
BRDA:259,0,1,-
DA:260,0
DA:262,0
BRDA:262,0,0,-
BRDA:262,0,1,-
DA:263,0
BRDA:263,0,0,-
BRDA:263,0,1,-
BRDA:263,0,2,-
BRDA:263,0,3,-
DA:264,0
DA:266,0
BRDA:266,0,0,-
BRDA:266,0,1,-
DA:267,0
DA:268,0
DA:253,0
DA:255,0
BRDA:255,0,0,-
BRDA:255,0,1,-
DA:256,0
BRDA:256,0,0,-
BRDA:256,0,1,-
BRDA:256,0,2,-
BRDA:256,0,3,-
DA:257,0
DA:258,0
BRDA:258,0,0,-
BRDA:258,0,1,-
DA:259,0
BRDA:259,0,0,-
BRDA:259,0,1,-
DA:260,0
DA:262,0
BRDA:262,0,0,-
BRDA:262,0,1,-
DA:263,0
BRDA:263,0,0,-
BRDA:263,0,1,-
BRDA:263,0,2,-
BRDA:263,0,3,-
DA:264,0
DA:266,0
BRDA:266,0,0,-
BRDA:266,0,1,-
DA:267,0
DA:268,0
DA:253,0
DA:255,0
BRDA:255,0,0,-
BRDA:255,0,1,-
DA:256,0
BRDA:256,0,0,-
BRDA:256,0,1,-
BRDA:256,0,2,-
BRDA:256,0,3,-
DA:257,0
DA:258,0
BRDA:258,0,0,-
BRDA:258,0,1,-
DA:259,0
BRDA:259,0,0,-
BRDA:259,0,1,-
DA:260,0
DA:262,0
BRDA:262,0,0,-
BRDA:262,0,1,-
DA:263,0
BRDA:263,0,0,-
BRDA:263,0,1,-
BRDA:263,0,2,-
BRDA:263,0,3,-
DA:264,0
DA:266,0
BRDA:266,0,0,-
BRDA:266,0,1,-
DA:267,0
DA:268,0
DA:271,0
DA:273,0
BRDA:273,0,0,-
BRDA:273,0,1,-
DA:274,0
BRDA:274,0,0,-
BRDA:274,0,1,-
BRDA:274,0,2,-
BRDA:274,0,3,-
DA:275,0
BRDA:275,0,0,-
BRDA:275,0,1,-
DA:276,0
BRDA:276,0,0,-
BRDA:276,0,1,-
BRDA:276,0,2,-
BRDA:276,0,3,-
DA:277,0
BRDA:277,0,0,-
BRDA:277,0,1,-
BRDA:277,0,2,-
BRDA:277,0,3,-
BRDA:277,0,4,-
BRDA:277,0,5,-
BRDA:277,0,6,-
BRDA:277,0,7,-
BRDA:277,0,8,-
BRDA:277,0,9,-
DA:279,0
BRDA:279,0,0,-
BRDA:279,0,1,-
DA:280,0
DA:281,0
DA:296,0
DA:298,0
BRDA:298,0,0,-
BRDA:298,0,1,-
DA:296,0
DA:298,0
BRDA:298,0,0,-
BRDA:298,0,1,-
DA:296,0
DA:298,0
BRDA:298,0,0,-
BRDA:298,0,1,-
DA:338,0
DA:340,0
BRDA:340,0,0,-
BRDA:340,0,1,-
end_of_record
SF:/home/pavle/Qt/6.6.1/gcc_64/include/QtCore/qarraydataops.h
FN:54,_ZN9QtPrivate12QPodArrayOpsIP9GameModelE10copyAppendEPKS2_S5_
FNDA:0,_ZN9QtPrivate12QPodArrayOpsIP9GameModelE10copyAppendEPKS2_S5_
FN:54,_ZN9QtPrivate12QPodArrayOpsIbE10copyAppendEPKbS3_
FNDA:2592,_ZN9QtPrivate12QPodArrayOpsIbE10copyAppendEPKbS3_
FN:54,_ZN9QtPrivate12QPodArrayOpsI5QCharE10copyAppendEPKS1_S4_
FNDA:0,_ZN9QtPrivate12QPodArrayOpsI5QCharE10copyAppendEPKS1_S4_
FN:54,_ZN9QtPrivate12QPodArrayOpsIiE10copyAppendEPKiS3_
FNDA:0,_ZN9QtPrivate12QPodArrayOpsIiE10copyAppendEPKiS3_
FN:81,_ZN9QtPrivate12QPodArrayOpsI5QCharE10moveAppendEPS1_S3_
FNDA:0,_ZN9QtPrivate12QPodArrayOpsI5QCharE10moveAppendEPS1_S3_
FN:81,_ZN9QtPrivate12QPodArrayOpsIP9GameModelE10moveAppendEPS2_S4_
FNDA:0,_ZN9QtPrivate12QPodArrayOpsIP9GameModelE10moveAppendEPS2_S4_
FN:81,_ZN9QtPrivate12QPodArrayOpsIiE10moveAppendEPiS2_
FNDA:0,_ZN9QtPrivate12QPodArrayOpsIiE10moveAppendEPiS2_
FN:81,_ZN9QtPrivate12QPodArrayOpsIbE10moveAppendEPbS2_
FNDA:0,_ZN9QtPrivate12QPodArrayOpsIbE10moveAppendEPbS2_
FN:95,_ZN9QtPrivate12QPodArrayOpsIP9GameModelE10destroyAllEv
FNDA:0,_ZN9QtPrivate12QPodArrayOpsIP9GameModelE10destroyAllEv
FN:95,_ZN9QtPrivate12QPodArrayOpsIbE10destroyAllEv
FNDA:2592,_ZN9QtPrivate12QPodArrayOpsIbE10destroyAllEv
FN:95,_ZN9QtPrivate12QPodArrayOpsIiE10destroyAllEv
FNDA:0,_ZN9QtPrivate12QPodArrayOpsIiE10destroyAllEv
FN:95,_ZN9QtPrivate12QPodArrayOpsI5QCharE10destroyAllEv
FNDA:0,_ZN9QtPrivate12QPodArrayOpsI5QCharE10destroyAllEv
FN:95,_ZN9QtPrivate12QPodArrayOpsIDsE10destroyAllEv
FNDA:0,_ZN9QtPrivate12QPodArrayOpsIDsE10destroyAllEv
FN:95,_ZN9QtPrivate12QPodArrayOpsIcE10destroyAllEv
FNDA:0,_ZN9QtPrivate12QPodArrayOpsIcE10destroyAllEv
FN:104,_ZN9QtPrivate12QPodArrayOpsIP9GameModelE10createHoleEN10QArrayData14GrowthPositionExx
FNDA:0,_ZN9QtPrivate12QPodArrayOpsIP9GameModelE10createHoleEN10QArrayData14GrowthPositionExx
FN:104,_ZN9QtPrivate12QPodArrayOpsI5QCharE10createHoleEN10QArrayData14GrowthPositionExx
FNDA:0,_ZN9QtPrivate12QPodArrayOpsI5QCharE10createHoleEN10QArrayData14GrowthPositionExx
FN:104,_ZN9QtPrivate12QPodArrayOpsIiE10createHoleEN10QArrayData14GrowthPositionExx
FNDA:0,_ZN9QtPrivate12QPodArrayOpsIiE10createHoleEN10QArrayData14GrowthPositionExx
FN:155,_ZN9QtPrivate12QPodArrayOpsIP9GameModelE7emplaceIJRS2_EEEvxDpOT_
FNDA:0,_ZN9QtPrivate12QPodArrayOpsIP9GameModelE7emplaceIJRS2_EEEvxDpOT_
FN:155,_ZN9QtPrivate12QPodArrayOpsI5QCharE7emplaceIJRKS1_EEEvxDpOT_
FNDA:0,_ZN9QtPrivate12QPodArrayOpsI5QCharE7emplaceIJRKS1_EEEvxDpOT_
FN:155,_ZN9QtPrivate12QPodArrayOpsIiE7emplaceIJRiEEEvxDpOT_
FNDA:0,_ZN9QtPrivate12QPodArrayOpsIiE7emplaceIJRiEEEvxDpOT_
FN:293,_ZN9QtPrivate12QPodArrayOpsIbE10reallocateExN10QArrayData16AllocationOptionE
FNDA:0,_ZN9QtPrivate12QPodArrayOpsIbE10reallocateExN10QArrayData16AllocationOptionE
FN:293,_ZN9QtPrivate12QPodArrayOpsI5QCharE10reallocateExN10QArrayData16AllocationOptionE
FNDA:0,_ZN9QtPrivate12QPodArrayOpsI5QCharE10reallocateExN10QArrayData16AllocationOptionE
FN:293,_ZN9QtPrivate12QPodArrayOpsIP9GameModelE10reallocateExN10QArrayData16AllocationOptionE
FNDA:0,_ZN9QtPrivate12QPodArrayOpsIP9GameModelE10reallocateExN10QArrayData16AllocationOptionE
FN:293,_ZN9QtPrivate12QPodArrayOpsIiE10reallocateExN10QArrayData16AllocationOptionE
FNDA:0,_ZN9QtPrivate12QPodArrayOpsIiE10reallocateExN10QArrayData16AllocationOptionE
FN:329,_ZN9QtPrivate16QGenericArrayOpsI7QStringE10copyAppendEPKS1_S4_
FNDA:0,_ZN9QtPrivate16QGenericArrayOpsI7QStringE10copyAppendEPKS1_S4_
FN:329,_ZN9QtPrivate16QGenericArrayOpsI4QMapI5QChar7QStringEE10copyAppendEPKS4_S7_
FNDA:0,_ZN9QtPrivate16QGenericArrayOpsI4QMapI5QChar7QStringEE10copyAppendEPKS4_S7_
FN:329,_ZN9QtPrivate16QGenericArrayOpsI5QListIiEE10copyAppendEPKS2_S5_
FNDA:0,_ZN9QtPrivate16QGenericArrayOpsI5QListIiEE10copyAppendEPKS2_S5_
FN:329,_ZN9QtPrivate16QGenericArrayOpsI4QMapI7QStringS2_EE10copyAppendEPKS3_S6_
FNDA:0,_ZN9QtPrivate16QGenericArrayOpsI4QMapI7QStringS2_EE10copyAppendEPKS3_S6_
FN:329,_ZN9QtPrivate16QGenericArrayOpsI4QMapI5QChariEE10copyAppendEPKS3_S6_
FNDA:0,_ZN9QtPrivate16QGenericArrayOpsI4QMapI5QChariEE10copyAppendEPKS3_S6_
FN:329,_ZN9QtPrivate16QGenericArrayOpsI4QMapI5QChar5QListI7QStringEEE10copyAppendEPKS6_S9_
FNDA:0,_ZN9QtPrivate16QGenericArrayOpsI4QMapI5QChar5QListI7QStringEEE10copyAppendEPKS6_S9_
FN:361,_ZN9QtPrivate16QGenericArrayOpsI4QMapI5QChariEE10moveAppendEPS3_S5_
FNDA:0,_ZN9QtPrivate16QGenericArrayOpsI4QMapI5QChariEE10moveAppendEPS3_S5_
FN:361,_ZN9QtPrivate16QGenericArrayOpsI7QStringE10moveAppendEPS1_S3_
FNDA:0,_ZN9QtPrivate16QGenericArrayOpsI7QStringE10moveAppendEPS1_S3_
FN:361,_ZN9QtPrivate16QGenericArrayOpsI4QMapI5QChar5QListI7QStringEEE10moveAppendEPS6_S8_
FNDA:0,_ZN9QtPrivate16QGenericArrayOpsI4QMapI5QChar5QListI7QStringEEE10moveAppendEPS6_S8_
FN:361,_ZN9QtPrivate16QGenericArrayOpsI4QMapI7QStringS2_EE10moveAppendEPS3_S5_
FNDA:0,_ZN9QtPrivate16QGenericArrayOpsI4QMapI7QStringS2_EE10moveAppendEPS3_S5_
FN:361,_ZN9QtPrivate16QGenericArrayOpsI5QListIiEE10moveAppendEPS2_S4_
FNDA:0,_ZN9QtPrivate16QGenericArrayOpsI5QListIiEE10moveAppendEPS2_S4_
FN:361,_ZN9QtPrivate16QGenericArrayOpsI4QMapI5QChar7QStringEE10moveAppendEPS4_S6_
FNDA:0,_ZN9QtPrivate16QGenericArrayOpsI4QMapI5QChar7QStringEE10moveAppendEPS4_S6_
FN:389,_ZN9QtPrivate16QGenericArrayOpsI5QListIiEE10destroyAllEv
FNDA:0,_ZN9QtPrivate16QGenericArrayOpsI5QListIiEE10destroyAllEv
FN:389,_ZN9QtPrivate16QGenericArrayOpsI7QStringE10destroyAllEv
FNDA:0,_ZN9QtPrivate16QGenericArrayOpsI7QStringE10destroyAllEv
FN:389,_ZN9QtPrivate16QGenericArrayOpsI4QMapI5QChar5QListI7QStringEEE10destroyAllEv
FNDA:0,_ZN9QtPrivate16QGenericArrayOpsI4QMapI5QChar5QListI7QStringEEE10destroyAllEv
FN:389,_ZN9QtPrivate16QGenericArrayOpsI4QMapI5QChar7QStringEE10destroyAllEv
FNDA:0,_ZN9QtPrivate16QGenericArrayOpsI4QMapI5QChar7QStringEE10destroyAllEv
FN:389,_ZN9QtPrivate16QGenericArrayOpsI4QMapI5QChariEE10destroyAllEv
FNDA:0,_ZN9QtPrivate16QGenericArrayOpsI4QMapI5QChariEE10destroyAllEv
FN:389,_ZN9QtPrivate16QGenericArrayOpsI4QMapI7QStringS2_EE10destroyAllEv
FNDA:0,_ZN9QtPrivate16QGenericArrayOpsI4QMapI7QStringS2_EE10destroyAllEv
FN:704,_ZN9QtPrivate16QMovableArrayOpsI7QStringE8InserterC2EP17QArrayDataPointerIS1_E
FNDA:1,_ZN9QtPrivate16QMovableArrayOpsI7QStringE8InserterC2EP17QArrayDataPointerIS1_E
FN:704,_ZN9QtPrivate16QMovableArrayOpsI4QMapI7QStringS2_EE8InserterC2EP17QArrayDataPointerIS3_E
FNDA:0,_ZN9QtPrivate16QMovableArrayOpsI4QMapI7QStringS2_EE8InserterC2EP17QArrayDataPointerIS3_E
FN:704,_ZN9QtPrivate16QMovableArrayOpsI4QMapI5QChar5QListI7QStringEEE8InserterC2EP17QArrayDataPointerIS6_E
FNDA:0,_ZN9QtPrivate16QMovableArrayOpsI4QMapI5QChar5QListI7QStringEEE8InserterC2EP17QArrayDataPointerIS6_E
FN:704,_ZN9QtPrivate16QMovableArrayOpsI4QMapI5QChar7QStringEE8InserterC2EP17QArrayDataPointerIS4_E
FNDA:0,_ZN9QtPrivate16QMovableArrayOpsI4QMapI5QChar7QStringEE8InserterC2EP17QArrayDataPointerIS4_E
FN:704,_ZN9QtPrivate16QMovableArrayOpsI4QMapI5QChariEE8InserterC2EP17QArrayDataPointerIS3_E
FNDA:0,_ZN9QtPrivate16QMovableArrayOpsI4QMapI5QChariEE8InserterC2EP17QArrayDataPointerIS3_E
FN:704,_ZN9QtPrivate16QMovableArrayOpsI5QListIiEE8InserterC2EP17QArrayDataPointerIS2_E
FNDA:1,_ZN9QtPrivate16QMovableArrayOpsI5QListIiEE8InserterC2EP17QArrayDataPointerIS2_E
FN:705,_ZN9QtPrivate16QMovableArrayOpsI5QListIiEE8InserterD2Ev
FNDA:1,_ZN9QtPrivate16QMovableArrayOpsI5QListIiEE8InserterD2Ev
FN:705,_ZN9QtPrivate16QMovableArrayOpsI4QMapI5QChariEE8InserterD2Ev
FNDA:0,_ZN9QtPrivate16QMovableArrayOpsI4QMapI5QChariEE8InserterD2Ev
FN:705,_ZN9QtPrivate16QMovableArrayOpsI7QStringE8InserterD2Ev
FNDA:1,_ZN9QtPrivate16QMovableArrayOpsI7QStringE8InserterD2Ev
FN:705,_ZN9QtPrivate16QMovableArrayOpsI4QMapI7QStringS2_EE8InserterD2Ev
FNDA:0,_ZN9QtPrivate16QMovableArrayOpsI4QMapI7QStringS2_EE8InserterD2Ev
FN:705,_ZN9QtPrivate16QMovableArrayOpsI4QMapI5QChar7QStringEE8InserterD2Ev
FNDA:0,_ZN9QtPrivate16QMovableArrayOpsI4QMapI5QChar7QStringEE8InserterD2Ev
FN:705,_ZN9QtPrivate16QMovableArrayOpsI4QMapI5QChar5QListI7QStringEEE8InserterD2Ev
FNDA:0,_ZN9QtPrivate16QMovableArrayOpsI4QMapI5QChar5QListI7QStringEEE8InserterD2Ev
FN:716,_ZN9QtPrivate16QMovableArrayOpsI4QMapI5QChar7QStringEE8Inserter8displaceExx
FNDA:0,_ZN9QtPrivate16QMovableArrayOpsI4QMapI5QChar7QStringEE8Inserter8displaceExx
FN:716,_ZN9QtPrivate16QMovableArrayOpsI4QMapI5QChar5QListI7QStringEEE8Inserter8displaceExx
FNDA:0,_ZN9QtPrivate16QMovableArrayOpsI4QMapI5QChar5QListI7QStringEEE8Inserter8displaceExx
FN:716,_ZN9QtPrivate16QMovableArrayOpsI5QListIiEE8Inserter8displaceExx
FNDA:1,_ZN9QtPrivate16QMovableArrayOpsI5QListIiEE8Inserter8displaceExx
FN:716,_ZN9QtPrivate16QMovableArrayOpsI4QMapI7QStringS2_EE8Inserter8displaceExx
FNDA:0,_ZN9QtPrivate16QMovableArrayOpsI4QMapI7QStringS2_EE8Inserter8displaceExx
FN:716,_ZN9QtPrivate16QMovableArrayOpsI7QStringE8Inserter8displaceExx
FNDA:1,_ZN9QtPrivate16QMovableArrayOpsI7QStringE8Inserter8displaceExx
FN:716,_ZN9QtPrivate16QMovableArrayOpsI4QMapI5QChariEE8Inserter8displaceExx
FNDA:0,_ZN9QtPrivate16QMovableArrayOpsI4QMapI5QChariEE8Inserter8displaceExx
FN:751,_ZN9QtPrivate16QMovableArrayOpsI4QMapI5QChariEE8Inserter9insertOneExOS3_
FNDA:0,_ZN9QtPrivate16QMovableArrayOpsI4QMapI5QChariEE8Inserter9insertOneExOS3_
FN:751,_ZN9QtPrivate16QMovableArrayOpsI5QListIiEE8Inserter9insertOneExOS2_
FNDA:1,_ZN9QtPrivate16QMovableArrayOpsI5QListIiEE8Inserter9insertOneExOS2_
FN:751,_ZN9QtPrivate16QMovableArrayOpsI4QMapI5QChar5QListI7QStringEEE8Inserter9insertOneExOS6_
FNDA:0,_ZN9QtPrivate16QMovableArrayOpsI4QMapI5QChar5QListI7QStringEEE8Inserter9insertOneExOS6_
FN:751,_ZN9QtPrivate16QMovableArrayOpsI4QMapI7QStringS2_EE8Inserter9insertOneExOS3_
FNDA:0,_ZN9QtPrivate16QMovableArrayOpsI4QMapI7QStringS2_EE8Inserter9insertOneExOS3_
FN:751,_ZN9QtPrivate16QMovableArrayOpsI4QMapI5QChar7QStringEE8Inserter9insertOneExOS4_
FNDA:0,_ZN9QtPrivate16QMovableArrayOpsI4QMapI5QChar7QStringEE8Inserter9insertOneExOS4_
FN:751,_ZN9QtPrivate16QMovableArrayOpsI7QStringE8Inserter9insertOneExOS1_
FNDA:1,_ZN9QtPrivate16QMovableArrayOpsI7QStringE8Inserter9insertOneExOS1_
FN:811,_ZN9QtPrivate16QMovableArrayOpsI4QMapI5QChariEE7emplaceIJRKS3_EEEvxDpOT_
FNDA:0,_ZN9QtPrivate16QMovableArrayOpsI4QMapI5QChariEE7emplaceIJRKS3_EEEvxDpOT_
FN:811,_ZN9QtPrivate16QMovableArrayOpsI7QStringE7emplaceIJS1_EEEvxDpOT_
FNDA:0,_ZN9QtPrivate16QMovableArrayOpsI7QStringE7emplaceIJS1_EEEvxDpOT_
FN:811,_ZN9QtPrivate16QMovableArrayOpsI5QListIiEE7emplaceIJRKS2_EEEvxDpOT_
FNDA:2,_ZN9QtPrivate16QMovableArrayOpsI5QListIiEE7emplaceIJRKS2_EEEvxDpOT_
FN:811,_ZN9QtPrivate16QMovableArrayOpsI4QMapI5QChar7QStringEE7emplaceIJRKS4_EEEvxDpOT_
FNDA:0,_ZN9QtPrivate16QMovableArrayOpsI4QMapI5QChar7QStringEE7emplaceIJRKS4_EEEvxDpOT_
FN:811,_ZN9QtPrivate16QMovableArrayOpsI4QMapI5QChar5QListI7QStringEEE7emplaceIJRKS6_EEEvxDpOT_
FNDA:0,_ZN9QtPrivate16QMovableArrayOpsI4QMapI5QChar5QListI7QStringEEE7emplaceIJRKS6_EEEvxDpOT_
FN:811,_ZN9QtPrivate16QMovableArrayOpsI4QMapI7QStringS2_EE7emplaceIJRKS3_EEEvxDpOT_
FNDA:0,_ZN9QtPrivate16QMovableArrayOpsI4QMapI7QStringS2_EE7emplaceIJRKS3_EEEvxDpOT_
FN:811,_ZN9QtPrivate16QMovableArrayOpsI7QStringE7emplaceIJRKS1_EEEvxDpOT_
FNDA:2,_ZN9QtPrivate16QMovableArrayOpsI7QStringE7emplaceIJRKS1_EEEvxDpOT_
FN:865,_ZN9QtPrivate16QMovableArrayOpsI5QListIiEE10reallocateExN10QArrayData16AllocationOptionE
FNDA:0,_ZN9QtPrivate16QMovableArrayOpsI5QListIiEE10reallocateExN10QArrayData16AllocationOptionE
FN:865,_ZN9QtPrivate16QMovableArrayOpsI7QStringE10reallocateExN10QArrayData16AllocationOptionE
FNDA:0,_ZN9QtPrivate16QMovableArrayOpsI7QStringE10reallocateExN10QArrayData16AllocationOptionE
FN:865,_ZN9QtPrivate16QMovableArrayOpsI4QMapI5QChar7QStringEE10reallocateExN10QArrayData16AllocationOptionE
FNDA:0,_ZN9QtPrivate16QMovableArrayOpsI4QMapI5QChar7QStringEE10reallocateExN10QArrayData16AllocationOptionE
FN:865,_ZN9QtPrivate16QMovableArrayOpsI4QMapI5QChariEE10reallocateExN10QArrayData16AllocationOptionE
FNDA:0,_ZN9QtPrivate16QMovableArrayOpsI4QMapI5QChariEE10reallocateExN10QArrayData16AllocationOptionE
FN:865,_ZN9QtPrivate16QMovableArrayOpsI4QMapI5QChar5QListI7QStringEEE10reallocateExN10QArrayData16AllocationOptionE
FNDA:0,_ZN9QtPrivate16QMovableArrayOpsI4QMapI5QChar5QListI7QStringEEE10reallocateExN10QArrayData16AllocationOptionE
FN:865,_ZN9QtPrivate16QMovableArrayOpsI4QMapI7QStringS2_EE10reallocateExN10QArrayData16AllocationOptionE
FNDA:0,_ZN9QtPrivate16QMovableArrayOpsI4QMapI7QStringS2_EE10reallocateExN10QArrayData16AllocationOptionE
FN:946,_ZN9QtPrivate15QCommonArrayOpsI7QStringE10growAppendEPKS1_S4_
FNDA:0,_ZN9QtPrivate15QCommonArrayOpsI7QStringE10growAppendEPKS1_S4_
DA:54,0
DA:56,0
BRDA:56,0,0,-
BRDA:56,0,1,-
BRDA:56,0,2,-
BRDA:56,0,3,-
DA:57,0
BRDA:57,0,0,-
BRDA:57,0,1,-
BRDA:57,0,2,-
BRDA:57,0,3,-
DA:58,0
BRDA:58,0,0,-
BRDA:58,0,1,-
DA:59,0
BRDA:59,0,0,-
BRDA:59,0,1,-
DA:61,0
BRDA:61,0,0,-
BRDA:61,0,1,-
DA:62,0
DA:64,0
DA:65,0
DA:54,2592
DA:56,2592
BRDA:56,0,0,0
BRDA:56,0,1,2592
BRDA:56,0,2,0
BRDA:56,0,3,0
DA:57,2592
BRDA:57,0,0,0
BRDA:57,0,1,2592
BRDA:57,0,2,0
BRDA:57,0,3,0
DA:58,2592
BRDA:58,0,0,0
BRDA:58,0,1,2592
DA:59,2592
BRDA:59,0,0,0
BRDA:59,0,1,2592
DA:61,2592
BRDA:61,0,0,0
BRDA:61,0,1,2592
DA:62,0
DA:64,2592
DA:65,2592
DA:54,0
DA:56,0
BRDA:56,0,0,-
BRDA:56,0,1,-
BRDA:56,0,2,-
BRDA:56,0,3,-
DA:57,0
BRDA:57,0,0,-
BRDA:57,0,1,-
BRDA:57,0,2,-
BRDA:57,0,3,-
DA:58,0
BRDA:58,0,0,-
BRDA:58,0,1,-
DA:59,0
BRDA:59,0,0,-
BRDA:59,0,1,-
DA:61,0
BRDA:61,0,0,-
BRDA:61,0,1,-
DA:62,0
DA:64,0
DA:65,0
DA:54,0
DA:56,0
BRDA:56,0,0,-
BRDA:56,0,1,-
BRDA:56,0,2,-
BRDA:56,0,3,-
DA:57,0
BRDA:57,0,0,-
BRDA:57,0,1,-
BRDA:57,0,2,-
BRDA:57,0,3,-
DA:58,0
BRDA:58,0,0,-
BRDA:58,0,1,-
DA:59,0
BRDA:59,0,0,-
BRDA:59,0,1,-
DA:61,0
BRDA:61,0,0,-
BRDA:61,0,1,-
DA:62,0
DA:64,0
DA:65,0
DA:81,0
DA:83,0
DA:84,0
DA:81,0
DA:83,0
DA:84,0
DA:81,0
DA:83,0
DA:84,0
DA:81,0
DA:83,0
DA:84,0
DA:95,2592
DA:97,2592
BRDA:97,0,0,0
BRDA:97,0,1,2592
DA:98,2592
BRDA:98,0,0,0
BRDA:98,0,1,2592
DA:102,2592
DA:95,0
DA:97,0
BRDA:97,0,0,-
BRDA:97,0,1,-
DA:98,0
BRDA:98,0,0,-
BRDA:98,0,1,-
DA:102,0
DA:95,0
DA:97,0
BRDA:97,0,0,-
BRDA:97,0,1,-
DA:98,0
BRDA:98,0,0,-
BRDA:98,0,1,-
DA:102,0
DA:95,0
DA:97,0
BRDA:97,0,0,-
BRDA:97,0,1,-
DA:98,0
BRDA:98,0,0,-
BRDA:98,0,1,-
DA:102,0
DA:95,0
DA:97,0
BRDA:97,0,0,-
BRDA:97,0,1,-
DA:98,0
BRDA:98,0,0,-
BRDA:98,0,1,-
DA:102,0
DA:95,0
DA:97,0
BRDA:97,0,0,-
BRDA:97,0,1,-
DA:98,0
BRDA:98,0,0,-
BRDA:98,0,1,-
DA:102,0
DA:104,0
DA:106,0
BRDA:106,0,0,-
BRDA:106,0,1,-
BRDA:106,0,2,-
BRDA:106,0,3,-
BRDA:106,0,4,-
BRDA:106,0,5,-
BRDA:106,0,6,-
BRDA:106,0,7,-
DA:109,0
DA:110,0
BRDA:110,0,0,-
BRDA:110,0,1,-
DA:111,0
BRDA:111,0,0,-
BRDA:111,0,1,-
DA:112,0
DA:114,0
BRDA:114,0,0,-
BRDA:114,0,1,-
DA:115,0
DA:116,0
DA:118,0
DA:119,0
DA:104,0
DA:106,0
BRDA:106,0,0,-
BRDA:106,0,1,-
BRDA:106,0,2,-
BRDA:106,0,3,-
BRDA:106,0,4,-
BRDA:106,0,5,-
BRDA:106,0,6,-
BRDA:106,0,7,-
DA:109,0
DA:110,0
BRDA:110,0,0,-
BRDA:110,0,1,-
DA:111,0
BRDA:111,0,0,-
BRDA:111,0,1,-
DA:112,0
DA:114,0
BRDA:114,0,0,-
BRDA:114,0,1,-
DA:115,0
DA:116,0
DA:118,0
DA:119,0
DA:104,0
DA:106,0
BRDA:106,0,0,-
BRDA:106,0,1,-
BRDA:106,0,2,-
BRDA:106,0,3,-
BRDA:106,0,4,-
BRDA:106,0,5,-
BRDA:106,0,6,-
BRDA:106,0,7,-
DA:109,0
DA:110,0
BRDA:110,0,0,-
BRDA:110,0,1,-
DA:111,0
BRDA:111,0,0,-
BRDA:111,0,1,-
DA:112,0
DA:114,0
BRDA:114,0,0,-
BRDA:114,0,1,-
DA:115,0
DA:116,0
DA:118,0
DA:119,0
DA:155,0
DA:157,0
DA:158,0
BRDA:158,0,0,-
BRDA:158,0,1,-
DA:159,0
BRDA:159,0,0,-
BRDA:159,0,1,-
BRDA:159,0,2,-
BRDA:159,0,3,-
BRDA:159,0,4,-
BRDA:159,0,5,-
DA:160,0
DA:161,0
DA:162,0
DA:164,0
BRDA:164,0,0,-
BRDA:164,0,1,-
BRDA:164,0,2,-
BRDA:164,0,3,-
BRDA:164,0,4,-
BRDA:164,0,5,-
DA:165,0
DA:166,0
DA:167,0
DA:168,0
DA:171,0
DA:172,0
DA:173,0
BRDA:173,0,0,-
BRDA:173,0,1,-
BRDA:173,0,2,-
BRDA:173,0,3,-
DA:174,0
DA:176,0
BRDA:176,0,0,-
BRDA:176,0,1,-
DA:178,0
DA:179,0
DA:155,0
DA:157,0
DA:158,0
BRDA:158,0,0,-
BRDA:158,0,1,-
DA:159,0
BRDA:159,0,0,-
BRDA:159,0,1,-
BRDA:159,0,2,-
BRDA:159,0,3,-
BRDA:159,0,4,-
BRDA:159,0,5,-
DA:160,0
DA:161,0
DA:162,0
DA:164,0
BRDA:164,0,0,-
BRDA:164,0,1,-
BRDA:164,0,2,-
BRDA:164,0,3,-
BRDA:164,0,4,-
BRDA:164,0,5,-
DA:165,0
DA:166,0
DA:167,0
DA:168,0
DA:171,0
DA:172,0
DA:173,0
BRDA:173,0,0,-
BRDA:173,0,1,-
BRDA:173,0,2,-
BRDA:173,0,3,-
DA:174,0
DA:176,0
BRDA:176,0,0,-
BRDA:176,0,1,-
DA:178,0
DA:179,0
DA:155,0
DA:157,0
DA:158,0
BRDA:158,0,0,-
BRDA:158,0,1,-
DA:159,0
BRDA:159,0,0,-
BRDA:159,0,1,-
BRDA:159,0,2,-
BRDA:159,0,3,-
BRDA:159,0,4,-
BRDA:159,0,5,-
DA:160,0
DA:161,0
DA:162,0
DA:164,0
BRDA:164,0,0,-
BRDA:164,0,1,-
BRDA:164,0,2,-
BRDA:164,0,3,-
BRDA:164,0,4,-
BRDA:164,0,5,-
DA:165,0
DA:166,0
DA:167,0
DA:168,0
DA:171,0
DA:172,0
DA:173,0
BRDA:173,0,0,-
BRDA:173,0,1,-
BRDA:173,0,2,-
BRDA:173,0,3,-
DA:174,0
DA:176,0
BRDA:176,0,0,-
BRDA:176,0,1,-
DA:178,0
DA:179,0
DA:293,0
DA:295,0
BRDA:295,0,0,-
BRDA:295,0,1,-
DA:296,0
BRDA:296,0,0,-
BRDA:296,0,1,-
DA:297,0
BRDA:297,0,0,-
BRDA:297,0,1,-
DA:298,0
DA:299,0
DA:300,0
DA:293,0
DA:295,0
BRDA:295,0,0,-
BRDA:295,0,1,-
DA:296,0
BRDA:296,0,0,-
BRDA:296,0,1,-
DA:297,0
BRDA:297,0,0,-
BRDA:297,0,1,-
DA:298,0
DA:299,0
DA:300,0
DA:293,0
DA:295,0
BRDA:295,0,0,-
BRDA:295,0,1,-
DA:296,0
BRDA:296,0,0,-
BRDA:296,0,1,-
DA:297,0
BRDA:297,0,0,-
BRDA:297,0,1,-
DA:298,0
DA:299,0
DA:300,0
DA:293,0
DA:295,0
BRDA:295,0,0,-
BRDA:295,0,1,-
DA:296,0
BRDA:296,0,0,-
BRDA:296,0,1,-
DA:297,0
BRDA:297,0,0,-
BRDA:297,0,1,-
DA:298,0
DA:299,0
DA:300,0
DA:329,0
DA:331,0
BRDA:331,0,0,-
BRDA:331,0,1,-
BRDA:331,0,2,-
BRDA:331,0,3,-
DA:332,0
BRDA:332,0,0,-
BRDA:332,0,1,-
BRDA:332,0,2,-
BRDA:332,0,3,-
DA:333,0
BRDA:333,0,0,-
BRDA:333,0,1,-
DA:334,0
BRDA:334,0,0,-
BRDA:334,0,1,-
DA:336,0
BRDA:336,0,0,-
BRDA:336,0,1,-
DA:337,0
DA:339,0
DA:340,0
BRDA:340,0,0,-
BRDA:340,0,1,-
DA:341,0
DA:342,0
DA:343,0
DA:329,0
DA:331,0
BRDA:331,0,0,-
BRDA:331,0,1,-
BRDA:331,0,2,-
BRDA:331,0,3,-
DA:332,0
BRDA:332,0,0,-
BRDA:332,0,1,-
BRDA:332,0,2,-
BRDA:332,0,3,-
DA:333,0
BRDA:333,0,0,-
BRDA:333,0,1,-
DA:334,0
BRDA:334,0,0,-
BRDA:334,0,1,-
DA:336,0
BRDA:336,0,0,-
BRDA:336,0,1,-
DA:337,0
DA:339,0
DA:340,0
BRDA:340,0,0,-
BRDA:340,0,1,-
DA:341,0
DA:342,0
DA:343,0
DA:329,0
DA:331,0
BRDA:331,0,0,-
BRDA:331,0,1,-
BRDA:331,0,2,-
BRDA:331,0,3,-
DA:332,0
BRDA:332,0,0,-
BRDA:332,0,1,-
BRDA:332,0,2,-
BRDA:332,0,3,-
DA:333,0
BRDA:333,0,0,-
BRDA:333,0,1,-
DA:334,0
BRDA:334,0,0,-
BRDA:334,0,1,-
DA:336,0
BRDA:336,0,0,-
BRDA:336,0,1,-
DA:337,0
DA:339,0
DA:340,0
BRDA:340,0,0,-
BRDA:340,0,1,-
DA:341,0
DA:342,0
DA:343,0
DA:329,0
DA:331,0
BRDA:331,0,0,-
BRDA:331,0,1,-
BRDA:331,0,2,-
BRDA:331,0,3,-
DA:332,0
BRDA:332,0,0,-
BRDA:332,0,1,-
BRDA:332,0,2,-
BRDA:332,0,3,-
DA:333,0
BRDA:333,0,0,-
BRDA:333,0,1,-
DA:334,0
BRDA:334,0,0,-
BRDA:334,0,1,-
DA:336,0
BRDA:336,0,0,-
BRDA:336,0,1,-
DA:337,0
DA:339,0
DA:340,0
BRDA:340,0,0,-
BRDA:340,0,1,-
DA:341,0
DA:342,0
DA:343,0
DA:329,0
DA:331,0
BRDA:331,0,0,-
BRDA:331,0,1,-
BRDA:331,0,2,-
BRDA:331,0,3,-
DA:332,0
BRDA:332,0,0,-
BRDA:332,0,1,-
BRDA:332,0,2,-
BRDA:332,0,3,-
DA:333,0
BRDA:333,0,0,-
BRDA:333,0,1,-
DA:334,0
BRDA:334,0,0,-
BRDA:334,0,1,-
DA:336,0
BRDA:336,0,0,-
BRDA:336,0,1,-
DA:337,0
DA:339,0
DA:340,0
BRDA:340,0,0,-
BRDA:340,0,1,-
DA:341,0
DA:342,0
DA:343,0
DA:329,0
DA:331,0
BRDA:331,0,0,-
BRDA:331,0,1,-
BRDA:331,0,2,-
BRDA:331,0,3,-
DA:332,0
BRDA:332,0,0,-
BRDA:332,0,1,-
BRDA:332,0,2,-
BRDA:332,0,3,-
DA:333,0
BRDA:333,0,0,-
BRDA:333,0,1,-
DA:334,0
BRDA:334,0,0,-
BRDA:334,0,1,-
DA:336,0
BRDA:336,0,0,-
BRDA:336,0,1,-
DA:337,0
DA:339,0
DA:340,0
BRDA:340,0,0,-
BRDA:340,0,1,-
DA:341,0
DA:342,0
DA:343,0
DA:361,0
DA:363,0
BRDA:363,0,0,-
BRDA:363,0,1,-
BRDA:363,0,2,-
BRDA:363,0,3,-
DA:364,0
BRDA:364,0,0,-
BRDA:364,0,1,-
BRDA:364,0,2,-
BRDA:364,0,3,-
DA:365,0
BRDA:365,0,0,-
BRDA:365,0,1,-
DA:366,0
BRDA:366,0,0,-
BRDA:366,0,1,-
DA:368,0
BRDA:368,0,0,-
BRDA:368,0,1,-
DA:369,0
DA:371,0
DA:372,0
BRDA:372,0,0,-
BRDA:372,0,1,-
DA:373,0
DA:374,0
DA:375,0
DA:361,0
DA:363,0
BRDA:363,0,0,-
BRDA:363,0,1,-
BRDA:363,0,2,-
BRDA:363,0,3,-
DA:364,0
BRDA:364,0,0,-
BRDA:364,0,1,-
BRDA:364,0,2,-
BRDA:364,0,3,-
DA:365,0
BRDA:365,0,0,-
BRDA:365,0,1,-
DA:366,0
BRDA:366,0,0,-
BRDA:366,0,1,-
DA:368,0
BRDA:368,0,0,-
BRDA:368,0,1,-
DA:369,0
DA:371,0
DA:372,0
BRDA:372,0,0,-
BRDA:372,0,1,-
DA:373,0
DA:374,0
DA:375,0
DA:361,0
DA:363,0
BRDA:363,0,0,-
BRDA:363,0,1,-
BRDA:363,0,2,-
BRDA:363,0,3,-
DA:364,0
BRDA:364,0,0,-
BRDA:364,0,1,-
BRDA:364,0,2,-
BRDA:364,0,3,-
DA:365,0
BRDA:365,0,0,-
BRDA:365,0,1,-
DA:366,0
BRDA:366,0,0,-
BRDA:366,0,1,-
DA:368,0
BRDA:368,0,0,-
BRDA:368,0,1,-
DA:369,0
DA:371,0
DA:372,0
BRDA:372,0,0,-
BRDA:372,0,1,-
DA:373,0
DA:374,0
DA:375,0
DA:361,0
DA:363,0
BRDA:363,0,0,-
BRDA:363,0,1,-
BRDA:363,0,2,-
BRDA:363,0,3,-
DA:364,0
BRDA:364,0,0,-
BRDA:364,0,1,-
BRDA:364,0,2,-
BRDA:364,0,3,-
DA:365,0
BRDA:365,0,0,-
BRDA:365,0,1,-
DA:366,0
BRDA:366,0,0,-
BRDA:366,0,1,-
DA:368,0
BRDA:368,0,0,-
BRDA:368,0,1,-
DA:369,0
DA:371,0
DA:372,0
BRDA:372,0,0,-
BRDA:372,0,1,-
DA:373,0
DA:374,0
DA:375,0
DA:361,0
DA:363,0
BRDA:363,0,0,-
BRDA:363,0,1,-
BRDA:363,0,2,-
BRDA:363,0,3,-
DA:364,0
BRDA:364,0,0,-
BRDA:364,0,1,-
BRDA:364,0,2,-
BRDA:364,0,3,-
DA:365,0
BRDA:365,0,0,-
BRDA:365,0,1,-
DA:366,0
BRDA:366,0,0,-
BRDA:366,0,1,-
DA:368,0
BRDA:368,0,0,-
BRDA:368,0,1,-
DA:369,0
DA:371,0
DA:372,0
BRDA:372,0,0,-
BRDA:372,0,1,-
DA:373,0
DA:374,0
DA:375,0
DA:361,0
DA:363,0
BRDA:363,0,0,-
BRDA:363,0,1,-
BRDA:363,0,2,-
BRDA:363,0,3,-
DA:364,0
BRDA:364,0,0,-
BRDA:364,0,1,-
BRDA:364,0,2,-
BRDA:364,0,3,-
DA:365,0
BRDA:365,0,0,-
BRDA:365,0,1,-
DA:366,0
BRDA:366,0,0,-
BRDA:366,0,1,-
DA:368,0
BRDA:368,0,0,-
BRDA:368,0,1,-
DA:369,0
DA:371,0
DA:372,0
BRDA:372,0,0,-
BRDA:372,0,1,-
DA:373,0
DA:374,0
DA:375,0
DA:389,0
DA:391,0
BRDA:391,0,0,-
BRDA:391,0,1,-
DA:395,0
BRDA:395,0,0,-
BRDA:395,0,1,-
DA:397,0
DA:398,0
DA:389,0
DA:391,0
BRDA:391,0,0,-
BRDA:391,0,1,-
DA:395,0
BRDA:395,0,0,-
BRDA:395,0,1,-
DA:397,0
DA:398,0
DA:389,0
DA:391,0
BRDA:391,0,0,-
BRDA:391,0,1,-
DA:395,0
BRDA:395,0,0,-
BRDA:395,0,1,-
DA:397,0
DA:398,0
DA:389,0
DA:391,0
BRDA:391,0,0,-
BRDA:391,0,1,-
DA:395,0
BRDA:395,0,0,-
BRDA:395,0,1,-
DA:397,0
DA:398,0
DA:389,0
DA:391,0
BRDA:391,0,0,-
BRDA:391,0,1,-
DA:395,0
BRDA:395,0,0,-
BRDA:395,0,1,-
DA:397,0
DA:398,0
DA:389,0
DA:391,0
BRDA:391,0,0,-
BRDA:391,0,1,-
DA:395,0
BRDA:395,0,0,-
BRDA:395,0,1,-
DA:397,0
DA:398,0
DA:704,0
DA:704,1
DA:704,0
DA:704,0
DA:704,0
DA:704,1
DA:705,0
DA:712,0
DA:713,0
DA:705,1
DA:712,1
DA:713,1
DA:705,0
DA:712,0
DA:713,0
DA:705,0
DA:712,0
DA:713,0
DA:705,0
DA:712,0
DA:713,0
DA:705,1
DA:712,1
DA:713,1
DA:716,0
DA:718,0
DA:719,0
DA:720,0
DA:721,0
DA:722,0
DA:723,0
DA:724,0
DA:725,0
DA:716,1
DA:718,1
DA:719,1
DA:720,1
DA:721,1
DA:722,1
DA:723,1
DA:724,1
DA:725,1
DA:716,0
DA:718,0
DA:719,0
DA:720,0
DA:721,0
DA:722,0
DA:723,0
DA:724,0
DA:725,0
DA:716,0
DA:718,0
DA:719,0
DA:720,0
DA:721,0
DA:722,0
DA:723,0
DA:724,0
DA:725,0
DA:716,0
DA:718,0
DA:719,0
DA:720,0
DA:721,0
DA:722,0
DA:723,0
DA:724,0
DA:725,0
DA:716,1
DA:718,1
DA:719,1
DA:720,1
DA:721,1
DA:722,1
DA:723,1
DA:724,1
DA:725,1
DA:751,0
DA:753,0
DA:754,0
DA:755,0
DA:756,0
BRDA:756,0,0,-
BRDA:756,0,1,-
DA:757,0
DA:751,1
DA:753,1
DA:754,1
DA:755,1
DA:756,1
BRDA:756,0,0,0
BRDA:756,0,1,1
DA:757,1
DA:751,0
DA:753,0
DA:754,0
DA:755,0
DA:756,0
BRDA:756,0,0,-
BRDA:756,0,1,-
DA:757,0
DA:751,0
DA:753,0
DA:754,0
DA:755,0
DA:756,0
BRDA:756,0,0,-
BRDA:756,0,1,-
DA:757,0
DA:751,0
DA:753,0
DA:754,0
DA:755,0
DA:756,0
BRDA:756,0,0,-
BRDA:756,0,1,-
DA:757,0
DA:751,1
DA:753,1
DA:754,1
DA:755,1
DA:756,1
BRDA:756,0,0,0
BRDA:756,0,1,1
DA:757,1
DA:811,0
DA:813,0
DA:814,0
BRDA:814,0,0,-
BRDA:814,0,1,-
DA:815,0
BRDA:815,0,0,-
BRDA:815,0,1,-
BRDA:815,0,2,-
BRDA:815,0,3,-
BRDA:815,0,4,-
BRDA:815,0,5,-
DA:816,0
DA:817,0
DA:818,0
DA:820,0
BRDA:820,0,0,-
BRDA:820,0,1,-
BRDA:820,0,2,-
BRDA:820,0,3,-
BRDA:820,0,4,-
BRDA:820,0,5,-
DA:821,0
DA:822,0
DA:823,0
DA:824,0
DA:827,0
DA:828,0
BRDA:828,0,0,-
BRDA:828,0,1,-
BRDA:828,0,2,-
BRDA:828,0,3,-
DA:829,0
BRDA:829,0,0,-
BRDA:829,0,1,-
DA:831,0
BRDA:831,0,0,-
BRDA:831,0,1,-
DA:832,0
BRDA:832,0,0,-
BRDA:832,0,1,-
DA:833,0
BRDA:833,0,0,-
BRDA:833,0,1,-
DA:834,0
DA:835,0
DA:836,0
DA:838,0
BRDA:838,0,0,-
BRDA:838,0,1,-
DA:840,0
DA:811,2
DA:813,2
DA:814,2
BRDA:814,0,0,1
BRDA:814,0,1,1
DA:815,1
BRDA:815,0,0,1
BRDA:815,0,1,0
BRDA:815,0,2,1
BRDA:815,0,3,0
BRDA:815,0,4,1
BRDA:815,0,5,0
DA:816,1
DA:817,1
DA:818,1
DA:820,0
BRDA:820,0,0,-
BRDA:820,0,1,-
BRDA:820,0,2,-
BRDA:820,0,3,-
BRDA:820,0,4,-
BRDA:820,0,5,-
DA:821,0
DA:822,0
DA:823,0
DA:824,0
DA:827,1
DA:828,1
BRDA:828,0,0,0
BRDA:828,0,1,1
BRDA:828,0,2,0
BRDA:828,0,3,0
DA:829,1
BRDA:829,0,0,0
BRDA:829,0,1,1
DA:831,1
BRDA:831,0,0,1
BRDA:831,0,1,0
DA:832,1
BRDA:832,0,0,0
BRDA:832,0,1,1
DA:833,0
BRDA:833,0,0,-
BRDA:833,0,1,-
DA:834,0
DA:835,0
DA:836,0
DA:838,1
BRDA:838,0,0,1
BRDA:838,0,1,0
DA:840,1
DA:811,0
DA:813,0
DA:814,0
BRDA:814,0,0,-
BRDA:814,0,1,-
DA:815,0
BRDA:815,0,0,-
BRDA:815,0,1,-
BRDA:815,0,2,-
BRDA:815,0,3,-
BRDA:815,0,4,-
BRDA:815,0,5,-
DA:816,0
DA:817,0
DA:818,0
DA:820,0
BRDA:820,0,0,-
BRDA:820,0,1,-
BRDA:820,0,2,-
BRDA:820,0,3,-
BRDA:820,0,4,-
BRDA:820,0,5,-
DA:821,0
DA:822,0
DA:823,0
DA:824,0
DA:827,0
DA:828,0
BRDA:828,0,0,-
BRDA:828,0,1,-
BRDA:828,0,2,-
BRDA:828,0,3,-
DA:829,0
BRDA:829,0,0,-
BRDA:829,0,1,-
DA:831,0
BRDA:831,0,0,-
BRDA:831,0,1,-
DA:832,0
BRDA:832,0,0,-
BRDA:832,0,1,-
DA:833,0
BRDA:833,0,0,-
BRDA:833,0,1,-
DA:834,0
DA:835,0
DA:836,0
DA:838,0
BRDA:838,0,0,-
BRDA:838,0,1,-
DA:840,0
DA:811,0
DA:813,0
DA:814,0
BRDA:814,0,0,-
BRDA:814,0,1,-
DA:815,0
BRDA:815,0,0,-
BRDA:815,0,1,-
BRDA:815,0,2,-
BRDA:815,0,3,-
BRDA:815,0,4,-
BRDA:815,0,5,-
DA:816,0
DA:817,0
DA:818,0
DA:820,0
BRDA:820,0,0,-
BRDA:820,0,1,-
BRDA:820,0,2,-
BRDA:820,0,3,-
BRDA:820,0,4,-
BRDA:820,0,5,-
DA:821,0
DA:822,0
DA:823,0
DA:824,0
DA:827,0
DA:828,0
BRDA:828,0,0,-
BRDA:828,0,1,-
BRDA:828,0,2,-
BRDA:828,0,3,-
DA:829,0
BRDA:829,0,0,-
BRDA:829,0,1,-
DA:831,0
BRDA:831,0,0,-
BRDA:831,0,1,-
DA:832,0
BRDA:832,0,0,-
BRDA:832,0,1,-
DA:833,0
BRDA:833,0,0,-
BRDA:833,0,1,-
DA:834,0
DA:835,0
DA:836,0
DA:838,0
BRDA:838,0,0,-
BRDA:838,0,1,-
DA:840,0
DA:811,0
DA:813,0
DA:814,0
BRDA:814,0,0,-
BRDA:814,0,1,-
DA:815,0
BRDA:815,0,0,-
BRDA:815,0,1,-
BRDA:815,0,2,-
BRDA:815,0,3,-
BRDA:815,0,4,-
BRDA:815,0,5,-
DA:816,0
DA:817,0
DA:818,0
DA:820,0
BRDA:820,0,0,-
BRDA:820,0,1,-
BRDA:820,0,2,-
BRDA:820,0,3,-
BRDA:820,0,4,-
BRDA:820,0,5,-
DA:821,0
DA:822,0
DA:823,0
DA:824,0
DA:827,0
DA:828,0
BRDA:828,0,0,-
BRDA:828,0,1,-
BRDA:828,0,2,-
BRDA:828,0,3,-
DA:829,0
BRDA:829,0,0,-
BRDA:829,0,1,-
DA:831,0
BRDA:831,0,0,-
BRDA:831,0,1,-
DA:832,0
BRDA:832,0,0,-
BRDA:832,0,1,-
DA:833,0
BRDA:833,0,0,-
BRDA:833,0,1,-
DA:834,0
DA:835,0
DA:836,0
DA:838,0
BRDA:838,0,0,-
BRDA:838,0,1,-
DA:840,0
DA:811,0
DA:813,0
DA:814,0
BRDA:814,0,0,-
BRDA:814,0,1,-
DA:815,0
BRDA:815,0,0,-
BRDA:815,0,1,-
BRDA:815,0,2,-
BRDA:815,0,3,-
BRDA:815,0,4,-
BRDA:815,0,5,-
DA:816,0
DA:817,0
DA:818,0
DA:820,0
BRDA:820,0,0,-
BRDA:820,0,1,-
BRDA:820,0,2,-
BRDA:820,0,3,-
BRDA:820,0,4,-
BRDA:820,0,5,-
DA:821,0
DA:822,0
DA:823,0
DA:824,0
DA:827,0
DA:828,0
BRDA:828,0,0,-
BRDA:828,0,1,-
BRDA:828,0,2,-
BRDA:828,0,3,-
DA:829,0
BRDA:829,0,0,-
BRDA:829,0,1,-
DA:831,0
BRDA:831,0,0,-
BRDA:831,0,1,-
DA:832,0
BRDA:832,0,0,-
BRDA:832,0,1,-
DA:833,0
BRDA:833,0,0,-
BRDA:833,0,1,-
DA:834,0
DA:835,0
DA:836,0
DA:838,0
BRDA:838,0,0,-
BRDA:838,0,1,-
DA:840,0
DA:811,2
DA:813,2
DA:814,2
BRDA:814,0,0,1
BRDA:814,0,1,1
DA:815,1
BRDA:815,0,0,1
BRDA:815,0,1,0
BRDA:815,0,2,1
BRDA:815,0,3,0
BRDA:815,0,4,1
BRDA:815,0,5,0
DA:816,1
DA:817,1
DA:818,1
DA:820,0
BRDA:820,0,0,-
BRDA:820,0,1,-
BRDA:820,0,2,-
BRDA:820,0,3,-
BRDA:820,0,4,-
BRDA:820,0,5,-
DA:821,0
DA:822,0
DA:823,0
DA:824,0
DA:827,1
DA:828,1
BRDA:828,0,0,0
BRDA:828,0,1,1
BRDA:828,0,2,0
BRDA:828,0,3,0
DA:829,1
BRDA:829,0,0,0
BRDA:829,0,1,1
DA:831,1
BRDA:831,0,0,1
BRDA:831,0,1,0
DA:832,1
BRDA:832,0,0,0
BRDA:832,0,1,1
DA:833,0
BRDA:833,0,0,-
BRDA:833,0,1,-
DA:834,0
DA:835,0
DA:836,0
DA:838,1
BRDA:838,0,0,1
BRDA:838,0,1,0
DA:840,1
DA:865,0
DA:867,0
BRDA:867,0,0,-
BRDA:867,0,1,-
DA:868,0
BRDA:868,0,0,-
BRDA:868,0,1,-
DA:869,0
BRDA:869,0,0,-
BRDA:869,0,1,-
DA:870,0
DA:871,0
DA:872,0
DA:865,0
DA:867,0
BRDA:867,0,0,-
BRDA:867,0,1,-
DA:868,0
BRDA:868,0,0,-
BRDA:868,0,1,-
DA:869,0
BRDA:869,0,0,-
BRDA:869,0,1,-
DA:870,0
DA:871,0
DA:872,0
DA:865,0
DA:867,0
BRDA:867,0,0,-
BRDA:867,0,1,-
DA:868,0
BRDA:868,0,0,-
BRDA:868,0,1,-
DA:869,0
BRDA:869,0,0,-
BRDA:869,0,1,-
DA:870,0
DA:871,0
DA:872,0
DA:865,0
DA:867,0
BRDA:867,0,0,-
BRDA:867,0,1,-
DA:868,0
BRDA:868,0,0,-
BRDA:868,0,1,-
DA:869,0
BRDA:869,0,0,-
BRDA:869,0,1,-
DA:870,0
DA:871,0
DA:872,0
DA:865,0
DA:867,0
BRDA:867,0,0,-
BRDA:867,0,1,-
DA:868,0
BRDA:868,0,0,-
BRDA:868,0,1,-
DA:869,0
BRDA:869,0,0,-
BRDA:869,0,1,-
DA:870,0
DA:871,0
DA:872,0
DA:865,0
DA:867,0
BRDA:867,0,0,-
BRDA:867,0,1,-
DA:868,0
BRDA:868,0,0,-
BRDA:868,0,1,-
DA:869,0
BRDA:869,0,0,-
BRDA:869,0,1,-
DA:870,0
DA:871,0
DA:872,0
DA:946,0
DA:948,0
BRDA:948,0,0,-
BRDA:948,0,1,-
DA:949,0
DA:950,0
BRDA:950,0,0,-
BRDA:950,0,1,-
DA:951,0
DA:952,0
DA:955,0
BRDA:955,0,0,-
BRDA:955,0,1,-
DA:956,0
BRDA:956,0,0,-
BRDA:956,0,1,-
DA:958,0
BRDA:958,0,0,-
BRDA:958,0,1,-
DA:959,0
BRDA:959,0,0,-
BRDA:959,0,1,-
DA:961,0
DA:962,0
end_of_record
SF:/usr/include/c++/11/ext/type_traits.h
FN:152,_ZN9__gnu_cxx17__is_null_pointerIKcEEbPT_
FNDA:0,_ZN9__gnu_cxx17__is_null_pointerIKcEEbPT_
DA:152,0
DA:153,0
end_of_record
SF:/home/pavle/Qt/6.6.1/gcc_64/include/QtCore/qpair.h
FN:19,_Z9qMakePairIP15QTypedArrayDataI4QMapI5QChariEEPS3_EDcOT_OT0_
FNDA:0,_Z9qMakePairIP15QTypedArrayDataI4QMapI5QChariEEPS3_EDcOT_OT0_
FN:19,_Z9qMakePairIP15QTypedArrayDataI5QListIiEEPS2_EDcOT_OT0_
FNDA:1,_Z9qMakePairIP15QTypedArrayDataI5QListIiEEPS2_EDcOT_OT0_
FN:19,_Z9qMakePairIP15QTypedArrayDataI4QMapI5QChar7QStringEEPS4_EDcOT_OT0_
FNDA:0,_Z9qMakePairIP15QTypedArrayDataI4QMapI5QChar7QStringEEPS4_EDcOT_OT0_
FN:19,_Z9qMakePairIP15QTypedArrayDataI4QMapI5QChar5QListI7QStringEEEPS6_EDcOT_OT0_
FNDA:0,_Z9qMakePairIP15QTypedArrayDataI4QMapI5QChar5QListI7QStringEEEPS6_EDcOT_OT0_
FN:19,_Z9qMakePairIP15QTypedArrayDataI4QMapI7QStringS2_EEPS3_EDcOT_OT0_
FNDA:0,_Z9qMakePairIP15QTypedArrayDataI4QMapI7QStringS2_EEPS3_EDcOT_OT0_
FN:19,_Z9qMakePairIP15QTypedArrayDataIP9GameModelEPS2_EDcOT_OT0_
FNDA:0,_Z9qMakePairIP15QTypedArrayDataIP9GameModelEPS2_EDcOT_OT0_
FN:19,_Z9qMakePairIP15QTypedArrayDataI7QStringEPS1_EDcOT_OT0_
FNDA:0,_Z9qMakePairIP15QTypedArrayDataI7QStringEPS1_EDcOT_OT0_
FN:19,_Z9qMakePairIP15QTypedArrayDataIbEPbEDcOT_OT0_
FNDA:2592,_Z9qMakePairIP15QTypedArrayDataIbEPbEDcOT_OT0_
FN:19,_Z9qMakePairIP15QTypedArrayDataIiEPiEDcOT_OT0_
FNDA:0,_Z9qMakePairIP15QTypedArrayDataIiEPiEDcOT_OT0_
FN:19,_Z9qMakePairIP15QTypedArrayDataI5QCharEPS1_EDcOT_OT0_
FNDA:0,_Z9qMakePairIP15QTypedArrayDataI5QCharEPS1_EDcOT_OT0_
DA:19,0
DA:22,0
DA:19,1
DA:22,1
DA:19,0
DA:22,0
DA:19,0
DA:22,0
DA:19,0
DA:22,0
DA:19,0
DA:22,0
DA:19,0
DA:22,0
DA:19,2592
DA:22,2592
DA:19,0
DA:22,0
DA:19,0
DA:22,0
end_of_record
SF:/home/pavle/Qt/6.6.1/gcc_64/include/QtCore/qminmax.h
FN:42,_Z4qMaxIxERKT_S2_S2_
FNDA:0,_Z4qMaxIxERKT_S2_S2_
FN:58,_Z4qMaxIixEN11QTypeTraits6detail8PromotedIT_T0_NSt9enable_ifIXaaaaaaaaaaaaaa15is_arithmetic_vIS3_E15is_arithmetic_vIS4_Eeq19is_floating_point_vIS3_E19is_floating_point_vIS4_Eeq11is_signed_vIS3_E11is_signed_vIS4_Ent9is_same_vIS3_bEnt9is_same_vIS4_bEnt9is_same_vIS3_cEnt9is_same_vIS4_cEEvE4typeEE4typeERKS3_RKS4_
FNDA:0,_Z4qMaxIixEN11QTypeTraits6detail8PromotedIT_T0_NSt9enable_ifIXaaaaaaaaaaaaaa15is_arithmetic_vIS3_E15is_arithmetic_vIS4_Eeq19is_floating_point_vIS3_E19is_floating_point_vIS4_Eeq11is_signed_vIS3_E11is_signed_vIS4_Ent9is_same_vIS3_bEnt9is_same_vIS4_bEnt9is_same_vIS3_cEnt9is_same_vIS4_cEEvE4typeEE4typeERKS3_RKS4_
DA:42,0
BRDA:42,0,0,-
BRDA:42,0,1,-
DA:58,0
DA:61,0
DA:62,0
DA:63,0
BRDA:63,0,0,-
BRDA:63,0,1,-
end_of_record
SF:/home/pavle/Qt/6.6.1/gcc_64/include/QtCore/qcontainertools_impl.h
FN:36,_ZN9QtPrivateL19q_points_into_rangeIP9GameModelSt4lessIvEEEbPKT_S7_S7_T0_
FNDA:0,_ZN9QtPrivateL19q_points_into_rangeIP9GameModelSt4lessIvEEEbPKT_S7_S7_T0_
FN:36,_ZN9QtPrivateL19q_points_into_rangeI4QMapI5QChariESt4lessIvEEEbPKT_S8_S8_T0_
FNDA:0,_ZN9QtPrivateL19q_points_into_rangeI4QMapI5QChariESt4lessIvEEEbPKT_S8_S8_T0_
FN:36,_ZN9QtPrivateL19q_points_into_rangeI5QListIiESt4lessIvEEEbPKT_S7_S7_T0_
FNDA:0,_ZN9QtPrivateL19q_points_into_rangeI5QListIiESt4lessIvEEEbPKT_S7_S7_T0_
FN:36,_ZN9QtPrivateL19q_points_into_rangeIiSt4lessIvEEEbPKT_S5_S5_T0_
FNDA:0,_ZN9QtPrivateL19q_points_into_rangeIiSt4lessIvEEEbPKT_S5_S5_T0_
FN:36,_ZN9QtPrivateL19q_points_into_rangeI5QCharSt4lessIvEEEbPKT_S6_S6_T0_
FNDA:0,_ZN9QtPrivateL19q_points_into_rangeI5QCharSt4lessIvEEEbPKT_S6_S6_T0_
FN:36,_ZN9QtPrivateL19q_points_into_rangeI7QStringSt4lessIvEEEbPKT_S6_S6_T0_
FNDA:0,_ZN9QtPrivateL19q_points_into_rangeI7QStringSt4lessIvEEEbPKT_S6_S6_T0_
FN:36,_ZN9QtPrivateL19q_points_into_rangeI4QMapI5QChar7QStringESt4lessIvEEEbPKT_S9_S9_T0_
FNDA:0,_ZN9QtPrivateL19q_points_into_rangeI4QMapI5QChar7QStringESt4lessIvEEEbPKT_S9_S9_T0_
FN:36,_ZN9QtPrivateL19q_points_into_rangeI4QMapI5QChar5QListI7QStringEESt4lessIvEEEbPKT_SB_SB_T0_
FNDA:0,_ZN9QtPrivateL19q_points_into_rangeI4QMapI5QChar5QListI7QStringEESt4lessIvEEEbPKT_SB_SB_T0_
FN:36,_ZN9QtPrivateL19q_points_into_rangeI4QMapI7QStringS2_ESt4lessIvEEEbPKT_S8_S8_T0_
FNDA:0,_ZN9QtPrivateL19q_points_into_rangeI4QMapI7QStringS2_ESt4lessIvEEEbPKT_S8_S8_T0_
FN:49,_ZN9QtPrivateL19q_points_into_rangeINS_15QCommonArrayOpsI7QStringEEPKS2_EEbRKT0_RKT_
FNDA:0,_ZN9QtPrivateL19q_points_into_rangeINS_15QCommonArrayOpsI7QStringEEPKS2_EEbRKT0_RKT_
FN:49,_ZN9QtPrivateL19q_points_into_rangeI17QArrayDataPointerI7QStringEPKS2_EEbRKT0_RKT_
FNDA:0,_ZN9QtPrivateL19q_points_into_rangeI17QArrayDataPointerI7QStringEPKS2_EEbRKT0_RKT_
FN:49,_ZN9QtPrivateL19q_points_into_rangeI17QArrayDataPointerI4QMapI7QStringS3_EEPKS4_EEbRKT0_RKT_
FNDA:0,_ZN9QtPrivateL19q_points_into_rangeI17QArrayDataPointerI4QMapI7QStringS3_EEPKS4_EEbRKT0_RKT_
FN:49,_ZN9QtPrivateL19q_points_into_rangeI17QArrayDataPointerI4QMapI5QChar5QListI7QStringEEEPKS7_EEbRKT0_RKT_
FNDA:0,_ZN9QtPrivateL19q_points_into_rangeI17QArrayDataPointerI4QMapI5QChar5QListI7QStringEEEPKS7_EEbRKT0_RKT_
FN:49,_ZN9QtPrivateL19q_points_into_rangeI17QArrayDataPointerI4QMapI5QChar7QStringEEPKS5_EEbRKT0_RKT_
FNDA:0,_ZN9QtPrivateL19q_points_into_rangeI17QArrayDataPointerI4QMapI5QChar7QStringEEPKS5_EEbRKT0_RKT_
FN:49,_ZN9QtPrivateL19q_points_into_rangeI17QArrayDataPointerIiEPKiEEbRKT0_RKT_
FNDA:0,_ZN9QtPrivateL19q_points_into_rangeI17QArrayDataPointerIiEPKiEEbRKT0_RKT_
FN:49,_ZN9QtPrivateL19q_points_into_rangeI17QArrayDataPointerI5QListIiEEPKS3_EEbRKT0_RKT_
FNDA:0,_ZN9QtPrivateL19q_points_into_rangeI17QArrayDataPointerI5QListIiEEPKS3_EEbRKT0_RKT_
FN:49,_ZN9QtPrivateL19q_points_into_rangeI17QArrayDataPointerI4QMapI5QChariEEPKS4_EEbRKT0_RKT_
FNDA:0,_ZN9QtPrivateL19q_points_into_rangeI17QArrayDataPointerI4QMapI5QChariEEPKS4_EEbRKT0_RKT_
FN:49,_ZN9QtPrivateL19q_points_into_rangeI17QArrayDataPointerIP9GameModelEPKS3_EEbRKT0_RKT_
FNDA:0,_ZN9QtPrivateL19q_points_into_rangeI17QArrayDataPointerIP9GameModelEPKS3_EEbRKT0_RKT_
FN:49,_ZN9QtPrivateL19q_points_into_rangeI17QArrayDataPointerI5QCharEPKS2_EEbRKT0_RKT_
FNDA:0,_ZN9QtPrivateL19q_points_into_rangeI17QArrayDataPointerI5QCharEPKS2_EEbRKT0_RKT_
FN:234,_ZN9QtPrivate20q_relocate_overlap_nI5QListIiExEEvPT_T0_S4_
FNDA:0,_ZN9QtPrivate20q_relocate_overlap_nI5QListIiExEEvPT_T0_S4_
FN:234,_ZN9QtPrivate20q_relocate_overlap_nIixEEvPT_T0_S2_
FNDA:0,_ZN9QtPrivate20q_relocate_overlap_nIixEEvPT_T0_S2_
FN:234,_ZN9QtPrivate20q_relocate_overlap_nI4QMapI5QChariExEEvPT_T0_S5_
FNDA:0,_ZN9QtPrivate20q_relocate_overlap_nI4QMapI5QChariExEEvPT_T0_S5_
FN:234,_ZN9QtPrivate20q_relocate_overlap_nI4QMapI5QChar7QStringExEEvPT_T0_S6_
FNDA:0,_ZN9QtPrivate20q_relocate_overlap_nI4QMapI5QChar7QStringExEEvPT_T0_S6_
FN:234,_ZN9QtPrivate20q_relocate_overlap_nI4QMapI5QChar5QListI7QStringEExEEvPT_T0_S8_
FNDA:0,_ZN9QtPrivate20q_relocate_overlap_nI4QMapI5QChar5QListI7QStringEExEEvPT_T0_S8_
FN:234,_ZN9QtPrivate20q_relocate_overlap_nIP9GameModelxEEvPT_T0_S4_
FNDA:0,_ZN9QtPrivate20q_relocate_overlap_nIP9GameModelxEEvPT_T0_S4_
FN:234,_ZN9QtPrivate20q_relocate_overlap_nI4QMapI7QStringS2_ExEEvPT_T0_S5_
FNDA:0,_ZN9QtPrivate20q_relocate_overlap_nI4QMapI7QStringS2_ExEEvPT_T0_S5_
FN:234,_ZN9QtPrivate20q_relocate_overlap_nI7QStringxEEvPT_T0_S3_
FNDA:0,_ZN9QtPrivate20q_relocate_overlap_nI7QStringxEEvPT_T0_S3_
FN:234,_ZN9QtPrivate20q_relocate_overlap_nI5QCharxEEvPT_T0_S3_
FNDA:0,_ZN9QtPrivate20q_relocate_overlap_nI5QCharxEEvPT_T0_S3_
DA:36,0
DA:39,0
BRDA:39,0,0,-
BRDA:39,0,1,-
BRDA:39,0,2,-
BRDA:39,0,3,-
DA:36,0
DA:39,0
BRDA:39,0,0,-
BRDA:39,0,1,-
BRDA:39,0,2,-
BRDA:39,0,3,-
DA:36,0
DA:39,0
BRDA:39,0,0,-
BRDA:39,0,1,-
BRDA:39,0,2,-
BRDA:39,0,3,-
DA:36,0
DA:39,0
BRDA:39,0,0,-
BRDA:39,0,1,-
BRDA:39,0,2,-
BRDA:39,0,3,-
DA:36,0
DA:39,0
BRDA:39,0,0,-
BRDA:39,0,1,-
BRDA:39,0,2,-
BRDA:39,0,3,-
DA:36,0
DA:39,0
BRDA:39,0,0,-
BRDA:39,0,1,-
BRDA:39,0,2,-
BRDA:39,0,3,-
DA:36,0
DA:39,0
BRDA:39,0,0,-
BRDA:39,0,1,-
BRDA:39,0,2,-
BRDA:39,0,3,-
DA:36,0
DA:39,0
BRDA:39,0,0,-
BRDA:39,0,1,-
BRDA:39,0,2,-
BRDA:39,0,3,-
DA:36,0
DA:39,0
BRDA:39,0,0,-
BRDA:39,0,1,-
BRDA:39,0,2,-
BRDA:39,0,3,-
DA:49,0
DA:55,0
DA:56,0
DA:49,0
DA:55,0
DA:56,0
DA:49,0
DA:55,0
DA:56,0
DA:49,0
DA:55,0
DA:56,0
DA:49,0
DA:55,0
DA:56,0
DA:49,0
DA:55,0
DA:56,0
DA:49,0
DA:55,0
DA:56,0
DA:49,0
DA:55,0
DA:56,0
DA:49,0
DA:55,0
DA:56,0
DA:49,0
DA:55,0
DA:56,0
DA:234,0
DA:239,0
BRDA:239,0,0,-
BRDA:239,0,1,-
BRDA:239,0,2,-
BRDA:239,0,3,-
BRDA:239,0,4,-
BRDA:239,0,5,-
BRDA:239,0,6,-
BRDA:239,0,7,-
DA:240,0
DA:243,0
DA:234,0
DA:239,0
BRDA:239,0,0,-
BRDA:239,0,1,-
BRDA:239,0,2,-
BRDA:239,0,3,-
BRDA:239,0,4,-
BRDA:239,0,5,-
BRDA:239,0,6,-
BRDA:239,0,7,-
DA:240,0
DA:243,0
DA:234,0
DA:239,0
BRDA:239,0,0,-
BRDA:239,0,1,-
BRDA:239,0,2,-
BRDA:239,0,3,-
BRDA:239,0,4,-
BRDA:239,0,5,-
BRDA:239,0,6,-
BRDA:239,0,7,-
DA:240,0
DA:243,0
DA:234,0
DA:239,0
BRDA:239,0,0,-
BRDA:239,0,1,-
BRDA:239,0,2,-
BRDA:239,0,3,-
BRDA:239,0,4,-
BRDA:239,0,5,-
BRDA:239,0,6,-
BRDA:239,0,7,-
DA:240,0
DA:243,0
DA:234,0
DA:239,0
BRDA:239,0,0,-
BRDA:239,0,1,-
BRDA:239,0,2,-
BRDA:239,0,3,-
BRDA:239,0,4,-
BRDA:239,0,5,-
BRDA:239,0,6,-
BRDA:239,0,7,-
DA:240,0
DA:243,0
DA:234,0
DA:239,0
BRDA:239,0,0,-
BRDA:239,0,1,-
BRDA:239,0,2,-
BRDA:239,0,3,-
BRDA:239,0,4,-
BRDA:239,0,5,-
BRDA:239,0,6,-
BRDA:239,0,7,-
DA:240,0
DA:243,0
DA:234,0
DA:239,0
BRDA:239,0,0,-
BRDA:239,0,1,-
BRDA:239,0,2,-
BRDA:239,0,3,-
BRDA:239,0,4,-
BRDA:239,0,5,-
BRDA:239,0,6,-
BRDA:239,0,7,-
DA:240,0
DA:243,0
DA:234,0
DA:239,0
BRDA:239,0,0,-
BRDA:239,0,1,-
BRDA:239,0,2,-
BRDA:239,0,3,-
BRDA:239,0,4,-
BRDA:239,0,5,-
BRDA:239,0,6,-
BRDA:239,0,7,-
DA:240,0
DA:243,0
DA:234,0
DA:239,0
BRDA:239,0,0,-
BRDA:239,0,1,-
BRDA:239,0,2,-
BRDA:239,0,3,-
BRDA:239,0,4,-
BRDA:239,0,5,-
BRDA:239,0,6,-
BRDA:239,0,7,-
DA:240,0
DA:243,0
end_of_record
SF:/home/pavle/Desktop/2023_Analysis_04-slagalica/04-slagalica/src/server/server.cpp
FN:8,_ZN6ServerC2EP7QObject
FNDA:11,_ZN6ServerC2EP7QObject
FN:14,_ZN6Server11startServerEv
FNDA:1,_ZN6Server11startServerEv
FN:34,_ZN6Server19newClientConnectionEv
FNDA:0,_ZN6Server19newClientConnectionEv
FN:65,_ZN6Server18socketDisconnectedEv
FNDA:1,_ZN6Server18socketDisconnectedEv
FN:87,_ZN6Server12readKoZnaZnaEv
FNDA:0,_ZN6Server12readKoZnaZnaEv
FN:121,_ZN6Server12readSpojniceEv
FNDA:0,_ZN6Server12readSpojniceEv
FN:154,_ZN6Server15readAsocijacijeEv
FNDA:0,_ZN6Server15readAsocijacijeEv
FN:206,_ZN6Server15socketReadyReadEv
FNDA:0,_ZN6Server15socketReadyReadEv
FN:226,_ZZN6Server15socketReadyReadEvENKUlPK9GameModelE_clES2_
FNDA:0,_ZZN6Server15socketReadyReadEvENKUlPK9GameModelE_clES2_
FN:250,_ZZN6Server15socketReadyReadEvENKUlPK9GameModelS2_E0_clES2_S2_
FNDA:0,_ZZN6Server15socketReadyReadEvENKUlPK9GameModelS2_E0_clES2_S2_
FN:335,_ZN6Server13skockoAttemptE5QListI7QStringE
FNDA:0,_ZN6Server13skockoAttemptE5QListI7QStringE
FN:389,_ZN6Server22returnKoZnaZnaQuestionE5QListI7QStringE
FNDA:0,_ZN6Server22returnKoZnaZnaQuestionE5QListI7QStringE
FN:401,_ZN6Server15koZnaZnaAttemptE5QListI7QStringE
FNDA:0,_ZN6Server15koZnaZnaAttemptE5QListI7QStringE
FN:425,_ZN6Server21calculateSkockoPointsE7QStringS0_
FNDA:40,_ZN6Server21calculateSkockoPointsE7QStringS0_
FN:439,_ZN6Server18socketStateChangedEN15QAbstractSocket11SocketStateE
FNDA:0,_ZN6Server18socketStateChangedEN15QAbstractSocket11SocketStateE
FN:461,_ZN6Server11sendMessageEP10QTcpSocket7QString
FNDA:0,_ZN6Server11sendMessageEP10QTcpSocket7QString
FN:468,_ZN6Server11readyPlayerEi
FNDA:0,_ZN6Server11readyPlayerEi
FN:489,_ZN6Server20generateCombinationsEv
FNDA:0,_ZN6Server20generateCombinationsEv
FN:497,_ZN6Server25generateSkockoCombinationEv
FNDA:2,_ZN6Server25generateSkockoCombinationEv
FN:509,_ZN6Server17generate_two_intsEi
FNDA:1,_ZN6Server17generate_two_intsEi
FN:525,_ZN6Server27generateKoZnaZnaCombinationEi
FNDA:2,_ZN6Server27generateKoZnaZnaCombinationEi
FN:550,_ZN6Server15shuffleSpojniceEv
FNDA:1,_ZN6Server15shuffleSpojniceEv
FN:569,_ZN6Server15getPlayerSocketEi
FNDA:1,_ZN6Server15getPlayerSocketEi
FN:577,_ZN6Server15setPlayerSocketEiP10QTcpSocket
FNDA:1,_ZN6Server15setPlayerSocketEiP10QTcpSocket
FN:587,_ZN6Server19generateAsocijacijeEv
FNDA:0,_ZN6Server19generateAsocijacijeEv
FN:606,_ZN6Server18checkSkockoAttemptE5QListI5QCharES2_
FNDA:1296,_ZN6Server18checkSkockoAttemptE5QListI5QCharES2_
FN:643,_ZN6Server20checkKoZnaZnaAttemptEiii
FNDA:50,_ZN6Server20checkKoZnaZnaAttemptEiii
FN:657,_ZN6Server20updateKoZnaZnaPointsEv
FNDA:0,_ZN6Server20updateKoZnaZnaPointsEv
FN:686,_ZN6Server19returnSpojniceWordsE5QListI7QStringE
FNDA:0,_ZN6Server19returnSpojniceWordsE5QListI7QStringE
FN:705,_ZN6Server20checkSpojniceAttemptE5QListI7QStringE
FNDA:0,_ZN6Server20checkSpojniceAttemptE5QListI7QStringE
FN:729,_ZN6Server18sendSpojniceResultE5QListI7QStringE
FNDA:0,_ZN6Server18sendSpojniceResultE5QListI7QStringE
FN:745,_ZN6Server22returnAssociationFieldE5QListI7QStringE
FNDA:0,_ZN6Server22returnAssociationFieldE5QListI7QStringE
FN:764,_ZN6Server23checkAssociationAttemptE5QListI7QStringE
FNDA:0,_ZN6Server23checkAssociationAttemptE5QListI7QStringE
FN:807,_ZN6Server26calculateAssociationPointsEi5QCharbb
FNDA:40,_ZN6Server26calculateAssociationPointsEi5QCharbb
FN:838,_ZN6Server19associationToStringEv
FNDA:1,_ZN6Server19associationToStringEv
FN:861,_ZN6Server21sendAssociationResultE5QListI7QStringE
FNDA:0,_ZN6Server21sendAssociationResultE5QListI7QStringE
DA:8,11
DA:9,11
BRDA:9,0,0,11
BRDA:9,0,1,0
BRDA:9,0,2,11
BRDA:9,0,3,0
BRDA:9,0,4,11
BRDA:9,0,5,0
BRDA:9,0,6,11
BRDA:9,0,7,0
DA:11,11
DA:12,11
DA:14,1
DA:16,1
BRDA:16,0,0,1
BRDA:16,0,1,0
DA:17,1
DA:18,1
DA:19,1
BRDA:19,0,0,1
BRDA:19,0,1,0
DA:21,1
BRDA:21,0,0,1
BRDA:21,0,1,0
BRDA:21,0,2,0
BRDA:21,0,3,1
DA:23,0
BRDA:23,0,0,-
BRDA:23,0,1,-
BRDA:23,0,2,-
BRDA:23,0,3,-
DA:27,1
BRDA:27,0,0,1
BRDA:27,0,1,0
BRDA:27,0,2,1
BRDA:27,0,3,0
BRDA:27,0,4,1
BRDA:27,0,5,0
DA:30,1
BRDA:30,0,0,1
BRDA:30,0,1,0
DA:31,1
BRDA:31,0,0,1
BRDA:31,0,1,0
DA:32,1
DA:34,0
DA:36,0
DA:38,0
BRDA:38,0,0,-
BRDA:38,0,1,-
DA:39,0
BRDA:39,0,0,-
BRDA:39,0,1,-
DA:40,0
BRDA:40,0,0,-
BRDA:40,0,1,-
DA:42,0
BRDA:42,0,0,-
BRDA:42,0,1,-
DA:44,0
DA:45,0
DA:47,0
BRDA:47,0,0,-
BRDA:47,0,1,-
DA:48,0
BRDA:48,0,0,-
BRDA:48,0,1,-
BRDA:48,0,2,-
BRDA:48,0,3,-
DA:50,0
BRDA:50,0,0,-
BRDA:50,0,1,-
DA:52,0
DA:53,0
DA:54,0
BRDA:54,0,0,-
BRDA:54,0,1,-
DA:56,0
BRDA:56,0,0,-
BRDA:56,0,1,-
BRDA:56,0,2,-
BRDA:56,0,3,-
DA:60,0
DA:61,0
BRDA:61,0,0,-
BRDA:61,0,1,-
BRDA:61,0,2,-
BRDA:61,0,3,-
DA:63,0
DA:65,1
DA:68,1
DA:69,1
BRDA:69,0,0,0
BRDA:69,0,1,1
DA:71,0
BRDA:71,0,0,-
BRDA:71,0,1,-
DA:72,0
DA:76,1
BRDA:76,0,0,1
BRDA:76,0,1,0
DA:77,1
DA:81,1
BRDA:81,0,0,1
BRDA:81,0,1,0
DA:82,1
BRDA:82,0,0,1
BRDA:82,0,1,0
DA:84,1
BRDA:84,0,0,1
BRDA:84,0,1,0
BRDA:84,0,2,1
BRDA:84,0,3,0
DA:86,1
DA:87,0
DA:89,0
DA:90,0
BRDA:90,0,0,-
BRDA:90,0,1,-
DA:91,0
BRDA:91,0,0,-
BRDA:91,0,1,-
DA:92,0
DA:93,0
DA:95,0
BRDA:95,0,0,-
BRDA:95,0,1,-
BRDA:95,0,2,-
BRDA:95,0,3,-
DA:96,0
BRDA:96,0,0,-
BRDA:96,0,1,-
DA:97,0
BRDA:97,0,0,-
BRDA:97,0,1,-
DA:98,0
DA:100,0
BRDA:100,0,0,-
BRDA:100,0,1,-
BRDA:100,0,2,-
BRDA:100,0,3,-
DA:101,0
BRDA:101,0,0,-
BRDA:101,0,1,-
DA:102,0
BRDA:102,0,0,-
BRDA:102,0,1,-
DA:104,0
DA:105,0
BRDA:105,0,0,-
BRDA:105,0,1,-
DA:107,0
BRDA:107,0,0,-
BRDA:107,0,1,-
DA:108,0
BRDA:108,0,0,-
BRDA:108,0,1,-
DA:109,0
BRDA:109,0,0,-
BRDA:109,0,1,-
BRDA:109,0,2,-
BRDA:109,0,3,-
DA:112,0
BRDA:112,0,0,-
BRDA:112,0,1,-
DA:114,0
BRDA:114,0,0,-
BRDA:114,0,1,-
BRDA:114,0,2,-
BRDA:114,0,3,-
BRDA:114,0,4,-
BRDA:114,0,5,-
BRDA:114,0,6,-
BRDA:114,0,7,-
BRDA:114,0,8,-
BRDA:114,0,9,-
DA:117,0
BRDA:117,0,0,-
BRDA:117,0,1,-
BRDA:117,0,2,-
BRDA:117,0,3,-
DA:119,0
DA:121,0
DA:123,0
BRDA:123,0,0,-
BRDA:123,0,1,-
DA:124,0
BRDA:124,0,0,-
BRDA:124,0,1,-
DA:125,0
BRDA:125,0,0,-
BRDA:125,0,1,-
DA:126,0
BRDA:126,0,0,-
BRDA:126,0,1,-
DA:128,0
DA:130,0
DA:132,0
BRDA:132,0,0,-
BRDA:132,0,1,-
BRDA:132,0,2,-
BRDA:132,0,3,-
DA:133,0
BRDA:133,0,0,-
BRDA:133,0,1,-
BRDA:133,0,2,-
BRDA:133,0,3,-
DA:135,0
BRDA:135,0,0,-
BRDA:135,0,1,-
DA:137,0
BRDA:137,0,0,-
BRDA:137,0,1,-
DA:138,0
BRDA:138,0,0,-
BRDA:138,0,1,-
BRDA:138,0,2,-
BRDA:138,0,3,-
BRDA:138,0,4,-
BRDA:138,0,5,-
DA:139,0
DA:140,0
DA:141,0
BRDA:141,0,0,-
BRDA:141,0,1,-
BRDA:141,0,2,-
BRDA:141,0,3,-
DA:142,0
BRDA:142,0,0,-
BRDA:142,0,1,-
BRDA:142,0,2,-
BRDA:142,0,3,-
BRDA:142,0,4,-
BRDA:142,0,5,-
DA:143,0
BRDA:143,0,0,-
BRDA:143,0,1,-
BRDA:143,0,2,-
BRDA:143,0,3,-
BRDA:143,0,4,-
BRDA:143,0,5,-
DA:144,0
BRDA:144,0,0,-
BRDA:144,0,1,-
BRDA:144,0,2,-
BRDA:144,0,3,-
BRDA:144,0,4,-
BRDA:144,0,5,-
DA:145,0
BRDA:145,0,0,-
BRDA:145,0,1,-
BRDA:145,0,2,-
BRDA:145,0,3,-
BRDA:145,0,4,-
BRDA:145,0,5,-
DA:146,0
DA:148,0
BRDA:148,0,0,-
BRDA:148,0,1,-
DA:149,0
DA:150,0
BRDA:150,0,0,-
BRDA:150,0,1,-
BRDA:150,0,2,-
BRDA:150,0,3,-
DA:151,0
BRDA:151,0,0,-
BRDA:151,0,1,-
DA:152,0
DA:154,0
DA:156,0
BRDA:156,0,0,-
BRDA:156,0,1,-
DA:157,0
BRDA:157,0,0,-
BRDA:157,0,1,-
DA:158,0
BRDA:158,0,0,-
BRDA:158,0,1,-
DA:159,0
BRDA:159,0,0,-
BRDA:159,0,1,-
DA:160,0
DA:162,0
DA:163,0
DA:164,0
DA:166,0
BRDA:166,0,0,-
BRDA:166,0,1,-
BRDA:166,0,2,-
BRDA:166,0,3,-
DA:167,0
BRDA:167,0,0,-
BRDA:167,0,1,-
BRDA:167,0,2,-
BRDA:167,0,3,-
DA:169,0
BRDA:169,0,0,-
BRDA:169,0,1,-
DA:172,0
BRDA:172,0,0,-
BRDA:172,0,1,-
DA:173,0
BRDA:173,0,0,-
BRDA:173,0,1,-
BRDA:173,0,2,-
BRDA:173,0,3,-
BRDA:173,0,4,-
BRDA:173,0,5,-
DA:174,0
DA:175,0
DA:176,0
BRDA:176,0,0,-
BRDA:176,0,1,-
BRDA:176,0,2,-
BRDA:176,0,3,-
BRDA:176,0,4,-
BRDA:176,0,5,-
DA:178,0
BRDA:178,0,0,-
BRDA:178,0,1,-
BRDA:178,0,2,-
BRDA:178,0,3,-
DA:179,0
BRDA:179,0,0,-
BRDA:179,0,1,-
BRDA:179,0,2,-
BRDA:179,0,3,-
BRDA:179,0,4,-
BRDA:179,0,5,-
DA:180,0
BRDA:180,0,0,-
BRDA:180,0,1,-
BRDA:180,0,2,-
BRDA:180,0,3,-
BRDA:180,0,4,-
BRDA:180,0,5,-
BRDA:180,0,6,-
BRDA:180,0,7,-
BRDA:180,0,8,-
BRDA:180,0,9,-
BRDA:180,0,10,-
BRDA:180,0,11,-
DA:181,0
BRDA:181,0,0,-
BRDA:181,0,1,-
BRDA:181,0,2,-
BRDA:181,0,3,-
DA:182,0
DA:183,0
BRDA:183,0,0,-
BRDA:183,0,1,-
BRDA:183,0,2,-
BRDA:183,0,3,-
DA:184,0
BRDA:184,0,0,-
BRDA:184,0,1,-
BRDA:184,0,2,-
BRDA:184,0,3,-
BRDA:184,0,4,-
BRDA:184,0,5,-
DA:185,0
BRDA:185,0,0,-
BRDA:185,0,1,-
BRDA:185,0,2,-
BRDA:185,0,3,-
BRDA:185,0,4,-
BRDA:185,0,5,-
DA:186,0
BRDA:186,0,0,-
BRDA:186,0,1,-
DA:187,0
DA:188,0
BRDA:188,0,0,-
BRDA:188,0,1,-
BRDA:188,0,2,-
BRDA:188,0,3,-
BRDA:188,0,4,-
BRDA:188,0,5,-
BRDA:188,0,6,-
BRDA:188,0,7,-
DA:190,0
DA:192,0
BRDA:192,0,0,-
BRDA:192,0,1,-
DA:193,0
DA:195,0
BRDA:195,0,0,-
BRDA:195,0,1,-
BRDA:195,0,2,-
BRDA:195,0,3,-
BRDA:195,0,4,-
BRDA:195,0,5,-
BRDA:195,0,6,-
BRDA:195,0,7,-
BRDA:195,0,8,-
BRDA:195,0,9,-
BRDA:195,0,10,-
BRDA:195,0,11,-
DA:196,0
BRDA:196,0,0,-
BRDA:196,0,1,-
BRDA:196,0,2,-
BRDA:196,0,3,-
DA:197,0
BRDA:197,0,0,-
BRDA:197,0,1,-
BRDA:197,0,2,-
BRDA:197,0,3,-
DA:198,0
BRDA:198,0,0,-
BRDA:198,0,1,-
BRDA:198,0,2,-
BRDA:198,0,3,-
BRDA:198,0,4,-
BRDA:198,0,5,-
BRDA:198,0,6,-
BRDA:198,0,7,-
DA:199,0
DA:200,0
BRDA:200,0,0,-
BRDA:200,0,1,-
BRDA:200,0,2,-
BRDA:200,0,3,-
DA:201,0
BRDA:201,0,0,-
BRDA:201,0,1,-
DA:202,0
DA:205,0
DA:206,0
DA:208,0
BRDA:208,0,0,-
BRDA:208,0,1,-
BRDA:208,0,2,-
BRDA:208,0,3,-
DA:209,0
BRDA:209,0,0,-
BRDA:209,0,1,-
BRDA:209,0,2,-
BRDA:209,0,3,-
BRDA:209,0,4,-
BRDA:209,0,5,-
DA:210,0
BRDA:210,0,0,-
BRDA:210,0,1,-
BRDA:210,0,2,-
BRDA:210,0,3,-
DA:212,0
BRDA:212,0,0,-
BRDA:212,0,1,-
BRDA:212,0,2,-
BRDA:212,0,3,-
BRDA:212,0,4,-
BRDA:212,0,5,-
DA:214,0
BRDA:214,0,0,-
BRDA:214,0,1,-
BRDA:214,0,2,-
BRDA:214,0,3,-
DA:215,0
BRDA:215,0,0,-
BRDA:215,0,1,-
BRDA:215,0,2,-
BRDA:215,0,3,-
DA:216,0
BRDA:216,0,0,-
BRDA:216,0,1,-
BRDA:216,0,2,-
BRDA:216,0,3,-
DA:219,0
BRDA:219,0,0,-
BRDA:219,0,1,-
DA:221,0
BRDA:221,0,0,-
BRDA:221,0,1,-
BRDA:221,0,2,-
BRDA:221,0,3,-
DA:222,0
BRDA:222,0,0,-
BRDA:222,0,1,-
DA:224,0
BRDA:224,0,0,-
BRDA:224,0,1,-
DA:226,0
BRDA:226,0,0,-
BRDA:226,0,1,-
BRDA:226,0,2,-
BRDA:226,0,3,-
BRDA:226,0,4,-
BRDA:226,0,5,-
DA:227,0
DA:230,0
BRDA:230,0,0,-
BRDA:230,0,1,-
BRDA:230,0,2,-
BRDA:230,0,3,-
DA:231,0
BRDA:231,0,0,-
BRDA:231,0,1,-
DA:233,0
BRDA:233,0,0,-
BRDA:233,0,1,-
BRDA:233,0,2,-
BRDA:233,0,3,-
BRDA:233,0,4,-
BRDA:233,0,5,-
DA:236,0
BRDA:236,0,0,-
BRDA:236,0,1,-
BRDA:236,0,2,-
BRDA:236,0,3,-
DA:237,0
DA:239,0
BRDA:239,0,0,-
BRDA:239,0,1,-
BRDA:239,0,2,-
BRDA:239,0,3,-
DA:240,0
BRDA:240,0,0,-
BRDA:240,0,1,-
BRDA:240,0,2,-
BRDA:240,0,3,-
BRDA:240,0,4,-
BRDA:240,0,5,-
DA:242,0
BRDA:242,0,0,-
BRDA:242,0,1,-
BRDA:242,0,2,-
BRDA:242,0,3,-
DA:243,0
BRDA:243,0,0,-
BRDA:243,0,1,-
BRDA:243,0,2,-
BRDA:243,0,3,-
DA:244,0
BRDA:244,0,0,-
BRDA:244,0,1,-
BRDA:244,0,2,-
BRDA:244,0,3,-
DA:245,0
BRDA:245,0,0,-
BRDA:245,0,1,-
BRDA:245,0,2,-
BRDA:245,0,3,-
DA:246,0
BRDA:246,0,0,-
BRDA:246,0,1,-
DA:248,0
BRDA:248,0,0,-
BRDA:248,0,1,-
DA:250,0
BRDA:250,0,0,-
BRDA:250,0,1,-
BRDA:250,0,2,-
BRDA:250,0,3,-
BRDA:250,0,4,-
BRDA:250,0,5,-
DA:251,0
BRDA:251,0,0,-
BRDA:251,0,1,-
DA:252,0
DA:254,0
BRDA:254,0,0,-
BRDA:254,0,1,-
DA:258,0
BRDA:258,0,0,-
BRDA:258,0,1,-
DA:260,0
BRDA:260,0,0,-
BRDA:260,0,1,-
DA:261,0
BRDA:261,0,0,-
BRDA:261,0,1,-
BRDA:261,0,2,-
BRDA:261,0,3,-
BRDA:261,0,4,-
BRDA:261,0,5,-
BRDA:261,0,6,-
BRDA:261,0,7,-
BRDA:261,0,8,-
BRDA:261,0,9,-
DA:263,0
BRDA:263,0,0,-
BRDA:263,0,1,-
DA:265,0
BRDA:265,0,0,-
BRDA:265,0,1,-
BRDA:265,0,2,-
BRDA:265,0,3,-
BRDA:265,0,4,-
BRDA:265,0,5,-
DA:267,0
BRDA:267,0,0,-
BRDA:267,0,1,-
BRDA:267,0,2,-
BRDA:267,0,3,-
DA:268,0
BRDA:268,0,0,-
BRDA:268,0,1,-
DA:271,0
BRDA:271,0,0,-
BRDA:271,0,1,-
DA:273,0
DA:275,0
BRDA:275,0,0,-
BRDA:275,0,1,-
BRDA:275,0,2,-
BRDA:275,0,3,-
DA:277,0
BRDA:277,0,0,-
BRDA:277,0,1,-
BRDA:277,0,2,-
BRDA:277,0,3,-
DA:279,0
BRDA:279,0,0,-
BRDA:279,0,1,-
DA:281,0
BRDA:281,0,0,-
BRDA:281,0,1,-
BRDA:281,0,2,-
BRDA:281,0,3,-
DA:283,0
BRDA:283,0,0,-
BRDA:283,0,1,-
DA:285,0
BRDA:285,0,0,-
BRDA:285,0,1,-
BRDA:285,0,2,-
BRDA:285,0,3,-
DA:286,0
BRDA:286,0,0,-
BRDA:286,0,1,-
DA:287,0
BRDA:287,0,0,-
BRDA:287,0,1,-
BRDA:287,0,2,-
BRDA:287,0,3,-
DA:288,0
BRDA:288,0,0,-
BRDA:288,0,1,-
DA:290,0
BRDA:290,0,0,-
BRDA:290,0,1,-
BRDA:290,0,2,-
BRDA:290,0,3,-
DA:294,0
BRDA:294,0,0,-
BRDA:294,0,1,-
BRDA:294,0,2,-
BRDA:294,0,3,-
DA:296,0
BRDA:296,0,0,-
BRDA:296,0,1,-
BRDA:296,0,2,-
BRDA:296,0,3,-
DA:297,0
BRDA:297,0,0,-
BRDA:297,0,1,-
DA:298,0
BRDA:298,0,0,-
BRDA:298,0,1,-
BRDA:298,0,2,-
BRDA:298,0,3,-
DA:299,0
BRDA:299,0,0,-
BRDA:299,0,1,-
DA:301,0
BRDA:301,0,0,-
BRDA:301,0,1,-
BRDA:301,0,2,-
BRDA:301,0,3,-
BRDA:301,0,4,-
BRDA:301,0,5,-
BRDA:301,0,6,-
BRDA:301,0,7,-
DA:304,0
BRDA:304,0,0,-
BRDA:304,0,1,-
BRDA:304,0,2,-
BRDA:304,0,3,-
DA:306,0
BRDA:306,0,0,-
BRDA:306,0,1,-
BRDA:306,0,2,-
BRDA:306,0,3,-
DA:308,0
BRDA:308,0,0,-
BRDA:308,0,1,-
DA:310,0
BRDA:310,0,0,-
BRDA:310,0,1,-
BRDA:310,0,2,-
BRDA:310,0,3,-
DA:311,0
BRDA:311,0,0,-
BRDA:311,0,1,-
DA:312,0
BRDA:312,0,0,-
BRDA:312,0,1,-
BRDA:312,0,2,-
BRDA:312,0,3,-
DA:313,0
BRDA:313,0,0,-
BRDA:313,0,1,-
DA:316,0
BRDA:316,0,0,-
BRDA:316,0,1,-
BRDA:316,0,2,-
BRDA:316,0,3,-
DA:318,0
BRDA:318,0,0,-
BRDA:318,0,1,-
BRDA:318,0,2,-
BRDA:318,0,3,-
DA:319,0
BRDA:319,0,0,-
BRDA:319,0,1,-
DA:321,0
BRDA:321,0,0,-
BRDA:321,0,1,-
BRDA:321,0,2,-
BRDA:321,0,3,-
DA:322,0
BRDA:322,0,0,-
BRDA:322,0,1,-
DA:325,0
BRDA:325,0,0,-
BRDA:325,0,1,-
BRDA:325,0,2,-
BRDA:325,0,3,-
DA:327,0
BRDA:327,0,0,-
BRDA:327,0,1,-
BRDA:327,0,2,-
BRDA:327,0,3,-
DA:328,0
DA:330,0
DA:334,0
DA:335,0
DA:337,0
BRDA:337,0,0,-
BRDA:337,0,1,-
DA:338,0
DA:339,0
BRDA:339,0,0,-
BRDA:339,0,1,-
BRDA:339,0,2,-
BRDA:339,0,3,-
BRDA:339,0,4,-
BRDA:339,0,5,-
DA:340,0
BRDA:340,0,0,-
BRDA:340,0,1,-
DA:342,0
DA:343,0
BRDA:343,0,0,-
BRDA:343,0,1,-
BRDA:343,0,2,-
BRDA:343,0,3,-
DA:345,0
BRDA:345,0,0,-
BRDA:345,0,1,-
DA:347,0
BRDA:347,0,0,-
BRDA:347,0,1,-
BRDA:347,0,2,-
BRDA:347,0,3,-
DA:349,0
BRDA:349,0,0,-
BRDA:349,0,1,-
DA:352,0
BRDA:352,0,0,-
BRDA:352,0,1,-
BRDA:352,0,2,-
BRDA:352,0,3,-
DA:354,0
BRDA:354,0,0,-
BRDA:354,0,1,-
DA:355,0
BRDA:355,0,0,-
BRDA:355,0,1,-
DA:356,0
BRDA:356,0,0,-
BRDA:356,0,1,-
DA:357,0
BRDA:357,0,0,-
BRDA:357,0,1,-
BRDA:357,0,2,-
BRDA:357,0,3,-
BRDA:357,0,4,-
BRDA:357,0,5,-
BRDA:357,0,6,-
BRDA:357,0,7,-
DA:358,0
BRDA:358,0,0,-
BRDA:358,0,1,-
DA:360,0
BRDA:360,0,0,-
BRDA:360,0,1,-
BRDA:360,0,2,-
BRDA:360,0,3,-
DA:362,0
BRDA:362,0,0,-
BRDA:362,0,1,-
DA:363,0
BRDA:363,0,0,-
BRDA:363,0,1,-
BRDA:363,0,2,-
BRDA:363,0,3,-
DA:364,0
BRDA:364,0,0,-
BRDA:364,0,1,-
DA:366,0
BRDA:366,0,0,-
BRDA:366,0,1,-
DA:368,0
BRDA:368,0,0,-
BRDA:368,0,1,-
DA:369,0
BRDA:369,0,0,-
BRDA:369,0,1,-
DA:374,0
BRDA:374,0,0,-
BRDA:374,0,1,-
BRDA:374,0,2,-
BRDA:374,0,3,-
DA:375,0
BRDA:375,0,0,-
BRDA:375,0,1,-
DA:376,0
BRDA:376,0,0,-
BRDA:376,0,1,-
DA:377,0
BRDA:377,0,0,-
BRDA:377,0,1,-
DA:378,0
BRDA:378,0,0,-
BRDA:378,0,1,-
DA:381,0
BRDA:381,0,0,-
BRDA:381,0,1,-
DA:382,0
BRDA:382,0,0,-
BRDA:382,0,1,-
DA:383,0
BRDA:383,0,0,-
BRDA:383,0,1,-
DA:384,0
BRDA:384,0,0,-
BRDA:384,0,1,-
DA:387,0
DA:389,0
DA:392,0
BRDA:392,0,0,-
BRDA:392,0,1,-
BRDA:392,0,2,-
BRDA:392,0,3,-
DA:393,0
BRDA:393,0,0,-
BRDA:393,0,1,-
BRDA:393,0,2,-
BRDA:393,0,3,-
BRDA:393,0,4,-
BRDA:393,0,5,-
DA:395,0
BRDA:395,0,0,-
BRDA:395,0,1,-
BRDA:395,0,2,-
BRDA:395,0,3,-
DA:396,0
BRDA:396,0,0,-
BRDA:396,0,1,-
BRDA:396,0,2,-
BRDA:396,0,3,-
DA:398,0
BRDA:398,0,0,-
BRDA:398,0,1,-
BRDA:398,0,2,-
BRDA:398,0,3,-
DA:400,0
DA:401,0
DA:404,0
BRDA:404,0,0,-
BRDA:404,0,1,-
BRDA:404,0,2,-
BRDA:404,0,3,-
DA:405,0
BRDA:405,0,0,-
BRDA:405,0,1,-
BRDA:405,0,2,-
BRDA:405,0,3,-
DA:406,0
BRDA:406,0,0,-
BRDA:406,0,1,-
BRDA:406,0,2,-
BRDA:406,0,3,-
DA:407,0
BRDA:407,0,0,-
BRDA:407,0,1,-
BRDA:407,0,2,-
BRDA:407,0,3,-
BRDA:407,0,4,-
BRDA:407,0,5,-
BRDA:407,0,6,-
BRDA:407,0,7,-
BRDA:407,0,8,-
BRDA:407,0,9,-
DA:409,0
BRDA:409,0,0,-
BRDA:409,0,1,-
BRDA:409,0,2,-
BRDA:409,0,3,-
BRDA:409,0,4,-
BRDA:409,0,5,-
DA:410,0
BRDA:410,0,0,-
BRDA:410,0,1,-
BRDA:410,0,2,-
BRDA:410,0,3,-
DA:412,0
BRDA:412,0,0,-
BRDA:412,0,1,-
BRDA:412,0,2,-
BRDA:412,0,3,-
DA:413,0
BRDA:413,0,0,-
BRDA:413,0,1,-
BRDA:413,0,2,-
BRDA:413,0,3,-
DA:415,0
BRDA:415,0,0,-
BRDA:415,0,1,-
BRDA:415,0,2,-
BRDA:415,0,3,-
DA:417,0
BRDA:417,0,0,-
BRDA:417,0,1,-
BRDA:417,0,2,-
BRDA:417,0,3,-
DA:418,0
BRDA:418,0,0,-
BRDA:418,0,1,-
BRDA:418,0,2,-
BRDA:418,0,3,-
DA:420,0
BRDA:420,0,0,-
BRDA:420,0,1,-
DA:421,0
BRDA:421,0,0,-
BRDA:421,0,1,-
DA:422,0
DA:425,40
DA:427,40
BRDA:427,0,0,8
BRDA:427,0,1,32
DA:428,8
BRDA:428,0,0,1
BRDA:428,0,1,7
DA:429,1
DA:431,7
BRDA:431,0,0,1
BRDA:431,0,1,6
DA:432,1
DA:434,6
DA:436,32
DA:439,0
DA:441,0
BRDA:441,0,0,-
BRDA:441,0,1,-
DA:443,0
BRDA:443,0,0,-
BRDA:443,0,1,-
DA:444,0
BRDA:444,0,0,-
BRDA:444,0,1,-
DA:445,0
BRDA:445,0,0,-
BRDA:445,0,1,-
DA:446,0
BRDA:446,0,0,-
BRDA:446,0,1,-
DA:447,0
BRDA:447,0,0,-
BRDA:447,0,1,-
DA:448,0
BRDA:448,0,0,-
BRDA:448,0,1,-
DA:449,0
BRDA:449,0,0,-
BRDA:449,0,1,-
DA:450,0
BRDA:450,0,0,-
BRDA:450,0,1,-
DA:451,0
BRDA:451,0,0,-
BRDA:451,0,1,-
DA:452,0
BRDA:452,0,0,-
BRDA:452,0,1,-
DA:453,0
BRDA:453,0,0,-
BRDA:453,0,1,-
DA:454,0
BRDA:454,0,0,-
BRDA:454,0,1,-
DA:455,0
BRDA:455,0,0,-
BRDA:455,0,1,-
DA:456,0
BRDA:456,0,0,-
BRDA:456,0,1,-
DA:458,0
BRDA:458,0,0,-
BRDA:458,0,1,-
BRDA:458,0,2,-
BRDA:458,0,3,-
DA:459,0
DA:461,0
DA:463,0
BRDA:463,0,0,-
BRDA:463,0,1,-
BRDA:463,0,2,-
BRDA:463,0,3,-
BRDA:463,0,4,-
BRDA:463,0,5,-
DA:464,0
BRDA:464,0,0,-
BRDA:464,0,1,-
DA:465,0
DA:467,0
DA:468,0
DA:471,0
BRDA:471,0,0,-
BRDA:471,0,1,-
DA:472,0
DA:475,0
BRDA:475,0,0,-
BRDA:475,0,1,-
DA:476,0
DA:478,0
DA:480,0
BRDA:480,0,0,-
BRDA:480,0,1,-
BRDA:480,0,2,-
BRDA:480,0,3,-
DA:481,0
DA:482,0
BRDA:482,0,0,-
BRDA:482,0,1,-
BRDA:482,0,2,-
BRDA:482,0,3,-
BRDA:482,0,4,-
BRDA:482,0,5,-
DA:483,0
BRDA:483,0,0,-
BRDA:483,0,1,-
BRDA:483,0,2,-
BRDA:483,0,3,-
BRDA:483,0,4,-
BRDA:483,0,5,-
DA:489,0
DA:491,0
DA:492,0
DA:493,0
DA:494,0
DA:495,0
DA:496,0
DA:497,2
DA:500,2
BRDA:500,0,0,2
BRDA:500,0,1,0
DA:501,2
BRDA:501,0,0,2
BRDA:501,0,1,0
DA:502,2
BRDA:502,0,0,2
BRDA:502,0,1,0
BRDA:502,0,2,2
BRDA:502,0,3,0
DA:503,2
BRDA:503,0,0,2
BRDA:503,0,1,0
BRDA:503,0,2,2
BRDA:503,0,3,0
BRDA:503,0,4,2
BRDA:503,0,5,0
DA:505,2
BRDA:505,0,0,2
BRDA:505,0,1,0
BRDA:505,0,2,2
BRDA:505,0,3,0
BRDA:505,0,4,2
BRDA:505,0,5,0
BRDA:505,0,6,2
BRDA:505,0,7,0
BRDA:505,0,8,2
BRDA:505,0,9,0
DA:507,4
DA:508,2
DA:509,1
DA:511,1
DA:512,1
BRDA:512,0,0,1
BRDA:512,0,1,0
DA:516,1
DA:517,1
BRDA:517,0,0,1
BRDA:517,0,1,0
BRDA:517,0,2,1
BRDA:517,0,3,0
DA:518,1
BRDA:518,0,0,1
BRDA:518,0,1,0
DA:519,1
DA:522,1
DA:523,0
DA:525,2
DA:527,2
DA:528,2
BRDA:528,0,0,2
BRDA:528,0,1,0
DA:529,2
DA:531,2
DA:533,34
BRDA:533,0,0,32
BRDA:533,0,1,2
DA:534,32
DA:535,32
DA:536,201
BRDA:536,0,0,32
BRDA:536,0,1,0
BRDA:536,0,2,32
BRDA:536,0,3,0
BRDA:536,0,4,169
BRDA:536,0,5,32
DA:537,169
BRDA:537,0,0,12
BRDA:537,0,1,157
DA:538,12
DA:541,32
BRDA:541,0,0,20
BRDA:541,0,1,12
DA:542,20
BRDA:542,0,0,20
BRDA:542,0,1,0
DA:545,2
DA:546,0
DA:550,1
DA:552,1
DA:554,1
DA:555,1
BRDA:555,0,0,1
BRDA:555,0,1,0
DA:557,1
BRDA:557,0,0,1
BRDA:557,0,1,0
DA:558,1
BRDA:558,0,0,1
BRDA:558,0,1,0
BRDA:558,0,2,1
BRDA:558,0,3,0
DA:560,1
BRDA:560,0,0,1
BRDA:560,0,1,0
BRDA:560,0,2,1
BRDA:560,0,3,0
BRDA:560,0,4,1
BRDA:560,0,5,0
DA:561,1
BRDA:561,0,0,1
BRDA:561,0,1,0
DA:563,1
BRDA:563,0,0,1
BRDA:563,0,1,0
BRDA:563,0,2,1
BRDA:563,0,3,0
BRDA:563,0,4,1
BRDA:563,0,5,0
DA:564,1
BRDA:564,0,0,1
BRDA:564,0,1,0
DA:566,1
BRDA:566,0,0,1
BRDA:566,0,1,0
BRDA:566,0,2,1
BRDA:566,0,3,0
BRDA:566,0,4,1
BRDA:566,0,5,0
BRDA:566,0,6,1
BRDA:566,0,7,0
DA:567,1
DA:569,1
DA:570,1
BRDA:570,0,0,1
BRDA:570,0,1,0
DA:571,1
DA:574,0
DA:577,1
DA:578,1
BRDA:578,0,0,1
BRDA:578,0,1,0
DA:579,1
DA:582,0
DA:585,1
DA:587,0
DA:589,0
DA:590,0
DA:591,0
BRDA:591,0,0,-
BRDA:591,0,1,-
DA:592,0
BRDA:592,0,0,-
BRDA:592,0,1,-
DA:593,0
BRDA:593,0,0,-
BRDA:593,0,1,-
DA:594,0
BRDA:594,0,0,-
BRDA:594,0,1,-
DA:595,0
BRDA:595,0,0,-
BRDA:595,0,1,-
DA:596,0
BRDA:596,0,0,-
BRDA:596,0,1,-
DA:597,0
BRDA:597,0,0,-
BRDA:597,0,1,-
DA:599,0
BRDA:599,0,0,-
BRDA:599,0,1,-
BRDA:599,0,2,-
BRDA:599,0,3,-
DA:601,0
BRDA:601,0,0,-
BRDA:601,0,1,-
DA:602,0
BRDA:602,0,0,-
BRDA:602,0,1,-
DA:604,0
DA:606,1296
DA:609,1296
DA:610,1296
DA:612,1296
BRDA:612,0,0,1296
BRDA:612,0,1,0
DA:613,1296
BRDA:613,0,0,1296
BRDA:613,0,1,0
DA:615,6480
BRDA:615,0,0,5184
BRDA:615,0,1,1296
DA:617,5184
BRDA:617,0,0,5184
BRDA:617,0,1,0
BRDA:617,0,2,5184
BRDA:617,0,3,0
BRDA:617,0,4,864
BRDA:617,0,5,4320
DA:619,864
DA:620,864
BRDA:620,0,0,864
BRDA:620,0,1,0
DA:621,864
BRDA:621,0,0,864
BRDA:621,0,1,0
DA:625,6480
BRDA:625,0,0,5184
BRDA:625,0,1,1296
DA:627,21370
BRDA:627,0,0,18006
BRDA:627,0,1,3364
DA:629,18006
BRDA:629,0,0,18006
BRDA:629,0,1,0
BRDA:629,0,2,18006
BRDA:629,0,3,0
BRDA:629,0,4,3456
BRDA:629,0,5,14550
BRDA:629,0,6,3456
BRDA:629,0,7,0
BRDA:629,0,8,1820
BRDA:629,0,9,1636
BRDA:629,0,10,1820
BRDA:629,0,11,0
BRDA:629,0,12,1820
BRDA:629,0,13,0
BRDA:629,0,14,1820
BRDA:629,0,15,16186
DA:631,1820
BRDA:631,0,0,1820
BRDA:631,0,1,0
DA:632,1820
BRDA:632,0,0,1820
BRDA:632,0,1,0
DA:633,1820
DA:634,1820
DA:640,3888
BRDA:640,0,0,1296
BRDA:640,0,1,0
BRDA:640,0,2,1296
BRDA:640,0,3,0
BRDA:640,0,4,1296
BRDA:640,0,5,0
DA:641,1296
DA:643,50
DA:646,50
BRDA:646,0,0,10
BRDA:646,0,1,40
DA:647,10
DA:650,40
BRDA:650,0,0,30
BRDA:650,0,1,10
DA:651,30
DA:653,10
DA:657,0
DA:659,0
BRDA:659,0,0,-
BRDA:659,0,1,-
DA:660,0
DA:662,0
BRDA:662,0,0,-
BRDA:662,0,1,-
BRDA:662,0,2,-
BRDA:662,0,3,-
BRDA:662,0,4,-
BRDA:662,0,5,-
DA:664,0
BRDA:664,0,0,-
BRDA:664,0,1,-
DA:665,0
BRDA:665,0,0,-
BRDA:665,0,1,-
DA:667,0
BRDA:667,0,0,-
BRDA:667,0,1,-
DA:669,0
BRDA:669,0,0,-
BRDA:669,0,1,-
DA:670,0
BRDA:670,0,0,-
BRDA:670,0,1,-
DA:671,0
BRDA:671,0,0,-
BRDA:671,0,1,-
DA:672,0
BRDA:672,0,0,-
BRDA:672,0,1,-
DA:674,0
BRDA:674,0,0,-
BRDA:674,0,1,-
DA:675,0
BRDA:675,0,0,-
BRDA:675,0,1,-
DA:676,0
BRDA:676,0,0,-
BRDA:676,0,1,-
DA:677,0
BRDA:677,0,0,-
BRDA:677,0,1,-
DA:679,0
BRDA:679,0,0,-
BRDA:679,0,1,-
DA:680,0
BRDA:680,0,0,-
BRDA:680,0,1,-
DA:682,0
BRDA:682,0,0,-
BRDA:682,0,1,-
DA:683,0
DA:686,0
DA:688,0
BRDA:688,0,0,-
BRDA:688,0,1,-
DA:690,0
BRDA:690,0,0,-
BRDA:690,0,1,-
BRDA:690,0,2,-
BRDA:690,0,3,-
DA:691,0
BRDA:691,0,0,-
BRDA:691,0,1,-
BRDA:691,0,2,-
BRDA:691,0,3,-
DA:692,0
DA:694,0
BRDA:694,0,0,-
BRDA:694,0,1,-
BRDA:694,0,2,-
BRDA:694,0,3,-
BRDA:694,0,4,-
BRDA:694,0,5,-
DA:695,0
BRDA:695,0,0,-
BRDA:695,0,1,-
BRDA:695,0,2,-
BRDA:695,0,3,-
DA:697,0
BRDA:697,0,0,-
BRDA:697,0,1,-
BRDA:697,0,2,-
BRDA:697,0,3,-
BRDA:697,0,4,-
BRDA:697,0,5,-
BRDA:697,0,6,-
BRDA:697,0,7,-
DA:698,0
BRDA:698,0,0,-
BRDA:698,0,1,-
BRDA:698,0,2,-
BRDA:698,0,3,-
BRDA:698,0,4,-
BRDA:698,0,5,-
BRDA:698,0,6,-
BRDA:698,0,7,-
BRDA:698,0,8,-
BRDA:698,0,9,-
DA:700,0
BRDA:700,0,0,-
BRDA:700,0,1,-
BRDA:700,0,2,-
BRDA:700,0,3,-
BRDA:700,0,4,-
BRDA:700,0,5,-
DA:701,0
BRDA:701,0,0,-
BRDA:701,0,1,-
DA:702,0
BRDA:702,0,0,-
BRDA:702,0,1,-
DA:703,0
DA:705,0
DA:707,0
BRDA:707,0,0,-
BRDA:707,0,1,-
BRDA:707,0,2,-
BRDA:707,0,3,-
DA:708,0
BRDA:708,0,0,-
BRDA:708,0,1,-
BRDA:708,0,2,-
BRDA:708,0,3,-
DA:709,0
BRDA:709,0,0,-
BRDA:709,0,1,-
BRDA:709,0,2,-
BRDA:709,0,3,-
DA:711,0
BRDA:711,0,0,-
BRDA:711,0,1,-
BRDA:711,0,2,-
BRDA:711,0,3,-
BRDA:711,0,4,-
BRDA:711,0,5,-
BRDA:711,0,6,-
BRDA:711,0,7,-
BRDA:711,0,8,-
BRDA:711,0,9,-
BRDA:711,0,10,-
BRDA:711,0,11,-
DA:713,0
BRDA:713,0,0,-
BRDA:713,0,1,-
DA:714,0
BRDA:714,0,0,-
BRDA:714,0,1,-
DA:715,0
BRDA:715,0,0,-
BRDA:715,0,1,-
BRDA:715,0,2,-
BRDA:715,0,3,-
BRDA:715,0,4,-
BRDA:715,0,5,-
DA:717,0
BRDA:717,0,0,-
BRDA:717,0,1,-
BRDA:717,0,2,-
BRDA:717,0,3,-
DA:718,0
BRDA:718,0,0,-
BRDA:718,0,1,-
DA:720,0
BRDA:720,0,0,-
BRDA:720,0,1,-
DA:723,0
BRDA:723,0,0,-
BRDA:723,0,1,-
DA:725,0
BRDA:725,0,0,-
BRDA:725,0,1,-
DA:726,0
BRDA:726,0,0,-
BRDA:726,0,1,-
DA:727,0
DA:729,0
DA:731,0
BRDA:731,0,0,-
BRDA:731,0,1,-
BRDA:731,0,2,-
BRDA:731,0,3,-
DA:733,0
BRDA:733,0,0,-
BRDA:733,0,1,-
DA:734,0
BRDA:734,0,0,-
BRDA:734,0,1,-
DA:735,0
BRDA:735,0,0,-
BRDA:735,0,1,-
BRDA:735,0,2,-
BRDA:735,0,3,-
BRDA:735,0,4,-
BRDA:735,0,5,-
DA:736,0
BRDA:736,0,0,-
BRDA:736,0,1,-
DA:737,0
BRDA:737,0,0,-
BRDA:737,0,1,-
BRDA:737,0,2,-
BRDA:737,0,3,-
BRDA:737,0,4,-
BRDA:737,0,5,-
BRDA:737,0,6,-
BRDA:737,0,7,-
BRDA:737,0,8,-
BRDA:737,0,9,-
DA:739,0
BRDA:739,0,0,-
BRDA:739,0,1,-
BRDA:739,0,2,-
BRDA:739,0,3,-
DA:740,0
BRDA:740,0,0,-
BRDA:740,0,1,-
DA:741,0
BRDA:741,0,0,-
BRDA:741,0,1,-
BRDA:741,0,2,-
BRDA:741,0,3,-
DA:742,0
BRDA:742,0,0,-
BRDA:742,0,1,-
DA:743,0
DA:745,0
DA:747,0
BRDA:747,0,0,-
BRDA:747,0,1,-
BRDA:747,0,2,-
BRDA:747,0,3,-
DA:748,0
BRDA:748,0,0,-
BRDA:748,0,1,-
DA:749,0
BRDA:749,0,0,-
BRDA:749,0,1,-
BRDA:749,0,2,-
BRDA:749,0,3,-
DA:751,0
BRDA:751,0,0,-
BRDA:751,0,1,-
BRDA:751,0,2,-
BRDA:751,0,3,-
BRDA:751,0,4,-
BRDA:751,0,5,-
BRDA:751,0,6,-
BRDA:751,0,7,-
BRDA:751,0,8,-
BRDA:751,0,9,-
DA:753,0
BRDA:753,0,0,-
BRDA:753,0,1,-
BRDA:753,0,2,-
BRDA:753,0,3,-
BRDA:753,0,4,-
BRDA:753,0,5,-
DA:754,0
BRDA:754,0,0,-
BRDA:754,0,1,-
BRDA:754,0,2,-
BRDA:754,0,3,-
DA:756,0
BRDA:756,0,0,-
BRDA:756,0,1,-
DA:758,0
BRDA:758,0,0,-
BRDA:758,0,1,-
DA:759,0
BRDA:759,0,0,-
BRDA:759,0,1,-
DA:760,0
DA:764,0
DA:766,0
BRDA:766,0,0,-
BRDA:766,0,1,-
BRDA:766,0,2,-
BRDA:766,0,3,-
DA:767,0
BRDA:767,0,0,-
BRDA:767,0,1,-
DA:768,0
BRDA:768,0,0,-
BRDA:768,0,1,-
BRDA:768,0,2,-
BRDA:768,0,3,-
DA:769,0
DA:771,0
BRDA:771,0,0,-
BRDA:771,0,1,-
BRDA:771,0,2,-
BRDA:771,0,3,-
BRDA:771,0,4,-
BRDA:771,0,5,-
DA:772,0
BRDA:772,0,0,-
BRDA:772,0,1,-
DA:773,0
BRDA:773,0,0,-
BRDA:773,0,1,-
DA:775,0
BRDA:775,0,0,-
BRDA:775,0,1,-
BRDA:775,0,2,-
BRDA:775,0,3,-
DA:777,0
BRDA:777,0,0,-
BRDA:777,0,1,-
BRDA:777,0,2,-
BRDA:777,0,3,-
BRDA:777,0,4,-
BRDA:777,0,5,-
BRDA:777,0,6,-
BRDA:777,0,7,-
DA:778,0
DA:780,0
BRDA:780,0,0,-
BRDA:780,0,1,-
DA:781,0
BRDA:781,0,0,-
BRDA:781,0,1,-
DA:782,0
BRDA:782,0,0,-
BRDA:782,0,1,-
DA:784,0
BRDA:784,0,0,-
BRDA:784,0,1,-
DA:785,0
BRDA:785,0,0,-
BRDA:785,0,1,-
BRDA:785,0,2,-
BRDA:785,0,3,-
DA:786,0
BRDA:786,0,0,-
BRDA:786,0,1,-
BRDA:786,0,2,-
BRDA:786,0,3,-
BRDA:786,0,4,-
BRDA:786,0,5,-
DA:788,0
BRDA:788,0,0,-
BRDA:788,0,1,-
BRDA:788,0,2,-
BRDA:788,0,3,-
BRDA:788,0,4,-
BRDA:788,0,5,-
DA:790,0
BRDA:790,0,0,-
BRDA:790,0,1,-
DA:792,0
BRDA:792,0,0,-
BRDA:792,0,1,-
DA:794,0
BRDA:794,0,0,-
BRDA:794,0,1,-
BRDA:794,0,2,-
BRDA:794,0,3,-
BRDA:794,0,4,-
BRDA:794,0,5,-
DA:798,0
BRDA:798,0,0,-
BRDA:798,0,1,-
BRDA:798,0,2,-
BRDA:798,0,3,-
BRDA:798,0,4,-
BRDA:798,0,5,-
BRDA:798,0,6,-
BRDA:798,0,7,-
BRDA:798,0,8,-
BRDA:798,0,9,-
DA:799,0
BRDA:799,0,0,-
BRDA:799,0,1,-
BRDA:799,0,2,-
BRDA:799,0,3,-
DA:803,0
BRDA:803,0,0,-
BRDA:803,0,1,-
DA:804,0
BRDA:804,0,0,-
BRDA:804,0,1,-
DA:805,0
DA:807,40
DA:809,40
DA:811,40
BRDA:811,0,0,20
BRDA:811,0,1,20
DA:813,20
BRDA:813,0,0,10
BRDA:813,0,1,10
DA:815,10
BRDA:815,0,0,2
BRDA:815,0,1,8
DA:817,12
BRDA:817,0,0,2
BRDA:817,0,1,0
BRDA:817,0,2,2
BRDA:817,0,3,0
BRDA:817,0,4,2
BRDA:817,0,5,0
BRDA:817,0,6,10
BRDA:817,0,7,2
DA:818,10
DA:822,8
DA:823,8
DA:827,10
DA:831,20
DA:832,20
DA:835,40
DA:838,1
DA:840,3
BRDA:840,0,0,2
BRDA:840,0,1,1
DA:842,2
BRDA:842,0,0,2
BRDA:842,0,1,0
DA:844,12
BRDA:844,0,0,2
BRDA:844,0,1,0
BRDA:844,0,2,2
BRDA:844,0,3,0
BRDA:844,0,4,2
BRDA:844,0,5,0
BRDA:844,0,6,10
BRDA:844,0,7,2
DA:846,10
BRDA:846,0,0,10
BRDA:846,0,1,0
BRDA:846,0,2,10
BRDA:846,0,3,0
DA:848,10
BRDA:848,0,0,2
BRDA:848,0,1,0
BRDA:848,0,2,2
BRDA:848,0,3,0
BRDA:848,0,4,2
BRDA:848,0,5,0
BRDA:848,0,6,8
BRDA:848,0,7,2
DA:850,40
BRDA:850,0,0,8
BRDA:850,0,1,0
BRDA:850,0,2,8
BRDA:850,0,3,0
BRDA:850,0,4,32
BRDA:850,0,5,8
DA:851,32
BRDA:851,0,0,32
BRDA:851,0,1,0
BRDA:851,0,2,32
BRDA:851,0,3,0
DA:852,8
DA:854,2
BRDA:854,0,0,2
BRDA:854,0,1,0
DA:855,2
BRDA:855,0,0,2
BRDA:855,0,1,0
DA:856,2
BRDA:856,0,0,2
BRDA:856,0,1,0
BRDA:856,0,2,2
BRDA:856,0,3,0
BRDA:856,0,4,2
BRDA:856,0,5,0
DA:858,2
DA:859,1
DA:861,0
DA:863,0
BRDA:863,0,0,-
BRDA:863,0,1,-
BRDA:863,0,2,-
BRDA:863,0,3,-
DA:865,0
BRDA:865,0,0,-
BRDA:865,0,1,-
BRDA:865,0,2,-
BRDA:865,0,3,-
DA:867,0
BRDA:867,0,0,-
BRDA:867,0,1,-
BRDA:867,0,2,-
BRDA:867,0,3,-
DA:868,0
BRDA:868,0,0,-
BRDA:868,0,1,-
DA:869,0
BRDA:869,0,0,-
BRDA:869,0,1,-
BRDA:869,0,2,-
BRDA:869,0,3,-
DA:870,0
BRDA:870,0,0,-
BRDA:870,0,1,-
DA:871,0
end_of_record
SF:/home/pavle/Qt/6.6.1/gcc_64/include/QtCore/qmetatype.h
FN:1221,_ZN12QMetaTypeId2IN15QAbstractSocket11SocketStateEE14qt_metatype_idEv
FNDA:0,_ZN12QMetaTypeId2IN15QAbstractSocket11SocketStateEE14qt_metatype_idEv
FN:1238,_ZN9QtPrivate17QMetaTypeIdHelperIN15QAbstractSocket11SocketStateELb1EE14qt_metatype_idEv
FNDA:0,_ZN9QtPrivate17QMetaTypeIdHelperIN15QAbstractSocket11SocketStateELb1EE14qt_metatype_idEv
FN:1373,_Z17qRegisterMetaTypeIN15QAbstractSocket11SocketStateEEiPKc
FNDA:0,_Z17qRegisterMetaTypeIN15QAbstractSocket11SocketStateEEiPKc
DA:1221,0
DA:1238,0
DA:1239,0
DA:1373,0
DA:1378,0
BRDA:1378,0,0,-
BRDA:1378,0,1,-
DA:1380,0
BRDA:1380,0,0,-
BRDA:1380,0,1,-
DA:1381,0
end_of_record
SF:/usr/include/c++/11/new
FN:174,_ZnwmPv
FNDA:0,_ZnwmPv
DA:174,0
DA:175,0
end_of_record
SF:/usr/include/c++/11/bits/predefined_ops.h
FN:150,_ZN9__gnu_cxx5__ops15_Iter_comp_iterIZN6Server15socketReadyReadEvEUlPK9GameModelS5_E0_EC2ES6_
FNDA:0,_ZN9__gnu_cxx5__ops15_Iter_comp_iterIZN6Server15socketReadyReadEvEUlPK9GameModelS5_E0_EC2ES6_
FN:157,_ZN9__gnu_cxx5__ops15_Iter_comp_iterIZN6Server15socketReadyReadEvEUlPK9GameModelS5_E0_EclIN5QListIPS3_E8iteratorESC_EEbT_T0_
FNDA:0,_ZN9__gnu_cxx5__ops15_Iter_comp_iterIZN6Server15socketReadyReadEvEUlPK9GameModelS5_E0_EclIN5QListIPS3_E8iteratorESC_EEbT_T0_
FN:164,_ZN9__gnu_cxx5__ops16__iter_comp_iterIZN6Server15socketReadyReadEvEUlPK9GameModelS5_E0_EENS0_15_Iter_comp_iterIT_EES8_
FNDA:0,_ZN9__gnu_cxx5__ops16__iter_comp_iterIZN6Server15socketReadyReadEvEUlPK9GameModelS5_E0_EENS0_15_Iter_comp_iterIT_EES8_
FN:187,_ZN9__gnu_cxx5__ops14_Iter_comp_valIZN6Server15socketReadyReadEvEUlPK9GameModelS5_E0_EC2EONS0_15_Iter_comp_iterIS6_EE
FNDA:0,_ZN9__gnu_cxx5__ops14_Iter_comp_valIZN6Server15socketReadyReadEvEUlPK9GameModelS5_E0_EC2EONS0_15_Iter_comp_iterIS6_EE
FN:195,_ZN9__gnu_cxx5__ops14_Iter_comp_valIZN6Server15socketReadyReadEvEUlPK9GameModelS5_E0_EclIN5QListIPS3_E8iteratorESA_EEbT_RT0_
FNDA:0,_ZN9__gnu_cxx5__ops14_Iter_comp_valIZN6Server15socketReadyReadEvEUlPK9GameModelS5_E0_EclIN5QListIPS3_E8iteratorESA_EEbT_RT0_
FN:231,_ZN9__gnu_cxx5__ops14_Val_comp_iterIZN6Server15socketReadyReadEvEUlPK9GameModelS5_E0_EC2EONS0_15_Iter_comp_iterIS6_EE
FNDA:0,_ZN9__gnu_cxx5__ops14_Val_comp_iterIZN6Server15socketReadyReadEvEUlPK9GameModelS5_E0_EC2EONS0_15_Iter_comp_iterIS6_EE
FN:239,_ZN9__gnu_cxx5__ops14_Val_comp_iterIZN6Server15socketReadyReadEvEUlPK9GameModelS5_E0_EclIPS3_N5QListIS9_E8iteratorEEEbRT_T0_
FNDA:0,_ZN9__gnu_cxx5__ops14_Val_comp_iterIZN6Server15socketReadyReadEvEUlPK9GameModelS5_E0_EclIPS3_N5QListIS9_E8iteratorEEEbRT_T0_
FN:252,_ZN9__gnu_cxx5__ops15__val_comp_iterIZN6Server15socketReadyReadEvEUlPK9GameModelS5_E0_EENS0_14_Val_comp_iterIT_EENS0_15_Iter_comp_iterIS8_EE
FNDA:0,_ZN9__gnu_cxx5__ops15__val_comp_iterIZN6Server15socketReadyReadEvEUlPK9GameModelS5_E0_EENS0_14_Val_comp_iterIT_EENS0_15_Iter_comp_iterIS8_EE
FN:310,_ZN9__gnu_cxx5__ops10_Iter_predIZN6Server15socketReadyReadEvEUlPK9GameModelE_EC2ES6_
FNDA:0,_ZN9__gnu_cxx5__ops10_Iter_predIZN6Server15socketReadyReadEvEUlPK9GameModelE_EC2ES6_
FN:317,_ZN9__gnu_cxx5__ops10_Iter_predIZN6Server15socketReadyReadEvEUlPK9GameModelE_EclIN5QListIPS3_E8iteratorEEEbT_
FNDA:0,_ZN9__gnu_cxx5__ops10_Iter_predIZN6Server15socketReadyReadEvEUlPK9GameModelE_EclIN5QListIPS3_E8iteratorEEEbT_
FN:324,_ZN9__gnu_cxx5__ops11__pred_iterIZN6Server15socketReadyReadEvEUlPK9GameModelE_EENS0_10_Iter_predIT_EES8_
FNDA:0,_ZN9__gnu_cxx5__ops11__pred_iterIZN6Server15socketReadyReadEvEUlPK9GameModelE_EENS0_10_Iter_predIT_EES8_
DA:150,0
DA:151,0
DA:152,0
DA:157,0
DA:158,0
DA:164,0
DA:165,0
DA:187,0
DA:188,0
DA:189,0
DA:195,0
DA:196,0
DA:231,0
DA:232,0
DA:233,0
DA:239,0
DA:240,0
DA:252,0
DA:253,0
DA:310,0
DA:311,0
DA:312,0
DA:317,0
DA:318,0
DA:324,0
DA:325,0
end_of_record
SF:/usr/include/c++/11/iostream
end_of_record
SF:/home/pavle/Qt/6.6.1/gcc_64/include/QtCore/qstringview.h
FN:123,_ZN11QStringView21lengthHelperContainerI5QListI5QCharEEExRKT_
FNDA:0,_ZN11QStringView21lengthHelperContainerI5QListI5QCharEEExRKT_
FN:137,_ZN11QStringView10castHelperI5QCharEEPKDsPKT_
FNDA:0,_ZN11QStringView10castHelperI5QCharEEPKDsPKT_
FN:148,_ZN11QStringViewC2I5QCharLb1EEEPKT_x
FNDA:0,_ZN11QStringViewC2I5QCharLb1EEEPKT_x
FN:179,_ZN11QStringViewC2I7QStringLb1EEERKT_
FNDA:0,_ZN11QStringViewC2I7QStringLb1EEERKT_
FN:184,_ZN11QStringViewC2I5QListI5QCharELb1EEERKT_
FNDA:0,_ZN11QStringViewC2I5QListI5QCharELb1EEERKT_
FN:198,_ZNK11QStringView4sizeEv
FNDA:0,_ZNK11QStringView4sizeEv
FN:199,_ZNK11QStringView4dataEv
FNDA:0,_ZNK11QStringView4dataEv
DA:123,0
DA:125,0
DA:137,0
DA:138,0
DA:148,0
DA:153,0
BRDA:153,0,0,-
BRDA:153,0,1,-
BRDA:153,0,2,-
BRDA:153,0,3,-
BRDA:153,0,4,-
BRDA:153,0,5,-
DA:154,0
DA:156,0
DA:179,0
DA:180,0
BRDA:180,0,0,-
BRDA:180,0,1,-
DA:184,0
DA:185,0
DA:198,0
DA:199,0
end_of_record
SF:/usr/include/c++/11/bits/stl_tree.h
FN:112,_ZNSt18_Rb_tree_node_base10_S_minimumEPS_
FNDA:0,_ZNSt18_Rb_tree_node_base10_S_minimumEPS_
FN:126,_ZNSt18_Rb_tree_node_base10_S_maximumEPS_
FNDA:0,_ZNSt18_Rb_tree_node_base10_S_maximumEPS_
FN:146,_ZNSt20_Rb_tree_key_compareISt4lessI7QStringEEC2Ev
FNDA:8,_ZNSt20_Rb_tree_key_compareISt4lessI7QStringEEC2Ev
FN:146,_ZNSt20_Rb_tree_key_compareISt4lessI5QCharEEC2Ev
FNDA:0,_ZNSt20_Rb_tree_key_compareISt4lessI5QCharEEC2Ev
FN:146,_ZNSt20_Rb_tree_key_compareISt4lessIiEEC2Ev
FNDA:0,_ZNSt20_Rb_tree_key_compareISt4lessIiEEC2Ev
FN:152,_ZNSt20_Rb_tree_key_compareISt4lessIiEEC2ERKS1_
FNDA:0,_ZNSt20_Rb_tree_key_compareISt4lessIiEEC2ERKS1_
FN:152,_ZNSt20_Rb_tree_key_compareISt4lessI7QStringEEC2ERKS2_
FNDA:0,_ZNSt20_Rb_tree_key_compareISt4lessI7QStringEEC2ERKS2_
FN:152,_ZNSt20_Rb_tree_key_compareISt4lessI5QCharEEC2ERKS2_
FNDA:0,_ZNSt20_Rb_tree_key_compareISt4lessI5QCharEEC2ERKS2_
FN:173,_ZNSt15_Rb_tree_headerC2Ev
FNDA:0,_ZNSt15_Rb_tree_headerC2Ev
FN:206,_ZNSt15_Rb_tree_header8_M_resetEv
FNDA:0,_ZNSt15_Rb_tree_header8_M_resetEv
FN:234,_ZNSt13_Rb_tree_nodeISt4pairIK5QChar7QStringEE9_M_valptrEv
FNDA:0,_ZNSt13_Rb_tree_nodeISt4pairIK5QChar7QStringEE9_M_valptrEv
FN:234,_ZNSt13_Rb_tree_nodeISt4pairIKiiEE9_M_valptrEv
FNDA:0,_ZNSt13_Rb_tree_nodeISt4pairIKiiEE9_M_valptrEv
FN:234,_ZNSt13_Rb_tree_nodeISt4pairIK7QStringS1_EE9_M_valptrEv
FNDA:0,_ZNSt13_Rb_tree_nodeISt4pairIK7QStringS1_EE9_M_valptrEv
FN:234,_ZNSt13_Rb_tree_nodeISt4pairIK5QChar5QListI7QStringEEE9_M_valptrEv
FNDA:0,_ZNSt13_Rb_tree_nodeISt4pairIK5QChar5QListI7QStringEEE9_M_valptrEv
FN:234,_ZNSt13_Rb_tree_nodeISt4pairIK5QChariEE9_M_valptrEv
FNDA:0,_ZNSt13_Rb_tree_nodeISt4pairIK5QChariEE9_M_valptrEv
FN:238,_ZNKSt13_Rb_tree_nodeISt4pairIK5QChar7QStringEE9_M_valptrEv
FNDA:0,_ZNKSt13_Rb_tree_nodeISt4pairIK5QChar7QStringEE9_M_valptrEv
FN:238,_ZNKSt13_Rb_tree_nodeISt4pairIK5QChar5QListI7QStringEEE9_M_valptrEv
FNDA:0,_ZNKSt13_Rb_tree_nodeISt4pairIK5QChar5QListI7QStringEEE9_M_valptrEv
FN:238,_ZNKSt13_Rb_tree_nodeISt4pairIK7QStringS1_EE9_M_valptrEv
FNDA:0,_ZNKSt13_Rb_tree_nodeISt4pairIK7QStringS1_EE9_M_valptrEv
FN:238,_ZNKSt13_Rb_tree_nodeISt4pairIKiiEE9_M_valptrEv
FNDA:0,_ZNKSt13_Rb_tree_nodeISt4pairIKiiEE9_M_valptrEv
FN:238,_ZNKSt13_Rb_tree_nodeISt4pairIK5QChariEE9_M_valptrEv
FNDA:0,_ZNKSt13_Rb_tree_nodeISt4pairIK5QChariEE9_M_valptrEv
FN:273,_ZNSt17_Rb_tree_iteratorISt4pairIK7QStringS1_EEC2EPSt18_Rb_tree_node_base
FNDA:0,_ZNSt17_Rb_tree_iteratorISt4pairIK7QStringS1_EEC2EPSt18_Rb_tree_node_base
FN:273,_ZNSt17_Rb_tree_iteratorISt4pairIKiiEEC2EPSt18_Rb_tree_node_base
FNDA:0,_ZNSt17_Rb_tree_iteratorISt4pairIKiiEEC2EPSt18_Rb_tree_node_base
FN:273,_ZNSt17_Rb_tree_iteratorISt4pairIK5QChar5QListI7QStringEEEC2EPSt18_Rb_tree_node_base
FNDA:0,_ZNSt17_Rb_tree_iteratorISt4pairIK5QChar5QListI7QStringEEEC2EPSt18_Rb_tree_node_base
FN:273,_ZNSt17_Rb_tree_iteratorISt4pairIK5QChariEEC2EPSt18_Rb_tree_node_base
FNDA:0,_ZNSt17_Rb_tree_iteratorISt4pairIK5QChariEEC2EPSt18_Rb_tree_node_base
FN:273,_ZNSt17_Rb_tree_iteratorISt4pairIK5QChar7QStringEEC2EPSt18_Rb_tree_node_base
FNDA:0,_ZNSt17_Rb_tree_iteratorISt4pairIK5QChar7QStringEEC2EPSt18_Rb_tree_node_base
FN:281,_ZNKSt17_Rb_tree_iteratorISt4pairIK5QChariEEptEv
FNDA:0,_ZNKSt17_Rb_tree_iteratorISt4pairIK5QChariEEptEv
FN:281,_ZNKSt17_Rb_tree_iteratorISt4pairIK5QChar7QStringEEptEv
FNDA:0,_ZNKSt17_Rb_tree_iteratorISt4pairIK5QChar7QStringEEptEv
FN:281,_ZNKSt17_Rb_tree_iteratorISt4pairIK5QChar5QListI7QStringEEEptEv
FNDA:0,_ZNKSt17_Rb_tree_iteratorISt4pairIK5QChar5QListI7QStringEEEptEv
FN:281,_ZNKSt17_Rb_tree_iteratorISt4pairIK7QStringS1_EEptEv
FNDA:0,_ZNKSt17_Rb_tree_iteratorISt4pairIK7QStringS1_EEptEv
FN:281,_ZNKSt17_Rb_tree_iteratorISt4pairIKiiEEptEv
FNDA:0,_ZNKSt17_Rb_tree_iteratorISt4pairIKiiEEptEv
FN:285,_ZNSt17_Rb_tree_iteratorISt4pairIK5QChar5QListI7QStringEEEppEv
FNDA:8,_ZNSt17_Rb_tree_iteratorISt4pairIK5QChar5QListI7QStringEEEppEv
FN:285,_ZNSt17_Rb_tree_iteratorISt4pairIK5QChar7QStringEEppEv
FNDA:10,_ZNSt17_Rb_tree_iteratorISt4pairIK5QChar7QStringEEppEv
FN:285,_ZNSt17_Rb_tree_iteratorISt4pairIK5QChariEEppEv
FNDA:10,_ZNSt17_Rb_tree_iteratorISt4pairIK5QChariEEppEv
FN:300,_ZNSt17_Rb_tree_iteratorISt4pairIK5QChariEEmmEv
FNDA:0,_ZNSt17_Rb_tree_iteratorISt4pairIK5QChariEEmmEv
FN:300,_ZNSt17_Rb_tree_iteratorISt4pairIKiiEEmmEv
FNDA:0,_ZNSt17_Rb_tree_iteratorISt4pairIKiiEEmmEv
FN:300,_ZNSt17_Rb_tree_iteratorISt4pairIK7QStringS1_EEmmEv
FNDA:0,_ZNSt17_Rb_tree_iteratorISt4pairIK7QStringS1_EEmmEv
FN:300,_ZNSt17_Rb_tree_iteratorISt4pairIK5QChar5QListI7QStringEEEmmEv
FNDA:0,_ZNSt17_Rb_tree_iteratorISt4pairIK5QChar5QListI7QStringEEEmmEv
FN:300,_ZNSt17_Rb_tree_iteratorISt4pairIK5QChar7QStringEEmmEv
FNDA:0,_ZNSt17_Rb_tree_iteratorISt4pairIK5QChar7QStringEEmmEv
FN:315,_ZSteqRKSt17_Rb_tree_iteratorISt4pairIK5QChar7QStringEES7_
FNDA:0,_ZSteqRKSt17_Rb_tree_iteratorISt4pairIK5QChar7QStringEES7_
FN:315,_ZSteqRKSt17_Rb_tree_iteratorISt4pairIKiiEES5_
FNDA:0,_ZSteqRKSt17_Rb_tree_iteratorISt4pairIKiiEES5_
FN:315,_ZSteqRKSt17_Rb_tree_iteratorISt4pairIK5QChariEES6_
FNDA:0,_ZSteqRKSt17_Rb_tree_iteratorISt4pairIK5QChariEES6_
FN:315,_ZSteqRKSt17_Rb_tree_iteratorISt4pairIK7QStringS1_EES6_
FNDA:0,_ZSteqRKSt17_Rb_tree_iteratorISt4pairIK7QStringS1_EES6_
FN:315,_ZSteqRKSt17_Rb_tree_iteratorISt4pairIK5QChar5QListI7QStringEEES9_
FNDA:0,_ZSteqRKSt17_Rb_tree_iteratorISt4pairIK5QChar5QListI7QStringEEES9_
FN:320,_ZStneRKSt17_Rb_tree_iteratorISt4pairIK5QChar5QListI7QStringEEES9_
FNDA:10,_ZStneRKSt17_Rb_tree_iteratorISt4pairIK5QChar5QListI7QStringEEES9_
FN:320,_ZStneRKSt17_Rb_tree_iteratorISt4pairIK5QChar7QStringEES7_
FNDA:12,_ZStneRKSt17_Rb_tree_iteratorISt4pairIK5QChar7QStringEES7_
FN:320,_ZStneRKSt17_Rb_tree_iteratorISt4pairIK5QChariEES6_
FNDA:12,_ZStneRKSt17_Rb_tree_iteratorISt4pairIK5QChariEES6_
FN:343,_ZNSt23_Rb_tree_const_iteratorISt4pairIK7QStringS1_EEC2Ev
FNDA:0,_ZNSt23_Rb_tree_const_iteratorISt4pairIK7QStringS1_EEC2Ev
FN:347,_ZNSt23_Rb_tree_const_iteratorISt4pairIK7QStringS1_EEC2EPKSt18_Rb_tree_node_base
FNDA:0,_ZNSt23_Rb_tree_const_iteratorISt4pairIK7QStringS1_EEC2EPKSt18_Rb_tree_node_base
FN:358,_ZNKSt23_Rb_tree_const_iteratorISt4pairIK7QStringS1_EEdeEv
FNDA:0,_ZNKSt23_Rb_tree_const_iteratorISt4pairIK7QStringS1_EEdeEv
FN:362,_ZNKSt23_Rb_tree_const_iteratorISt4pairIK7QStringS1_EEptEv
FNDA:0,_ZNKSt23_Rb_tree_const_iteratorISt4pairIK7QStringS1_EEptEv
FN:366,_ZNSt23_Rb_tree_const_iteratorISt4pairIK7QStringS1_EEppEv
FNDA:0,_ZNSt23_Rb_tree_const_iteratorISt4pairIK7QStringS1_EEppEv
FN:401,_ZStneRKSt23_Rb_tree_const_iteratorISt4pairIK7QStringS1_EES6_
FNDA:0,_ZStneRKSt23_Rb_tree_const_iteratorISt4pairIK7QStringS1_EES6_
FN:523,_ZNSt8_Rb_treeI7QStringSt4pairIKS0_S0_ESt10_Select1stIS3_ESt4lessIS0_ESaIS3_EE11_Alloc_nodeC2ERS9_
FNDA:0,_ZNSt8_Rb_treeI7QStringSt4pairIKS0_S0_ESt10_Select1stIS3_ESt4lessIS0_ESaIS3_EE11_Alloc_nodeC2ERS9_
FN:523,_ZNSt8_Rb_treeIiSt4pairIKiiESt10_Select1stIS2_ESt4lessIiESaIS2_EE11_Alloc_nodeC2ERS8_
FNDA:0,_ZNSt8_Rb_treeIiSt4pairIKiiESt10_Select1stIS2_ESt4lessIiESaIS2_EE11_Alloc_nodeC2ERS8_
FN:523,_ZNSt8_Rb_treeI5QCharSt4pairIKS0_iESt10_Select1stIS3_ESt4lessIS0_ESaIS3_EE11_Alloc_nodeC2ERS9_
FNDA:0,_ZNSt8_Rb_treeI5QCharSt4pairIKS0_iESt10_Select1stIS3_ESt4lessIS0_ESaIS3_EE11_Alloc_nodeC2ERS9_
FN:523,_ZNSt8_Rb_treeI5QCharSt4pairIKS0_7QStringESt10_Select1stIS4_ESt4lessIS0_ESaIS4_EE11_Alloc_nodeC2ERSA_
FNDA:0,_ZNSt8_Rb_treeI5QCharSt4pairIKS0_7QStringESt10_Select1stIS4_ESt4lessIS0_ESaIS4_EE11_Alloc_nodeC2ERSA_
FN:523,_ZNSt8_Rb_treeI5QCharSt4pairIKS0_5QListI7QStringEESt10_Select1stIS6_ESt4lessIS0_ESaIS6_EE11_Alloc_nodeC2ERSC_
FNDA:0,_ZNSt8_Rb_treeI5QCharSt4pairIKS0_5QListI7QStringEESt10_Select1stIS6_ESt4lessIS0_ESaIS6_EE11_Alloc_nodeC2ERSC_
FN:528,_ZNKSt8_Rb_treeI5QCharSt4pairIKS0_7QStringESt10_Select1stIS4_ESt4lessIS0_ESaIS4_EE11_Alloc_nodeclIS4_EEPSt13_Rb_tree_nodeIS4_EOT_
FNDA:0,_ZNKSt8_Rb_treeI5QCharSt4pairIKS0_7QStringESt10_Select1stIS4_ESt4lessIS0_ESaIS4_EE11_Alloc_nodeclIS4_EEPSt13_Rb_tree_nodeIS4_EOT_
FN:528,_ZNKSt8_Rb_treeI5QCharSt4pairIKS0_iESt10_Select1stIS3_ESt4lessIS0_ESaIS3_EE11_Alloc_nodeclIRKS3_EEPSt13_Rb_tree_nodeIS3_EOT_
FNDA:0,_ZNKSt8_Rb_treeI5QCharSt4pairIKS0_iESt10_Select1stIS3_ESt4lessIS0_ESaIS3_EE11_Alloc_nodeclIRKS3_EEPSt13_Rb_tree_nodeIS3_EOT_
FN:528,_ZNKSt8_Rb_treeI5QCharSt4pairIKS0_7QStringESt10_Select1stIS4_ESt4lessIS0_ESaIS4_EE11_Alloc_nodeclIRKS4_EEPSt13_Rb_tree_nodeIS4_EOT_
FNDA:0,_ZNKSt8_Rb_treeI5QCharSt4pairIKS0_7QStringESt10_Select1stIS4_ESt4lessIS0_ESaIS4_EE11_Alloc_nodeclIRKS4_EEPSt13_Rb_tree_nodeIS4_EOT_
FN:528,_ZNKSt8_Rb_treeI5QCharSt4pairIKS0_iESt10_Select1stIS3_ESt4lessIS0_ESaIS3_EE11_Alloc_nodeclIS3_EEPSt13_Rb_tree_nodeIS3_EOT_
FNDA:0,_ZNKSt8_Rb_treeI5QCharSt4pairIKS0_iESt10_Select1stIS3_ESt4lessIS0_ESaIS3_EE11_Alloc_nodeclIS3_EEPSt13_Rb_tree_nodeIS3_EOT_
FN:528,_ZNKSt8_Rb_treeI7QStringSt4pairIKS0_S0_ESt10_Select1stIS3_ESt4lessIS0_ESaIS3_EE11_Alloc_nodeclIS3_EEPSt13_Rb_tree_nodeIS3_EOT_
FNDA:0,_ZNKSt8_Rb_treeI7QStringSt4pairIKS0_S0_ESt10_Select1stIS3_ESt4lessIS0_ESaIS3_EE11_Alloc_nodeclIS3_EEPSt13_Rb_tree_nodeIS3_EOT_
FN:528,_ZNKSt8_Rb_treeI5QCharSt4pairIKS0_5QListI7QStringEESt10_Select1stIS6_ESt4lessIS0_ESaIS6_EE11_Alloc_nodeclIRKS6_EEPSt13_Rb_tree_nodeIS6_EOT_
FNDA:0,_ZNKSt8_Rb_treeI5QCharSt4pairIKS0_5QListI7QStringEESt10_Select1stIS6_ESt4lessIS0_ESaIS6_EE11_Alloc_nodeclIRKS6_EEPSt13_Rb_tree_nodeIS6_EOT_
FN:528,_ZNKSt8_Rb_treeI5QCharSt4pairIKS0_5QListI7QStringEESt10_Select1stIS6_ESt4lessIS0_ESaIS6_EE11_Alloc_nodeclIS6_EEPSt13_Rb_tree_nodeIS6_EOT_
FNDA:0,_ZNKSt8_Rb_treeI5QCharSt4pairIKS0_5QListI7QStringEESt10_Select1stIS6_ESt4lessIS0_ESaIS6_EE11_Alloc_nodeclIS6_EEPSt13_Rb_tree_nodeIS6_EOT_
FN:528,_ZNKSt8_Rb_treeI7QStringSt4pairIKS0_S0_ESt10_Select1stIS3_ESt4lessIS0_ESaIS3_EE11_Alloc_nodeclIRKS3_EEPSt13_Rb_tree_nodeIS3_EOT_
FNDA:0,_ZNKSt8_Rb_treeI7QStringSt4pairIKS0_S0_ESt10_Select1stIS3_ESt4lessIS0_ESaIS3_EE11_Alloc_nodeclIRKS3_EEPSt13_Rb_tree_nodeIS3_EOT_
FN:528,_ZNKSt8_Rb_treeIiSt4pairIKiiESt10_Select1stIS2_ESt4lessIiESaIS2_EE11_Alloc_nodeclIS2_EEPSt13_Rb_tree_nodeIS2_EOT_
FNDA:0,_ZNKSt8_Rb_treeIiSt4pairIKiiESt10_Select1stIS2_ESt4lessIiESaIS2_EE11_Alloc_nodeclIS2_EEPSt13_Rb_tree_nodeIS2_EOT_
FN:528,_ZNKSt8_Rb_treeIiSt4pairIKiiESt10_Select1stIS2_ESt4lessIiESaIS2_EE11_Alloc_nodeclIRKS2_EEPSt13_Rb_tree_nodeIS2_EOT_
FNDA:0,_ZNKSt8_Rb_treeIiSt4pairIKiiESt10_Select1stIS2_ESt4lessIiESaIS2_EE11_Alloc_nodeclIRKS2_EEPSt13_Rb_tree_nodeIS2_EOT_
FN:547,_ZNSt8_Rb_treeI5QCharSt4pairIKS0_7QStringESt10_Select1stIS4_ESt4lessIS0_ESaIS4_EE21_M_get_Node_allocatorEv
FNDA:0,_ZNSt8_Rb_treeI5QCharSt4pairIKS0_7QStringESt10_Select1stIS4_ESt4lessIS0_ESaIS4_EE21_M_get_Node_allocatorEv
FN:547,_ZNSt8_Rb_treeI5QCharSt4pairIKS0_5QListI7QStringEESt10_Select1stIS6_ESt4lessIS0_ESaIS6_EE21_M_get_Node_allocatorEv
FNDA:0,_ZNSt8_Rb_treeI5QCharSt4pairIKS0_5QListI7QStringEESt10_Select1stIS6_ESt4lessIS0_ESaIS6_EE21_M_get_Node_allocatorEv
FN:547,_ZNSt8_Rb_treeI5QCharSt4pairIKS0_iESt10_Select1stIS3_ESt4lessIS0_ESaIS3_EE21_M_get_Node_allocatorEv
FNDA:0,_ZNSt8_Rb_treeI5QCharSt4pairIKS0_iESt10_Select1stIS3_ESt4lessIS0_ESaIS3_EE21_M_get_Node_allocatorEv
FN:547,_ZNSt8_Rb_treeI7QStringSt4pairIKS0_S0_ESt10_Select1stIS3_ESt4lessIS0_ESaIS3_EE21_M_get_Node_allocatorEv
FNDA:0,_ZNSt8_Rb_treeI7QStringSt4pairIKS0_S0_ESt10_Select1stIS3_ESt4lessIS0_ESaIS3_EE21_M_get_Node_allocatorEv
FN:547,_ZNSt8_Rb_treeIiSt4pairIKiiESt10_Select1stIS2_ESt4lessIiESaIS2_EE21_M_get_Node_allocatorEv
FNDA:0,_ZNSt8_Rb_treeIiSt4pairIKiiESt10_Select1stIS2_ESt4lessIiESaIS2_EE21_M_get_Node_allocatorEv
FN:560,_ZNSt8_Rb_treeI5QCharSt4pairIKS0_iESt10_Select1stIS3_ESt4lessIS0_ESaIS3_EE11_M_get_nodeEv
FNDA:0,_ZNSt8_Rb_treeI5QCharSt4pairIKS0_iESt10_Select1stIS3_ESt4lessIS0_ESaIS3_EE11_M_get_nodeEv
FN:560,_ZNSt8_Rb_treeI5QCharSt4pairIKS0_5QListI7QStringEESt10_Select1stIS6_ESt4lessIS0_ESaIS6_EE11_M_get_nodeEv
FNDA:0,_ZNSt8_Rb_treeI5QCharSt4pairIKS0_5QListI7QStringEESt10_Select1stIS6_ESt4lessIS0_ESaIS6_EE11_M_get_nodeEv
FN:560,_ZNSt8_Rb_treeI5QCharSt4pairIKS0_7QStringESt10_Select1stIS4_ESt4lessIS0_ESaIS4_EE11_M_get_nodeEv
FNDA:0,_ZNSt8_Rb_treeI5QCharSt4pairIKS0_7QStringESt10_Select1stIS4_ESt4lessIS0_ESaIS4_EE11_M_get_nodeEv
FN:560,_ZNSt8_Rb_treeI7QStringSt4pairIKS0_S0_ESt10_Select1stIS3_ESt4lessIS0_ESaIS3_EE11_M_get_nodeEv
FNDA:0,_ZNSt8_Rb_treeI7QStringSt4pairIKS0_S0_ESt10_Select1stIS3_ESt4lessIS0_ESaIS3_EE11_M_get_nodeEv
FN:560,_ZNSt8_Rb_treeIiSt4pairIKiiESt10_Select1stIS2_ESt4lessIiESaIS2_EE11_M_get_nodeEv
FNDA:0,_ZNSt8_Rb_treeIiSt4pairIKiiESt10_Select1stIS2_ESt4lessIiESaIS2_EE11_M_get_nodeEv
FN:564,_ZNSt8_Rb_treeI5QCharSt4pairIKS0_iESt10_Select1stIS3_ESt4lessIS0_ESaIS3_EE11_M_put_nodeEPSt13_Rb_tree_nodeIS3_E
FNDA:0,_ZNSt8_Rb_treeI5QCharSt4pairIKS0_iESt10_Select1stIS3_ESt4lessIS0_ESaIS3_EE11_M_put_nodeEPSt13_Rb_tree_nodeIS3_E
FN:564,_ZNSt8_Rb_treeIiSt4pairIKiiESt10_Select1stIS2_ESt4lessIiESaIS2_EE11_M_put_nodeEPSt13_Rb_tree_nodeIS2_E
FNDA:0,_ZNSt8_Rb_treeIiSt4pairIKiiESt10_Select1stIS2_ESt4lessIiESaIS2_EE11_M_put_nodeEPSt13_Rb_tree_nodeIS2_E
FN:564,_ZNSt8_Rb_treeI7QStringSt4pairIKS0_S0_ESt10_Select1stIS3_ESt4lessIS0_ESaIS3_EE11_M_put_nodeEPSt13_Rb_tree_nodeIS3_E
FNDA:0,_ZNSt8_Rb_treeI7QStringSt4pairIKS0_S0_ESt10_Select1stIS3_ESt4lessIS0_ESaIS3_EE11_M_put_nodeEPSt13_Rb_tree_nodeIS3_E
FN:564,_ZNSt8_Rb_treeI5QCharSt4pairIKS0_7QStringESt10_Select1stIS4_ESt4lessIS0_ESaIS4_EE11_M_put_nodeEPSt13_Rb_tree_nodeIS4_E
FNDA:0,_ZNSt8_Rb_treeI5QCharSt4pairIKS0_7QStringESt10_Select1stIS4_ESt4lessIS0_ESaIS4_EE11_M_put_nodeEPSt13_Rb_tree_nodeIS4_E
FN:564,_ZNSt8_Rb_treeI5QCharSt4pairIKS0_5QListI7QStringEESt10_Select1stIS6_ESt4lessIS0_ESaIS6_EE11_M_put_nodeEPSt13_Rb_tree_nodeIS6_E
FNDA:0,_ZNSt8_Rb_treeI5QCharSt4pairIKS0_5QListI7QStringEESt10_Select1stIS6_ESt4lessIS0_ESaIS6_EE11_M_put_nodeEPSt13_Rb_tree_nodeIS6_E
FN:590,_ZNSt8_Rb_treeI5QCharSt4pairIKS0_7QStringESt10_Select1stIS4_ESt4lessIS0_ESaIS4_EE17_M_construct_nodeIJRKS4_EEEvPSt13_Rb_tree_nodeIS4_EDpOT_
FNDA:0,_ZNSt8_Rb_treeI5QCharSt4pairIKS0_7QStringESt10_Select1stIS4_ESt4lessIS0_ESaIS4_EE17_M_construct_nodeIJRKS4_EEEvPSt13_Rb_tree_nodeIS4_EDpOT_
FN:590,_ZNSt8_Rb_treeI5QCharSt4pairIKS0_iESt10_Select1stIS3_ESt4lessIS0_ESaIS3_EE17_M_construct_nodeIJRKS3_EEEvPSt13_Rb_tree_nodeIS3_EDpOT_
FNDA:0,_ZNSt8_Rb_treeI5QCharSt4pairIKS0_iESt10_Select1stIS3_ESt4lessIS0_ESaIS3_EE17_M_construct_nodeIJRKS3_EEEvPSt13_Rb_tree_nodeIS3_EDpOT_
FN:590,_ZNSt8_Rb_treeI5QCharSt4pairIKS0_5QListI7QStringEESt10_Select1stIS6_ESt4lessIS0_ESaIS6_EE17_M_construct_nodeIJS6_EEEvPSt13_Rb_tree_nodeIS6_EDpOT_
FNDA:0,_ZNSt8_Rb_treeI5QCharSt4pairIKS0_5QListI7QStringEESt10_Select1stIS6_ESt4lessIS0_ESaIS6_EE17_M_construct_nodeIJS6_EEEvPSt13_Rb_tree_nodeIS6_EDpOT_
FN:590,_ZNSt8_Rb_treeI7QStringSt4pairIKS0_S0_ESt10_Select1stIS3_ESt4lessIS0_ESaIS3_EE17_M_construct_nodeIJS3_EEEvPSt13_Rb_tree_nodeIS3_EDpOT_
FNDA:0,_ZNSt8_Rb_treeI7QStringSt4pairIKS0_S0_ESt10_Select1stIS3_ESt4lessIS0_ESaIS3_EE17_M_construct_nodeIJS3_EEEvPSt13_Rb_tree_nodeIS3_EDpOT_
FN:590,_ZNSt8_Rb_treeI5QCharSt4pairIKS0_7QStringESt10_Select1stIS4_ESt4lessIS0_ESaIS4_EE17_M_construct_nodeIJS4_EEEvPSt13_Rb_tree_nodeIS4_EDpOT_
FNDA:0,_ZNSt8_Rb_treeI5QCharSt4pairIKS0_7QStringESt10_Select1stIS4_ESt4lessIS0_ESaIS4_EE17_M_construct_nodeIJS4_EEEvPSt13_Rb_tree_nodeIS4_EDpOT_
FN:590,_ZNSt8_Rb_treeIiSt4pairIKiiESt10_Select1stIS2_ESt4lessIiESaIS2_EE17_M_construct_nodeIJS2_EEEvPSt13_Rb_tree_nodeIS2_EDpOT_
FNDA:0,_ZNSt8_Rb_treeIiSt4pairIKiiESt10_Select1stIS2_ESt4lessIiESaIS2_EE17_M_construct_nodeIJS2_EEEvPSt13_Rb_tree_nodeIS2_EDpOT_
FN:590,_ZNSt8_Rb_treeI5QCharSt4pairIKS0_iESt10_Select1stIS3_ESt4lessIS0_ESaIS3_EE17_M_construct_nodeIJS3_EEEvPSt13_Rb_tree_nodeIS3_EDpOT_
FNDA:0,_ZNSt8_Rb_treeI5QCharSt4pairIKS0_iESt10_Select1stIS3_ESt4lessIS0_ESaIS3_EE17_M_construct_nodeIJS3_EEEvPSt13_Rb_tree_nodeIS3_EDpOT_
FN:590,_ZNSt8_Rb_treeIiSt4pairIKiiESt10_Select1stIS2_ESt4lessIiESaIS2_EE17_M_construct_nodeIJRKS2_EEEvPSt13_Rb_tree_nodeIS2_EDpOT_
FNDA:0,_ZNSt8_Rb_treeIiSt4pairIKiiESt10_Select1stIS2_ESt4lessIiESaIS2_EE17_M_construct_nodeIJRKS2_EEEvPSt13_Rb_tree_nodeIS2_EDpOT_
FN:590,_ZNSt8_Rb_treeI7QStringSt4pairIKS0_S0_ESt10_Select1stIS3_ESt4lessIS0_ESaIS3_EE17_M_construct_nodeIJRKS3_EEEvPSt13_Rb_tree_nodeIS3_EDpOT_
FNDA:0,_ZNSt8_Rb_treeI7QStringSt4pairIKS0_S0_ESt10_Select1stIS3_ESt4lessIS0_ESaIS3_EE17_M_construct_nodeIJRKS3_EEEvPSt13_Rb_tree_nodeIS3_EDpOT_
FN:590,_ZNSt8_Rb_treeI5QCharSt4pairIKS0_5QListI7QStringEESt10_Select1stIS6_ESt4lessIS0_ESaIS6_EE17_M_construct_nodeIJRKS6_EEEvPSt13_Rb_tree_nodeIS6_EDpOT_
FNDA:0,_ZNSt8_Rb_treeI5QCharSt4pairIKS0_5QListI7QStringEESt10_Select1stIS6_ESt4lessIS0_ESaIS6_EE17_M_construct_nodeIJRKS6_EEEvPSt13_Rb_tree_nodeIS6_EDpOT_
FN:609,_ZNSt8_Rb_treeI5QCharSt4pairIKS0_5QListI7QStringEESt10_Select1stIS6_ESt4lessIS0_ESaIS6_EE14_M_create_nodeIJS6_EEEPSt13_Rb_tree_nodeIS6_EDpOT_
FNDA:0,_ZNSt8_Rb_treeI5QCharSt4pairIKS0_5QListI7QStringEESt10_Select1stIS6_ESt4lessIS0_ESaIS6_EE14_M_create_nodeIJS6_EEEPSt13_Rb_tree_nodeIS6_EDpOT_
FN:609,_ZNSt8_Rb_treeI5QCharSt4pairIKS0_7QStringESt10_Select1stIS4_ESt4lessIS0_ESaIS4_EE14_M_create_nodeIJS4_EEEPSt13_Rb_tree_nodeIS4_EDpOT_
FNDA:0,_ZNSt8_Rb_treeI5QCharSt4pairIKS0_7QStringESt10_Select1stIS4_ESt4lessIS0_ESaIS4_EE14_M_create_nodeIJS4_EEEPSt13_Rb_tree_nodeIS4_EDpOT_
FN:609,_ZNSt8_Rb_treeI5QCharSt4pairIKS0_5QListI7QStringEESt10_Select1stIS6_ESt4lessIS0_ESaIS6_EE14_M_create_nodeIJRKS6_EEEPSt13_Rb_tree_nodeIS6_EDpOT_
FNDA:0,_ZNSt8_Rb_treeI5QCharSt4pairIKS0_5QListI7QStringEESt10_Select1stIS6_ESt4lessIS0_ESaIS6_EE14_M_create_nodeIJRKS6_EEEPSt13_Rb_tree_nodeIS6_EDpOT_
FN:609,_ZNSt8_Rb_treeI7QStringSt4pairIKS0_S0_ESt10_Select1stIS3_ESt4lessIS0_ESaIS3_EE14_M_create_nodeIJRKS3_EEEPSt13_Rb_tree_nodeIS3_EDpOT_
FNDA:0,_ZNSt8_Rb_treeI7QStringSt4pairIKS0_S0_ESt10_Select1stIS3_ESt4lessIS0_ESaIS3_EE14_M_create_nodeIJRKS3_EEEPSt13_Rb_tree_nodeIS3_EDpOT_
FN:609,_ZNSt8_Rb_treeIiSt4pairIKiiESt10_Select1stIS2_ESt4lessIiESaIS2_EE14_M_create_nodeIJRKS2_EEEPSt13_Rb_tree_nodeIS2_EDpOT_
FNDA:0,_ZNSt8_Rb_treeIiSt4pairIKiiESt10_Select1stIS2_ESt4lessIiESaIS2_EE14_M_create_nodeIJRKS2_EEEPSt13_Rb_tree_nodeIS2_EDpOT_
FN:609,_ZNSt8_Rb_treeI5QCharSt4pairIKS0_7QStringESt10_Select1stIS4_ESt4lessIS0_ESaIS4_EE14_M_create_nodeIJRKS4_EEEPSt13_Rb_tree_nodeIS4_EDpOT_
FNDA:0,_ZNSt8_Rb_treeI5QCharSt4pairIKS0_7QStringESt10_Select1stIS4_ESt4lessIS0_ESaIS4_EE14_M_create_nodeIJRKS4_EEEPSt13_Rb_tree_nodeIS4_EDpOT_
FN:609,_ZNSt8_Rb_treeI5QCharSt4pairIKS0_iESt10_Select1stIS3_ESt4lessIS0_ESaIS3_EE14_M_create_nodeIJRKS3_EEEPSt13_Rb_tree_nodeIS3_EDpOT_
FNDA:0,_ZNSt8_Rb_treeI5QCharSt4pairIKS0_iESt10_Select1stIS3_ESt4lessIS0_ESaIS3_EE14_M_create_nodeIJRKS3_EEEPSt13_Rb_tree_nodeIS3_EDpOT_
FN:609,_ZNSt8_Rb_treeI7QStringSt4pairIKS0_S0_ESt10_Select1stIS3_ESt4lessIS0_ESaIS3_EE14_M_create_nodeIJS3_EEEPSt13_Rb_tree_nodeIS3_EDpOT_
FNDA:0,_ZNSt8_Rb_treeI7QStringSt4pairIKS0_S0_ESt10_Select1stIS3_ESt4lessIS0_ESaIS3_EE14_M_create_nodeIJS3_EEEPSt13_Rb_tree_nodeIS3_EDpOT_
FN:609,_ZNSt8_Rb_treeIiSt4pairIKiiESt10_Select1stIS2_ESt4lessIiESaIS2_EE14_M_create_nodeIJS2_EEEPSt13_Rb_tree_nodeIS2_EDpOT_
FNDA:0,_ZNSt8_Rb_treeIiSt4pairIKiiESt10_Select1stIS2_ESt4lessIiESaIS2_EE14_M_create_nodeIJS2_EEEPSt13_Rb_tree_nodeIS2_EDpOT_
FN:609,_ZNSt8_Rb_treeI5QCharSt4pairIKS0_iESt10_Select1stIS3_ESt4lessIS0_ESaIS3_EE14_M_create_nodeIJS3_EEEPSt13_Rb_tree_nodeIS3_EDpOT_
FNDA:0,_ZNSt8_Rb_treeI5QCharSt4pairIKS0_iESt10_Select1stIS3_ESt4lessIS0_ESaIS3_EE14_M_create_nodeIJS3_EEEPSt13_Rb_tree_nodeIS3_EDpOT_
FN:618,_ZNSt8_Rb_treeI5QCharSt4pairIKS0_7QStringESt10_Select1stIS4_ESt4lessIS0_ESaIS4_EE15_M_destroy_nodeEPSt13_Rb_tree_nodeIS4_E
FNDA:0,_ZNSt8_Rb_treeI5QCharSt4pairIKS0_7QStringESt10_Select1stIS4_ESt4lessIS0_ESaIS4_EE15_M_destroy_nodeEPSt13_Rb_tree_nodeIS4_E
FN:618,_ZNSt8_Rb_treeIiSt4pairIKiiESt10_Select1stIS2_ESt4lessIiESaIS2_EE15_M_destroy_nodeEPSt13_Rb_tree_nodeIS2_E
FNDA:0,_ZNSt8_Rb_treeIiSt4pairIKiiESt10_Select1stIS2_ESt4lessIiESaIS2_EE15_M_destroy_nodeEPSt13_Rb_tree_nodeIS2_E
FN:618,_ZNSt8_Rb_treeI5QCharSt4pairIKS0_iESt10_Select1stIS3_ESt4lessIS0_ESaIS3_EE15_M_destroy_nodeEPSt13_Rb_tree_nodeIS3_E
FNDA:0,_ZNSt8_Rb_treeI5QCharSt4pairIKS0_iESt10_Select1stIS3_ESt4lessIS0_ESaIS3_EE15_M_destroy_nodeEPSt13_Rb_tree_nodeIS3_E
FN:618,_ZNSt8_Rb_treeI5QCharSt4pairIKS0_5QListI7QStringEESt10_Select1stIS6_ESt4lessIS0_ESaIS6_EE15_M_destroy_nodeEPSt13_Rb_tree_nodeIS6_E
FNDA:0,_ZNSt8_Rb_treeI5QCharSt4pairIKS0_5QListI7QStringEESt10_Select1stIS6_ESt4lessIS0_ESaIS6_EE15_M_destroy_nodeEPSt13_Rb_tree_nodeIS6_E
FN:618,_ZNSt8_Rb_treeI7QStringSt4pairIKS0_S0_ESt10_Select1stIS3_ESt4lessIS0_ESaIS3_EE15_M_destroy_nodeEPSt13_Rb_tree_nodeIS3_E
FNDA:0,_ZNSt8_Rb_treeI7QStringSt4pairIKS0_S0_ESt10_Select1stIS3_ESt4lessIS0_ESaIS3_EE15_M_destroy_nodeEPSt13_Rb_tree_nodeIS3_E
FN:629,_ZNSt8_Rb_treeI5QCharSt4pairIKS0_iESt10_Select1stIS3_ESt4lessIS0_ESaIS3_EE12_M_drop_nodeEPSt13_Rb_tree_nodeIS3_E
FNDA:0,_ZNSt8_Rb_treeI5QCharSt4pairIKS0_iESt10_Select1stIS3_ESt4lessIS0_ESaIS3_EE12_M_drop_nodeEPSt13_Rb_tree_nodeIS3_E
FN:629,_ZNSt8_Rb_treeI5QCharSt4pairIKS0_5QListI7QStringEESt10_Select1stIS6_ESt4lessIS0_ESaIS6_EE12_M_drop_nodeEPSt13_Rb_tree_nodeIS6_E
FNDA:0,_ZNSt8_Rb_treeI5QCharSt4pairIKS0_5QListI7QStringEESt10_Select1stIS6_ESt4lessIS0_ESaIS6_EE12_M_drop_nodeEPSt13_Rb_tree_nodeIS6_E
FN:629,_ZNSt8_Rb_treeI7QStringSt4pairIKS0_S0_ESt10_Select1stIS3_ESt4lessIS0_ESaIS3_EE12_M_drop_nodeEPSt13_Rb_tree_nodeIS3_E
FNDA:0,_ZNSt8_Rb_treeI7QStringSt4pairIKS0_S0_ESt10_Select1stIS3_ESt4lessIS0_ESaIS3_EE12_M_drop_nodeEPSt13_Rb_tree_nodeIS3_E
FN:629,_ZNSt8_Rb_treeI5QCharSt4pairIKS0_7QStringESt10_Select1stIS4_ESt4lessIS0_ESaIS4_EE12_M_drop_nodeEPSt13_Rb_tree_nodeIS4_E
FNDA:0,_ZNSt8_Rb_treeI5QCharSt4pairIKS0_7QStringESt10_Select1stIS4_ESt4lessIS0_ESaIS4_EE12_M_drop_nodeEPSt13_Rb_tree_nodeIS4_E
FN:629,_ZNSt8_Rb_treeIiSt4pairIKiiESt10_Select1stIS2_ESt4lessIiESaIS2_EE12_M_drop_nodeEPSt13_Rb_tree_nodeIS2_E
FNDA:0,_ZNSt8_Rb_treeIiSt4pairIKiiESt10_Select1stIS2_ESt4lessIiESaIS2_EE12_M_drop_nodeEPSt13_Rb_tree_nodeIS2_E
FN:637,_ZNSt8_Rb_treeI5QCharSt4pairIKS0_iESt10_Select1stIS3_ESt4lessIS0_ESaIS3_EE13_M_clone_nodeILb0ENS9_11_Alloc_nodeEEEPSt13_Rb_tree_nodeIS3_ESE_RT0_
FNDA:0,_ZNSt8_Rb_treeI5QCharSt4pairIKS0_iESt10_Select1stIS3_ESt4lessIS0_ESaIS3_EE13_M_clone_nodeILb0ENS9_11_Alloc_nodeEEEPSt13_Rb_tree_nodeIS3_ESE_RT0_
FN:637,_ZNSt8_Rb_treeI5QCharSt4pairIKS0_7QStringESt10_Select1stIS4_ESt4lessIS0_ESaIS4_EE13_M_clone_nodeILb0ENSA_11_Alloc_nodeEEEPSt13_Rb_tree_nodeIS4_ESF_RT0_
FNDA:0,_ZNSt8_Rb_treeI5QCharSt4pairIKS0_7QStringESt10_Select1stIS4_ESt4lessIS0_ESaIS4_EE13_M_clone_nodeILb0ENSA_11_Alloc_nodeEEEPSt13_Rb_tree_nodeIS4_ESF_RT0_
FN:637,_ZNSt8_Rb_treeIiSt4pairIKiiESt10_Select1stIS2_ESt4lessIiESaIS2_EE13_M_clone_nodeILb0ENS8_11_Alloc_nodeEEEPSt13_Rb_tree_nodeIS2_ESD_RT0_
FNDA:0,_ZNSt8_Rb_treeIiSt4pairIKiiESt10_Select1stIS2_ESt4lessIiESaIS2_EE13_M_clone_nodeILb0ENS8_11_Alloc_nodeEEEPSt13_Rb_tree_nodeIS2_ESD_RT0_
FN:637,_ZNSt8_Rb_treeI5QCharSt4pairIKS0_5QListI7QStringEESt10_Select1stIS6_ESt4lessIS0_ESaIS6_EE13_M_clone_nodeILb0ENSC_11_Alloc_nodeEEEPSt13_Rb_tree_nodeIS6_ESH_RT0_
FNDA:0,_ZNSt8_Rb_treeI5QCharSt4pairIKS0_5QListI7QStringEESt10_Select1stIS6_ESt4lessIS0_ESaIS6_EE13_M_clone_nodeILb0ENSC_11_Alloc_nodeEEEPSt13_Rb_tree_nodeIS6_ESH_RT0_
FN:637,_ZNSt8_Rb_treeI7QStringSt4pairIKS0_S0_ESt10_Select1stIS3_ESt4lessIS0_ESaIS3_EE13_M_clone_nodeILb0ENS9_11_Alloc_nodeEEEPSt13_Rb_tree_nodeIS3_ESE_RT0_
FNDA:0,_ZNSt8_Rb_treeI7QStringSt4pairIKS0_S0_ESt10_Select1stIS3_ESt4lessIS0_ESaIS3_EE13_M_clone_nodeILb0ENS9_11_Alloc_nodeEEEPSt13_Rb_tree_nodeIS3_ESE_RT0_
FN:667,_ZNSt8_Rb_treeIiSt4pairIKiiESt10_Select1stIS2_ESt4lessIiESaIS2_EE13_Rb_tree_implIS6_Lb1EEC2Ev
FNDA:0,_ZNSt8_Rb_treeIiSt4pairIKiiESt10_Select1stIS2_ESt4lessIiESaIS2_EE13_Rb_tree_implIS6_Lb1EEC2Ev
FN:667,_ZNSt8_Rb_treeI5QCharSt4pairIKS0_iESt10_Select1stIS3_ESt4lessIS0_ESaIS3_EE13_Rb_tree_implIS7_Lb1EEC2Ev
FNDA:0,_ZNSt8_Rb_treeI5QCharSt4pairIKS0_iESt10_Select1stIS3_ESt4lessIS0_ESaIS3_EE13_Rb_tree_implIS7_Lb1EEC2Ev
FN:667,_ZNSt8_Rb_treeI5QCharSt4pairIKS0_7QStringESt10_Select1stIS4_ESt4lessIS0_ESaIS4_EE13_Rb_tree_implIS8_Lb1EEC2Ev
FNDA:0,_ZNSt8_Rb_treeI5QCharSt4pairIKS0_7QStringESt10_Select1stIS4_ESt4lessIS0_ESaIS4_EE13_Rb_tree_implIS8_Lb1EEC2Ev
FN:667,_ZNSt8_Rb_treeI7QStringSt4pairIKS0_S0_ESt10_Select1stIS3_ESt4lessIS0_ESaIS3_EE13_Rb_tree_implIS7_Lb1EEC2Ev
FNDA:0,_ZNSt8_Rb_treeI7QStringSt4pairIKS0_S0_ESt10_Select1stIS3_ESt4lessIS0_ESaIS3_EE13_Rb_tree_implIS7_Lb1EEC2Ev
FN:667,_ZNSt8_Rb_treeI5QCharSt4pairIKS0_5QListI7QStringEESt10_Select1stIS6_ESt4lessIS0_ESaIS6_EE13_Rb_tree_implISA_Lb1EEC2Ev
FNDA:0,_ZNSt8_Rb_treeI5QCharSt4pairIKS0_5QListI7QStringEESt10_Select1stIS6_ESt4lessIS0_ESaIS6_EE13_Rb_tree_implISA_Lb1EEC2Ev
FN:674,_ZNSt8_Rb_treeI5QCharSt4pairIKS0_iESt10_Select1stIS3_ESt4lessIS0_ESaIS3_EE13_Rb_tree_implIS7_Lb1EEC2ERKSB_
FNDA:0,_ZNSt8_Rb_treeI5QCharSt4pairIKS0_iESt10_Select1stIS3_ESt4lessIS0_ESaIS3_EE13_Rb_tree_implIS7_Lb1EEC2ERKSB_
FN:674,_ZNSt8_Rb_treeI5QCharSt4pairIKS0_7QStringESt10_Select1stIS4_ESt4lessIS0_ESaIS4_EE13_Rb_tree_implIS8_Lb1EEC2ERKSC_
FNDA:0,_ZNSt8_Rb_treeI5QCharSt4pairIKS0_7QStringESt10_Select1stIS4_ESt4lessIS0_ESaIS4_EE13_Rb_tree_implIS8_Lb1EEC2ERKSC_
FN:674,_ZNSt8_Rb_treeI5QCharSt4pairIKS0_5QListI7QStringEESt10_Select1stIS6_ESt4lessIS0_ESaIS6_EE13_Rb_tree_implISA_Lb1EEC2ERKSE_
FNDA:0,_ZNSt8_Rb_treeI5QCharSt4pairIKS0_5QListI7QStringEESt10_Select1stIS6_ESt4lessIS0_ESaIS6_EE13_Rb_tree_implISA_Lb1EEC2ERKSE_
FN:674,_ZNSt8_Rb_treeI7QStringSt4pairIKS0_S0_ESt10_Select1stIS3_ESt4lessIS0_ESaIS3_EE13_Rb_tree_implIS7_Lb1EEC2ERKSB_
FNDA:0,_ZNSt8_Rb_treeI7QStringSt4pairIKS0_S0_ESt10_Select1stIS3_ESt4lessIS0_ESaIS3_EE13_Rb_tree_implIS7_Lb1EEC2ERKSB_
FN:674,_ZNSt8_Rb_treeIiSt4pairIKiiESt10_Select1stIS2_ESt4lessIiESaIS2_EE13_Rb_tree_implIS6_Lb1EEC2ERKSA_
FNDA:0,_ZNSt8_Rb_treeIiSt4pairIKiiESt10_Select1stIS2_ESt4lessIiESaIS2_EE13_Rb_tree_implIS6_Lb1EEC2ERKSA_
FN:710,_ZNSt8_Rb_treeI5QCharSt4pairIKS0_iESt10_Select1stIS3_ESt4lessIS0_ESaIS3_EE7_M_rootEv
FNDA:0,_ZNSt8_Rb_treeI5QCharSt4pairIKS0_iESt10_Select1stIS3_ESt4lessIS0_ESaIS3_EE7_M_rootEv
FN:710,_ZNSt8_Rb_treeI7QStringSt4pairIKS0_S0_ESt10_Select1stIS3_ESt4lessIS0_ESaIS3_EE7_M_rootEv
FNDA:0,_ZNSt8_Rb_treeI7QStringSt4pairIKS0_S0_ESt10_Select1stIS3_ESt4lessIS0_ESaIS3_EE7_M_rootEv
FN:710,_ZNSt8_Rb_treeI5QCharSt4pairIKS0_7QStringESt10_Select1stIS4_ESt4lessIS0_ESaIS4_EE7_M_rootEv
FNDA:0,_ZNSt8_Rb_treeI5QCharSt4pairIKS0_7QStringESt10_Select1stIS4_ESt4lessIS0_ESaIS4_EE7_M_rootEv
FN:710,_ZNSt8_Rb_treeI5QCharSt4pairIKS0_5QListI7QStringEESt10_Select1stIS6_ESt4lessIS0_ESaIS6_EE7_M_rootEv
FNDA:0,_ZNSt8_Rb_treeI5QCharSt4pairIKS0_5QListI7QStringEESt10_Select1stIS6_ESt4lessIS0_ESaIS6_EE7_M_rootEv
FN:710,_ZNSt8_Rb_treeIiSt4pairIKiiESt10_Select1stIS2_ESt4lessIiESaIS2_EE7_M_rootEv
FNDA:0,_ZNSt8_Rb_treeIiSt4pairIKiiESt10_Select1stIS2_ESt4lessIiESaIS2_EE7_M_rootEv
FN:714,_ZNKSt8_Rb_treeI7QStringSt4pairIKS0_S0_ESt10_Select1stIS3_ESt4lessIS0_ESaIS3_EE7_M_rootEv
FNDA:0,_ZNKSt8_Rb_treeI7QStringSt4pairIKS0_S0_ESt10_Select1stIS3_ESt4lessIS0_ESaIS3_EE7_M_rootEv
FN:714,_ZNKSt8_Rb_treeIiSt4pairIKiiESt10_Select1stIS2_ESt4lessIiESaIS2_EE7_M_rootEv
FNDA:0,_ZNKSt8_Rb_treeIiSt4pairIKiiESt10_Select1stIS2_ESt4lessIiESaIS2_EE7_M_rootEv
FN:714,_ZNKSt8_Rb_treeI5QCharSt4pairIKS0_5QListI7QStringEESt10_Select1stIS6_ESt4lessIS0_ESaIS6_EE7_M_rootEv
FNDA:0,_ZNKSt8_Rb_treeI5QCharSt4pairIKS0_5QListI7QStringEESt10_Select1stIS6_ESt4lessIS0_ESaIS6_EE7_M_rootEv
FN:714,_ZNKSt8_Rb_treeI5QCharSt4pairIKS0_iESt10_Select1stIS3_ESt4lessIS0_ESaIS3_EE7_M_rootEv
FNDA:0,_ZNKSt8_Rb_treeI5QCharSt4pairIKS0_iESt10_Select1stIS3_ESt4lessIS0_ESaIS3_EE7_M_rootEv
FN:714,_ZNKSt8_Rb_treeI5QCharSt4pairIKS0_7QStringESt10_Select1stIS4_ESt4lessIS0_ESaIS4_EE7_M_rootEv
FNDA:0,_ZNKSt8_Rb_treeI5QCharSt4pairIKS0_7QStringESt10_Select1stIS4_ESt4lessIS0_ESaIS4_EE7_M_rootEv
FN:718,_ZNSt8_Rb_treeI5QCharSt4pairIKS0_5QListI7QStringEESt10_Select1stIS6_ESt4lessIS0_ESaIS6_EE11_M_leftmostEv
FNDA:0,_ZNSt8_Rb_treeI5QCharSt4pairIKS0_5QListI7QStringEESt10_Select1stIS6_ESt4lessIS0_ESaIS6_EE11_M_leftmostEv
FN:718,_ZNSt8_Rb_treeI5QCharSt4pairIKS0_iESt10_Select1stIS3_ESt4lessIS0_ESaIS3_EE11_M_leftmostEv
FNDA:0,_ZNSt8_Rb_treeI5QCharSt4pairIKS0_iESt10_Select1stIS3_ESt4lessIS0_ESaIS3_EE11_M_leftmostEv
FN:718,_ZNSt8_Rb_treeI7QStringSt4pairIKS0_S0_ESt10_Select1stIS3_ESt4lessIS0_ESaIS3_EE11_M_leftmostEv
FNDA:0,_ZNSt8_Rb_treeI7QStringSt4pairIKS0_S0_ESt10_Select1stIS3_ESt4lessIS0_ESaIS3_EE11_M_leftmostEv
FN:718,_ZNSt8_Rb_treeI5QCharSt4pairIKS0_7QStringESt10_Select1stIS4_ESt4lessIS0_ESaIS4_EE11_M_leftmostEv
FNDA:0,_ZNSt8_Rb_treeI5QCharSt4pairIKS0_7QStringESt10_Select1stIS4_ESt4lessIS0_ESaIS4_EE11_M_leftmostEv
FN:718,_ZNSt8_Rb_treeIiSt4pairIKiiESt10_Select1stIS2_ESt4lessIiESaIS2_EE11_M_leftmostEv
FNDA:0,_ZNSt8_Rb_treeIiSt4pairIKiiESt10_Select1stIS2_ESt4lessIiESaIS2_EE11_M_leftmostEv
FN:726,_ZNSt8_Rb_treeI7QStringSt4pairIKS0_S0_ESt10_Select1stIS3_ESt4lessIS0_ESaIS3_EE12_M_rightmostEv
FNDA:0,_ZNSt8_Rb_treeI7QStringSt4pairIKS0_S0_ESt10_Select1stIS3_ESt4lessIS0_ESaIS3_EE12_M_rightmostEv
FN:726,_ZNSt8_Rb_treeI5QCharSt4pairIKS0_7QStringESt10_Select1stIS4_ESt4lessIS0_ESaIS4_EE12_M_rightmostEv
FNDA:0,_ZNSt8_Rb_treeI5QCharSt4pairIKS0_7QStringESt10_Select1stIS4_ESt4lessIS0_ESaIS4_EE12_M_rightmostEv
FN:726,_ZNSt8_Rb_treeI5QCharSt4pairIKS0_5QListI7QStringEESt10_Select1stIS6_ESt4lessIS0_ESaIS6_EE12_M_rightmostEv
FNDA:0,_ZNSt8_Rb_treeI5QCharSt4pairIKS0_5QListI7QStringEESt10_Select1stIS6_ESt4lessIS0_ESaIS6_EE12_M_rightmostEv
FN:726,_ZNSt8_Rb_treeIiSt4pairIKiiESt10_Select1stIS2_ESt4lessIiESaIS2_EE12_M_rightmostEv
FNDA:0,_ZNSt8_Rb_treeIiSt4pairIKiiESt10_Select1stIS2_ESt4lessIiESaIS2_EE12_M_rightmostEv
FN:726,_ZNSt8_Rb_treeI5QCharSt4pairIKS0_iESt10_Select1stIS3_ESt4lessIS0_ESaIS3_EE12_M_rightmostEv
FNDA:0,_ZNSt8_Rb_treeI5QCharSt4pairIKS0_iESt10_Select1stIS3_ESt4lessIS0_ESaIS3_EE12_M_rightmostEv
FN:734,_ZNKSt8_Rb_treeIiSt4pairIKiiESt10_Select1stIS2_ESt4lessIiESaIS2_EE9_M_mbeginEv
FNDA:0,_ZNKSt8_Rb_treeIiSt4pairIKiiESt10_Select1stIS2_ESt4lessIiESaIS2_EE9_M_mbeginEv
FN:734,_ZNKSt8_Rb_treeI5QCharSt4pairIKS0_5QListI7QStringEESt10_Select1stIS6_ESt4lessIS0_ESaIS6_EE9_M_mbeginEv
FNDA:0,_ZNKSt8_Rb_treeI5QCharSt4pairIKS0_5QListI7QStringEESt10_Select1stIS6_ESt4lessIS0_ESaIS6_EE9_M_mbeginEv
FN:734,_ZNKSt8_Rb_treeI5QCharSt4pairIKS0_iESt10_Select1stIS3_ESt4lessIS0_ESaIS3_EE9_M_mbeginEv
FNDA:0,_ZNKSt8_Rb_treeI5QCharSt4pairIKS0_iESt10_Select1stIS3_ESt4lessIS0_ESaIS3_EE9_M_mbeginEv
FN:734,_ZNKSt8_Rb_treeI7QStringSt4pairIKS0_S0_ESt10_Select1stIS3_ESt4lessIS0_ESaIS3_EE9_M_mbeginEv
FNDA:0,_ZNKSt8_Rb_treeI7QStringSt4pairIKS0_S0_ESt10_Select1stIS3_ESt4lessIS0_ESaIS3_EE9_M_mbeginEv
FN:734,_ZNKSt8_Rb_treeI5QCharSt4pairIKS0_7QStringESt10_Select1stIS4_ESt4lessIS0_ESaIS4_EE9_M_mbeginEv
FNDA:0,_ZNKSt8_Rb_treeI5QCharSt4pairIKS0_7QStringESt10_Select1stIS4_ESt4lessIS0_ESaIS4_EE9_M_mbeginEv
FN:738,_ZNSt8_Rb_treeI5QCharSt4pairIKS0_5QListI7QStringEESt10_Select1stIS6_ESt4lessIS0_ESaIS6_EE8_M_beginEv
FNDA:0,_ZNSt8_Rb_treeI5QCharSt4pairIKS0_5QListI7QStringEESt10_Select1stIS6_ESt4lessIS0_ESaIS6_EE8_M_beginEv
FN:738,_ZNSt8_Rb_treeI5QCharSt4pairIKS0_iESt10_Select1stIS3_ESt4lessIS0_ESaIS3_EE8_M_beginEv
FNDA:0,_ZNSt8_Rb_treeI5QCharSt4pairIKS0_iESt10_Select1stIS3_ESt4lessIS0_ESaIS3_EE8_M_beginEv
FN:738,_ZNSt8_Rb_treeIiSt4pairIKiiESt10_Select1stIS2_ESt4lessIiESaIS2_EE8_M_beginEv
FNDA:0,_ZNSt8_Rb_treeIiSt4pairIKiiESt10_Select1stIS2_ESt4lessIiESaIS2_EE8_M_beginEv
FN:738,_ZNSt8_Rb_treeI7QStringSt4pairIKS0_S0_ESt10_Select1stIS3_ESt4lessIS0_ESaIS3_EE8_M_beginEv
FNDA:0,_ZNSt8_Rb_treeI7QStringSt4pairIKS0_S0_ESt10_Select1stIS3_ESt4lessIS0_ESaIS3_EE8_M_beginEv
FN:738,_ZNSt8_Rb_treeI5QCharSt4pairIKS0_7QStringESt10_Select1stIS4_ESt4lessIS0_ESaIS4_EE8_M_beginEv
FNDA:0,_ZNSt8_Rb_treeI5QCharSt4pairIKS0_7QStringESt10_Select1stIS4_ESt4lessIS0_ESaIS4_EE8_M_beginEv
FN:749,_ZNSt8_Rb_treeI7QStringSt4pairIKS0_S0_ESt10_Select1stIS3_ESt4lessIS0_ESaIS3_EE6_M_endEv
FNDA:0,_ZNSt8_Rb_treeI7QStringSt4pairIKS0_S0_ESt10_Select1stIS3_ESt4lessIS0_ESaIS3_EE6_M_endEv
FN:749,_ZNSt8_Rb_treeIiSt4pairIKiiESt10_Select1stIS2_ESt4lessIiESaIS2_EE6_M_endEv
FNDA:0,_ZNSt8_Rb_treeIiSt4pairIKiiESt10_Select1stIS2_ESt4lessIiESaIS2_EE6_M_endEv
FN:749,_ZNSt8_Rb_treeI5QCharSt4pairIKS0_7QStringESt10_Select1stIS4_ESt4lessIS0_ESaIS4_EE6_M_endEv
FNDA:0,_ZNSt8_Rb_treeI5QCharSt4pairIKS0_7QStringESt10_Select1stIS4_ESt4lessIS0_ESaIS4_EE6_M_endEv
FN:749,_ZNSt8_Rb_treeI5QCharSt4pairIKS0_iESt10_Select1stIS3_ESt4lessIS0_ESaIS3_EE6_M_endEv
FNDA:0,_ZNSt8_Rb_treeI5QCharSt4pairIKS0_iESt10_Select1stIS3_ESt4lessIS0_ESaIS3_EE6_M_endEv
FN:749,_ZNSt8_Rb_treeI5QCharSt4pairIKS0_5QListI7QStringEESt10_Select1stIS6_ESt4lessIS0_ESaIS6_EE6_M_endEv
FNDA:0,_ZNSt8_Rb_treeI5QCharSt4pairIKS0_5QListI7QStringEESt10_Select1stIS6_ESt4lessIS0_ESaIS6_EE6_M_endEv
FN:757,_ZNSt8_Rb_treeI5QCharSt4pairIKS0_iESt10_Select1stIS3_ESt4lessIS0_ESaIS3_EE6_S_keyEPKSt13_Rb_tree_nodeIS3_E
FNDA:0,_ZNSt8_Rb_treeI5QCharSt4pairIKS0_iESt10_Select1stIS3_ESt4lessIS0_ESaIS3_EE6_S_keyEPKSt13_Rb_tree_nodeIS3_E
FN:757,_ZNSt8_Rb_treeIiSt4pairIKiiESt10_Select1stIS2_ESt4lessIiESaIS2_EE6_S_keyEPKSt13_Rb_tree_nodeIS2_E
FNDA:0,_ZNSt8_Rb_treeIiSt4pairIKiiESt10_Select1stIS2_ESt4lessIiESaIS2_EE6_S_keyEPKSt13_Rb_tree_nodeIS2_E
FN:757,_ZNSt8_Rb_treeI5QCharSt4pairIKS0_7QStringESt10_Select1stIS4_ESt4lessIS0_ESaIS4_EE6_S_keyEPKSt13_Rb_tree_nodeIS4_E
FNDA:0,_ZNSt8_Rb_treeI5QCharSt4pairIKS0_7QStringESt10_Select1stIS4_ESt4lessIS0_ESaIS4_EE6_S_keyEPKSt13_Rb_tree_nodeIS4_E
FN:757,_ZNSt8_Rb_treeI5QCharSt4pairIKS0_5QListI7QStringEESt10_Select1stIS6_ESt4lessIS0_ESaIS6_EE6_S_keyEPKSt13_Rb_tree_nodeIS6_E
FNDA:0,_ZNSt8_Rb_treeI5QCharSt4pairIKS0_5QListI7QStringEESt10_Select1stIS6_ESt4lessIS0_ESaIS6_EE6_S_keyEPKSt13_Rb_tree_nodeIS6_E
FN:757,_ZNSt8_Rb_treeI7QStringSt4pairIKS0_S0_ESt10_Select1stIS3_ESt4lessIS0_ESaIS3_EE6_S_keyEPKSt13_Rb_tree_nodeIS3_E
FNDA:0,_ZNSt8_Rb_treeI7QStringSt4pairIKS0_S0_ESt10_Select1stIS3_ESt4lessIS0_ESaIS3_EE6_S_keyEPKSt13_Rb_tree_nodeIS3_E
FN:779,_ZNSt8_Rb_treeI5QCharSt4pairIKS0_7QStringESt10_Select1stIS4_ESt4lessIS0_ESaIS4_EE7_S_leftEPSt18_Rb_tree_node_base
FNDA:0,_ZNSt8_Rb_treeI5QCharSt4pairIKS0_7QStringESt10_Select1stIS4_ESt4lessIS0_ESaIS4_EE7_S_leftEPSt18_Rb_tree_node_base
FN:779,_ZNSt8_Rb_treeI5QCharSt4pairIKS0_5QListI7QStringEESt10_Select1stIS6_ESt4lessIS0_ESaIS6_EE7_S_leftEPSt18_Rb_tree_node_base
FNDA:0,_ZNSt8_Rb_treeI5QCharSt4pairIKS0_5QListI7QStringEESt10_Select1stIS6_ESt4lessIS0_ESaIS6_EE7_S_leftEPSt18_Rb_tree_node_base
FN:779,_ZNSt8_Rb_treeI5QCharSt4pairIKS0_iESt10_Select1stIS3_ESt4lessIS0_ESaIS3_EE7_S_leftEPSt18_Rb_tree_node_base
FNDA:0,_ZNSt8_Rb_treeI5QCharSt4pairIKS0_iESt10_Select1stIS3_ESt4lessIS0_ESaIS3_EE7_S_leftEPSt18_Rb_tree_node_base
FN:779,_ZNSt8_Rb_treeIiSt4pairIKiiESt10_Select1stIS2_ESt4lessIiESaIS2_EE7_S_leftEPSt18_Rb_tree_node_base
FNDA:0,_ZNSt8_Rb_treeIiSt4pairIKiiESt10_Select1stIS2_ESt4lessIiESaIS2_EE7_S_leftEPSt18_Rb_tree_node_base
FN:779,_ZNSt8_Rb_treeI7QStringSt4pairIKS0_S0_ESt10_Select1stIS3_ESt4lessIS0_ESaIS3_EE7_S_leftEPSt18_Rb_tree_node_base
FNDA:0,_ZNSt8_Rb_treeI7QStringSt4pairIKS0_S0_ESt10_Select1stIS3_ESt4lessIS0_ESaIS3_EE7_S_leftEPSt18_Rb_tree_node_base
FN:787,_ZNSt8_Rb_treeI5QCharSt4pairIKS0_5QListI7QStringEESt10_Select1stIS6_ESt4lessIS0_ESaIS6_EE8_S_rightEPSt18_Rb_tree_node_base
FNDA:0,_ZNSt8_Rb_treeI5QCharSt4pairIKS0_5QListI7QStringEESt10_Select1stIS6_ESt4lessIS0_ESaIS6_EE8_S_rightEPSt18_Rb_tree_node_base
FN:787,_ZNSt8_Rb_treeIiSt4pairIKiiESt10_Select1stIS2_ESt4lessIiESaIS2_EE8_S_rightEPSt18_Rb_tree_node_base
FNDA:0,_ZNSt8_Rb_treeIiSt4pairIKiiESt10_Select1stIS2_ESt4lessIiESaIS2_EE8_S_rightEPSt18_Rb_tree_node_base
FN:787,_ZNSt8_Rb_treeI5QCharSt4pairIKS0_iESt10_Select1stIS3_ESt4lessIS0_ESaIS3_EE8_S_rightEPSt18_Rb_tree_node_base
FNDA:0,_ZNSt8_Rb_treeI5QCharSt4pairIKS0_iESt10_Select1stIS3_ESt4lessIS0_ESaIS3_EE8_S_rightEPSt18_Rb_tree_node_base
FN:787,_ZNSt8_Rb_treeI7QStringSt4pairIKS0_S0_ESt10_Select1stIS3_ESt4lessIS0_ESaIS3_EE8_S_rightEPSt18_Rb_tree_node_base
FNDA:0,_ZNSt8_Rb_treeI7QStringSt4pairIKS0_S0_ESt10_Select1stIS3_ESt4lessIS0_ESaIS3_EE8_S_rightEPSt18_Rb_tree_node_base
FN:787,_ZNSt8_Rb_treeI5QCharSt4pairIKS0_7QStringESt10_Select1stIS4_ESt4lessIS0_ESaIS4_EE8_S_rightEPSt18_Rb_tree_node_base
FNDA:0,_ZNSt8_Rb_treeI5QCharSt4pairIKS0_7QStringESt10_Select1stIS4_ESt4lessIS0_ESaIS4_EE8_S_rightEPSt18_Rb_tree_node_base
FN:795,_ZNSt8_Rb_treeIiSt4pairIKiiESt10_Select1stIS2_ESt4lessIiESaIS2_EE6_S_keyEPKSt18_Rb_tree_node_base
FNDA:0,_ZNSt8_Rb_treeIiSt4pairIKiiESt10_Select1stIS2_ESt4lessIiESaIS2_EE6_S_keyEPKSt18_Rb_tree_node_base
FN:795,_ZNSt8_Rb_treeI5QCharSt4pairIKS0_iESt10_Select1stIS3_ESt4lessIS0_ESaIS3_EE6_S_keyEPKSt18_Rb_tree_node_base
FNDA:0,_ZNSt8_Rb_treeI5QCharSt4pairIKS0_iESt10_Select1stIS3_ESt4lessIS0_ESaIS3_EE6_S_keyEPKSt18_Rb_tree_node_base
FN:795,_ZNSt8_Rb_treeI7QStringSt4pairIKS0_S0_ESt10_Select1stIS3_ESt4lessIS0_ESaIS3_EE6_S_keyEPKSt18_Rb_tree_node_base
FNDA:0,_ZNSt8_Rb_treeI7QStringSt4pairIKS0_S0_ESt10_Select1stIS3_ESt4lessIS0_ESaIS3_EE6_S_keyEPKSt18_Rb_tree_node_base
FN:795,_ZNSt8_Rb_treeI5QCharSt4pairIKS0_5QListI7QStringEESt10_Select1stIS6_ESt4lessIS0_ESaIS6_EE6_S_keyEPKSt18_Rb_tree_node_base
FNDA:0,_ZNSt8_Rb_treeI5QCharSt4pairIKS0_5QListI7QStringEESt10_Select1stIS6_ESt4lessIS0_ESaIS6_EE6_S_keyEPKSt18_Rb_tree_node_base
FN:795,_ZNSt8_Rb_treeI5QCharSt4pairIKS0_7QStringESt10_Select1stIS4_ESt4lessIS0_ESaIS4_EE6_S_keyEPKSt18_Rb_tree_node_base
FNDA:0,_ZNSt8_Rb_treeI5QCharSt4pairIKS0_7QStringESt10_Select1stIS4_ESt4lessIS0_ESaIS4_EE6_S_keyEPKSt18_Rb_tree_node_base
FN:799,_ZNSt8_Rb_treeI5QCharSt4pairIKS0_7QStringESt10_Select1stIS4_ESt4lessIS0_ESaIS4_EE10_S_minimumEPSt18_Rb_tree_node_base
FNDA:0,_ZNSt8_Rb_treeI5QCharSt4pairIKS0_7QStringESt10_Select1stIS4_ESt4lessIS0_ESaIS4_EE10_S_minimumEPSt18_Rb_tree_node_base
FN:799,_ZNSt8_Rb_treeI5QCharSt4pairIKS0_iESt10_Select1stIS3_ESt4lessIS0_ESaIS3_EE10_S_minimumEPSt18_Rb_tree_node_base
FNDA:0,_ZNSt8_Rb_treeI5QCharSt4pairIKS0_iESt10_Select1stIS3_ESt4lessIS0_ESaIS3_EE10_S_minimumEPSt18_Rb_tree_node_base
FN:799,_ZNSt8_Rb_treeI5QCharSt4pairIKS0_5QListI7QStringEESt10_Select1stIS6_ESt4lessIS0_ESaIS6_EE10_S_minimumEPSt18_Rb_tree_node_base
FNDA:0,_ZNSt8_Rb_treeI5QCharSt4pairIKS0_5QListI7QStringEESt10_Select1stIS6_ESt4lessIS0_ESaIS6_EE10_S_minimumEPSt18_Rb_tree_node_base
FN:799,_ZNSt8_Rb_treeI7QStringSt4pairIKS0_S0_ESt10_Select1stIS3_ESt4lessIS0_ESaIS3_EE10_S_minimumEPSt18_Rb_tree_node_base
FNDA:0,_ZNSt8_Rb_treeI7QStringSt4pairIKS0_S0_ESt10_Select1stIS3_ESt4lessIS0_ESaIS3_EE10_S_minimumEPSt18_Rb_tree_node_base
FN:799,_ZNSt8_Rb_treeIiSt4pairIKiiESt10_Select1stIS2_ESt4lessIiESaIS2_EE10_S_minimumEPSt18_Rb_tree_node_base
FNDA:0,_ZNSt8_Rb_treeIiSt4pairIKiiESt10_Select1stIS2_ESt4lessIiESaIS2_EE10_S_minimumEPSt18_Rb_tree_node_base
FN:807,_ZNSt8_Rb_treeI5QCharSt4pairIKS0_7QStringESt10_Select1stIS4_ESt4lessIS0_ESaIS4_EE10_S_maximumEPSt18_Rb_tree_node_base
FNDA:0,_ZNSt8_Rb_treeI5QCharSt4pairIKS0_7QStringESt10_Select1stIS4_ESt4lessIS0_ESaIS4_EE10_S_maximumEPSt18_Rb_tree_node_base
FN:807,_ZNSt8_Rb_treeI7QStringSt4pairIKS0_S0_ESt10_Select1stIS3_ESt4lessIS0_ESaIS3_EE10_S_maximumEPSt18_Rb_tree_node_base
FNDA:0,_ZNSt8_Rb_treeI7QStringSt4pairIKS0_S0_ESt10_Select1stIS3_ESt4lessIS0_ESaIS3_EE10_S_maximumEPSt18_Rb_tree_node_base
FN:807,_ZNSt8_Rb_treeI5QCharSt4pairIKS0_5QListI7QStringEESt10_Select1stIS6_ESt4lessIS0_ESaIS6_EE10_S_maximumEPSt18_Rb_tree_node_base
FNDA:0,_ZNSt8_Rb_treeI5QCharSt4pairIKS0_5QListI7QStringEESt10_Select1stIS6_ESt4lessIS0_ESaIS6_EE10_S_maximumEPSt18_Rb_tree_node_base
FN:807,_ZNSt8_Rb_treeI5QCharSt4pairIKS0_iESt10_Select1stIS3_ESt4lessIS0_ESaIS3_EE10_S_maximumEPSt18_Rb_tree_node_base
FNDA:0,_ZNSt8_Rb_treeI5QCharSt4pairIKS0_iESt10_Select1stIS3_ESt4lessIS0_ESaIS3_EE10_S_maximumEPSt18_Rb_tree_node_base
FN:807,_ZNSt8_Rb_treeIiSt4pairIKiiESt10_Select1stIS2_ESt4lessIiESaIS2_EE10_S_maximumEPSt18_Rb_tree_node_base
FNDA:0,_ZNSt8_Rb_treeIiSt4pairIKiiESt10_Select1stIS2_ESt4lessIiESaIS2_EE10_S_maximumEPSt18_Rb_tree_node_base
FN:887,_ZNSt8_Rb_treeIiSt4pairIKiiESt10_Select1stIS2_ESt4lessIiESaIS2_EE7_M_copyILb0ENS8_11_Alloc_nodeEEEPSt13_Rb_tree_nodeIS2_ERKS8_RT0_
FNDA:0,_ZNSt8_Rb_treeIiSt4pairIKiiESt10_Select1stIS2_ESt4lessIiESaIS2_EE7_M_copyILb0ENS8_11_Alloc_nodeEEEPSt13_Rb_tree_nodeIS2_ERKS8_RT0_
FN:887,_ZNSt8_Rb_treeI7QStringSt4pairIKS0_S0_ESt10_Select1stIS3_ESt4lessIS0_ESaIS3_EE7_M_copyILb0ENS9_11_Alloc_nodeEEEPSt13_Rb_tree_nodeIS3_ERKS9_RT0_
FNDA:0,_ZNSt8_Rb_treeI7QStringSt4pairIKS0_S0_ESt10_Select1stIS3_ESt4lessIS0_ESaIS3_EE7_M_copyILb0ENS9_11_Alloc_nodeEEEPSt13_Rb_tree_nodeIS3_ERKS9_RT0_
FN:887,_ZNSt8_Rb_treeI5QCharSt4pairIKS0_5QListI7QStringEESt10_Select1stIS6_ESt4lessIS0_ESaIS6_EE7_M_copyILb0ENSC_11_Alloc_nodeEEEPSt13_Rb_tree_nodeIS6_ERKSC_RT0_
FNDA:0,_ZNSt8_Rb_treeI5QCharSt4pairIKS0_5QListI7QStringEESt10_Select1stIS6_ESt4lessIS0_ESaIS6_EE7_M_copyILb0ENSC_11_Alloc_nodeEEEPSt13_Rb_tree_nodeIS6_ERKSC_RT0_
FN:887,_ZNSt8_Rb_treeI5QCharSt4pairIKS0_7QStringESt10_Select1stIS4_ESt4lessIS0_ESaIS4_EE7_M_copyILb0ENSA_11_Alloc_nodeEEEPSt13_Rb_tree_nodeIS4_ERKSA_RT0_
FNDA:0,_ZNSt8_Rb_treeI5QCharSt4pairIKS0_7QStringESt10_Select1stIS4_ESt4lessIS0_ESaIS4_EE7_M_copyILb0ENSA_11_Alloc_nodeEEEPSt13_Rb_tree_nodeIS4_ERKSA_RT0_
FN:887,_ZNSt8_Rb_treeI5QCharSt4pairIKS0_iESt10_Select1stIS3_ESt4lessIS0_ESaIS3_EE7_M_copyILb0ENS9_11_Alloc_nodeEEEPSt13_Rb_tree_nodeIS3_ERKS9_RT0_
FNDA:0,_ZNSt8_Rb_treeI5QCharSt4pairIKS0_iESt10_Select1stIS3_ESt4lessIS0_ESaIS3_EE7_M_copyILb0ENS9_11_Alloc_nodeEEEPSt13_Rb_tree_nodeIS3_ERKS9_RT0_
FN:898,_ZNSt8_Rb_treeI5QCharSt4pairIKS0_iESt10_Select1stIS3_ESt4lessIS0_ESaIS3_EE7_M_copyERKS9_
FNDA:0,_ZNSt8_Rb_treeI5QCharSt4pairIKS0_iESt10_Select1stIS3_ESt4lessIS0_ESaIS3_EE7_M_copyERKS9_
FN:898,_ZNSt8_Rb_treeIiSt4pairIKiiESt10_Select1stIS2_ESt4lessIiESaIS2_EE7_M_copyERKS8_
FNDA:0,_ZNSt8_Rb_treeIiSt4pairIKiiESt10_Select1stIS2_ESt4lessIiESaIS2_EE7_M_copyERKS8_
FN:898,_ZNSt8_Rb_treeI7QStringSt4pairIKS0_S0_ESt10_Select1stIS3_ESt4lessIS0_ESaIS3_EE7_M_copyERKS9_
FNDA:0,_ZNSt8_Rb_treeI7QStringSt4pairIKS0_S0_ESt10_Select1stIS3_ESt4lessIS0_ESaIS3_EE7_M_copyERKS9_
FN:898,_ZNSt8_Rb_treeI5QCharSt4pairIKS0_5QListI7QStringEESt10_Select1stIS6_ESt4lessIS0_ESaIS6_EE7_M_copyERKSC_
FNDA:0,_ZNSt8_Rb_treeI5QCharSt4pairIKS0_5QListI7QStringEESt10_Select1stIS6_ESt4lessIS0_ESaIS6_EE7_M_copyERKSC_
FN:898,_ZNSt8_Rb_treeI5QCharSt4pairIKS0_7QStringESt10_Select1stIS4_ESt4lessIS0_ESaIS4_EE7_M_copyERKSA_
FNDA:0,_ZNSt8_Rb_treeI5QCharSt4pairIKS0_7QStringESt10_Select1stIS4_ESt4lessIS0_ESaIS4_EE7_M_copyERKSA_
FN:928,_ZNSt8_Rb_treeI5QCharSt4pairIKS0_iESt10_Select1stIS3_ESt4lessIS0_ESaIS3_EEC2Ev
FNDA:0,_ZNSt8_Rb_treeI5QCharSt4pairIKS0_iESt10_Select1stIS3_ESt4lessIS0_ESaIS3_EEC2Ev
FN:928,_ZNSt8_Rb_treeI5QCharSt4pairIKS0_7QStringESt10_Select1stIS4_ESt4lessIS0_ESaIS4_EEC2Ev
FNDA:0,_ZNSt8_Rb_treeI5QCharSt4pairIKS0_7QStringESt10_Select1stIS4_ESt4lessIS0_ESaIS4_EEC2Ev
FN:928,_ZNSt8_Rb_treeI5QCharSt4pairIKS0_5QListI7QStringEESt10_Select1stIS6_ESt4lessIS0_ESaIS6_EEC2Ev
FNDA:0,_ZNSt8_Rb_treeI5QCharSt4pairIKS0_5QListI7QStringEESt10_Select1stIS6_ESt4lessIS0_ESaIS6_EEC2Ev
FN:928,_ZNSt8_Rb_treeI7QStringSt4pairIKS0_S0_ESt10_Select1stIS3_ESt4lessIS0_ESaIS3_EEC2Ev
FNDA:0,_ZNSt8_Rb_treeI7QStringSt4pairIKS0_S0_ESt10_Select1stIS3_ESt4lessIS0_ESaIS3_EEC2Ev
FN:928,_ZNSt8_Rb_treeIiSt4pairIKiiESt10_Select1stIS2_ESt4lessIiESaIS2_EEC2Ev
FNDA:0,_ZNSt8_Rb_treeIiSt4pairIKiiESt10_Select1stIS2_ESt4lessIiESaIS2_EEC2Ev
FN:935,_ZNSt8_Rb_treeI5QCharSt4pairIKS0_iESt10_Select1stIS3_ESt4lessIS0_ESaIS3_EEC2ERKS9_
FNDA:0,_ZNSt8_Rb_treeI5QCharSt4pairIKS0_iESt10_Select1stIS3_ESt4lessIS0_ESaIS3_EEC2ERKS9_
FN:935,_ZNSt8_Rb_treeI5QCharSt4pairIKS0_7QStringESt10_Select1stIS4_ESt4lessIS0_ESaIS4_EEC2ERKSA_
FNDA:0,_ZNSt8_Rb_treeI5QCharSt4pairIKS0_7QStringESt10_Select1stIS4_ESt4lessIS0_ESaIS4_EEC2ERKSA_
FN:935,_ZNSt8_Rb_treeIiSt4pairIKiiESt10_Select1stIS2_ESt4lessIiESaIS2_EEC2ERKS8_
FNDA:0,_ZNSt8_Rb_treeIiSt4pairIKiiESt10_Select1stIS2_ESt4lessIiESaIS2_EEC2ERKS8_
FN:935,_ZNSt8_Rb_treeI5QCharSt4pairIKS0_5QListI7QStringEESt10_Select1stIS6_ESt4lessIS0_ESaIS6_EEC2ERKSC_
FNDA:0,_ZNSt8_Rb_treeI5QCharSt4pairIKS0_5QListI7QStringEESt10_Select1stIS6_ESt4lessIS0_ESaIS6_EEC2ERKSC_
FN:935,_ZNSt8_Rb_treeI7QStringSt4pairIKS0_S0_ESt10_Select1stIS3_ESt4lessIS0_ESaIS3_EEC2ERKS9_
FNDA:0,_ZNSt8_Rb_treeI7QStringSt4pairIKS0_S0_ESt10_Select1stIS3_ESt4lessIS0_ESaIS3_EEC2ERKS9_
FN:983,_ZNSt8_Rb_treeIiSt4pairIKiiESt10_Select1stIS2_ESt4lessIiESaIS2_EED2Ev
FNDA:0,_ZNSt8_Rb_treeIiSt4pairIKiiESt10_Select1stIS2_ESt4lessIiESaIS2_EED2Ev
FN:983,_ZNSt8_Rb_treeI7QStringSt4pairIKS0_S0_ESt10_Select1stIS3_ESt4lessIS0_ESaIS3_EED2Ev
FNDA:0,_ZNSt8_Rb_treeI7QStringSt4pairIKS0_S0_ESt10_Select1stIS3_ESt4lessIS0_ESaIS3_EED2Ev
FN:983,_ZNSt8_Rb_treeI5QCharSt4pairIKS0_5QListI7QStringEESt10_Select1stIS6_ESt4lessIS0_ESaIS6_EED2Ev
FNDA:0,_ZNSt8_Rb_treeI5QCharSt4pairIKS0_5QListI7QStringEESt10_Select1stIS6_ESt4lessIS0_ESaIS6_EED2Ev
FN:983,_ZNSt8_Rb_treeI5QCharSt4pairIKS0_iESt10_Select1stIS3_ESt4lessIS0_ESaIS3_EED2Ev
FNDA:0,_ZNSt8_Rb_treeI5QCharSt4pairIKS0_iESt10_Select1stIS3_ESt4lessIS0_ESaIS3_EED2Ev
FN:983,_ZNSt8_Rb_treeI5QCharSt4pairIKS0_7QStringESt10_Select1stIS4_ESt4lessIS0_ESaIS4_EED2Ev
FNDA:0,_ZNSt8_Rb_treeI5QCharSt4pairIKS0_7QStringESt10_Select1stIS4_ESt4lessIS0_ESaIS4_EED2Ev
FN:995,_ZNSt8_Rb_treeIiSt4pairIKiiESt10_Select1stIS2_ESt4lessIiESaIS2_EE5beginEv
FNDA:0,_ZNSt8_Rb_treeIiSt4pairIKiiESt10_Select1stIS2_ESt4lessIiESaIS2_EE5beginEv
FN:995,_ZNSt8_Rb_treeI5QCharSt4pairIKS0_iESt10_Select1stIS3_ESt4lessIS0_ESaIS3_EE5beginEv
FNDA:0,_ZNSt8_Rb_treeI5QCharSt4pairIKS0_iESt10_Select1stIS3_ESt4lessIS0_ESaIS3_EE5beginEv
FN:995,_ZNSt8_Rb_treeI5QCharSt4pairIKS0_7QStringESt10_Select1stIS4_ESt4lessIS0_ESaIS4_EE5beginEv
FNDA:0,_ZNSt8_Rb_treeI5QCharSt4pairIKS0_7QStringESt10_Select1stIS4_ESt4lessIS0_ESaIS4_EE5beginEv
FN:995,_ZNSt8_Rb_treeI5QCharSt4pairIKS0_5QListI7QStringEESt10_Select1stIS6_ESt4lessIS0_ESaIS6_EE5beginEv
FNDA:0,_ZNSt8_Rb_treeI5QCharSt4pairIKS0_5QListI7QStringEESt10_Select1stIS6_ESt4lessIS0_ESaIS6_EE5beginEv
FN:995,_ZNSt8_Rb_treeI7QStringSt4pairIKS0_S0_ESt10_Select1stIS3_ESt4lessIS0_ESaIS3_EE5beginEv
FNDA:0,_ZNSt8_Rb_treeI7QStringSt4pairIKS0_S0_ESt10_Select1stIS3_ESt4lessIS0_ESaIS3_EE5beginEv
FN:999,_ZNKSt8_Rb_treeI7QStringSt4pairIKS0_S0_ESt10_Select1stIS3_ESt4lessIS0_ESaIS3_EE5beginEv
FNDA:0,_ZNKSt8_Rb_treeI7QStringSt4pairIKS0_S0_ESt10_Select1stIS3_ESt4lessIS0_ESaIS3_EE5beginEv
FN:1003,_ZNSt8_Rb_treeI5QCharSt4pairIKS0_7QStringESt10_Select1stIS4_ESt4lessIS0_ESaIS4_EE3endEv
FNDA:0,_ZNSt8_Rb_treeI5QCharSt4pairIKS0_7QStringESt10_Select1stIS4_ESt4lessIS0_ESaIS4_EE3endEv
FN:1003,_ZNSt8_Rb_treeI5QCharSt4pairIKS0_iESt10_Select1stIS3_ESt4lessIS0_ESaIS3_EE3endEv
FNDA:0,_ZNSt8_Rb_treeI5QCharSt4pairIKS0_iESt10_Select1stIS3_ESt4lessIS0_ESaIS3_EE3endEv
FN:1003,_ZNSt8_Rb_treeIiSt4pairIKiiESt10_Select1stIS2_ESt4lessIiESaIS2_EE3endEv
FNDA:0,_ZNSt8_Rb_treeIiSt4pairIKiiESt10_Select1stIS2_ESt4lessIiESaIS2_EE3endEv
FN:1003,_ZNSt8_Rb_treeI7QStringSt4pairIKS0_S0_ESt10_Select1stIS3_ESt4lessIS0_ESaIS3_EE3endEv
FNDA:0,_ZNSt8_Rb_treeI7QStringSt4pairIKS0_S0_ESt10_Select1stIS3_ESt4lessIS0_ESaIS3_EE3endEv
FN:1003,_ZNSt8_Rb_treeI5QCharSt4pairIKS0_5QListI7QStringEESt10_Select1stIS6_ESt4lessIS0_ESaIS6_EE3endEv
FNDA:0,_ZNSt8_Rb_treeI5QCharSt4pairIKS0_5QListI7QStringEESt10_Select1stIS6_ESt4lessIS0_ESaIS6_EE3endEv
FN:1007,_ZNKSt8_Rb_treeI7QStringSt4pairIKS0_S0_ESt10_Select1stIS3_ESt4lessIS0_ESaIS3_EE3endEv
FNDA:0,_ZNKSt8_Rb_treeI7QStringSt4pairIKS0_S0_ESt10_Select1stIS3_ESt4lessIS0_ESaIS3_EE3endEv
FN:1031,_ZNKSt8_Rb_treeI7QStringSt4pairIKS0_S0_ESt10_Select1stIS3_ESt4lessIS0_ESaIS3_EE4sizeEv
FNDA:0,_ZNKSt8_Rb_treeI7QStringSt4pairIKS0_S0_ESt10_Select1stIS3_ESt4lessIS0_ESaIS3_EE4sizeEv
FN:1771,_ZNSt8_Rb_treeIiSt4pairIKiiESt10_Select1stIS2_ESt4lessIiESaIS2_EE10_M_insert_IS2_NS8_11_Alloc_nodeEEESt17_Rb_tree_iteratorIS2_EPSt18_Rb_tree_node_baseSE_OT_RT0_
FNDA:0,_ZNSt8_Rb_treeIiSt4pairIKiiESt10_Select1stIS2_ESt4lessIiESaIS2_EE10_M_insert_IS2_NS8_11_Alloc_nodeEEESt17_Rb_tree_iteratorIS2_EPSt18_Rb_tree_node_baseSE_OT_RT0_
FN:1771,_ZNSt8_Rb_treeI7QStringSt4pairIKS0_S0_ESt10_Select1stIS3_ESt4lessIS0_ESaIS3_EE10_M_insert_IS3_NS9_11_Alloc_nodeEEESt17_Rb_tree_iteratorIS3_EPSt18_Rb_tree_node_baseSF_OT_RT0_
FNDA:0,_ZNSt8_Rb_treeI7QStringSt4pairIKS0_S0_ESt10_Select1stIS3_ESt4lessIS0_ESaIS3_EE10_M_insert_IS3_NS9_11_Alloc_nodeEEESt17_Rb_tree_iteratorIS3_EPSt18_Rb_tree_node_baseSF_OT_RT0_
FN:1771,_ZNSt8_Rb_treeI5QCharSt4pairIKS0_iESt10_Select1stIS3_ESt4lessIS0_ESaIS3_EE10_M_insert_IS3_NS9_11_Alloc_nodeEEESt17_Rb_tree_iteratorIS3_EPSt18_Rb_tree_node_baseSF_OT_RT0_
FNDA:0,_ZNSt8_Rb_treeI5QCharSt4pairIKS0_iESt10_Select1stIS3_ESt4lessIS0_ESaIS3_EE10_M_insert_IS3_NS9_11_Alloc_nodeEEESt17_Rb_tree_iteratorIS3_EPSt18_Rb_tree_node_baseSF_OT_RT0_
FN:1771,_ZNSt8_Rb_treeI5QCharSt4pairIKS0_5QListI7QStringEESt10_Select1stIS6_ESt4lessIS0_ESaIS6_EE10_M_insert_IS6_NSC_11_Alloc_nodeEEESt17_Rb_tree_iteratorIS6_EPSt18_Rb_tree_node_baseSI_OT_RT0_
FNDA:0,_ZNSt8_Rb_treeI5QCharSt4pairIKS0_5QListI7QStringEESt10_Select1stIS6_ESt4lessIS0_ESaIS6_EE10_M_insert_IS6_NSC_11_Alloc_nodeEEESt17_Rb_tree_iteratorIS6_EPSt18_Rb_tree_node_baseSI_OT_RT0_
FN:1771,_ZNSt8_Rb_treeI5QCharSt4pairIKS0_7QStringESt10_Select1stIS4_ESt4lessIS0_ESaIS4_EE10_M_insert_IS4_NSA_11_Alloc_nodeEEESt17_Rb_tree_iteratorIS4_EPSt18_Rb_tree_node_baseSG_OT_RT0_
FNDA:0,_ZNSt8_Rb_treeI5QCharSt4pairIKS0_7QStringESt10_Select1stIS4_ESt4lessIS0_ESaIS4_EE10_M_insert_IS4_NSA_11_Alloc_nodeEEESt17_Rb_tree_iteratorIS4_EPSt18_Rb_tree_node_baseSG_OT_RT0_
FN:1845,_ZNSt8_Rb_treeI5QCharSt4pairIKS0_5QListI7QStringEESt10_Select1stIS6_ESt4lessIS0_ESaIS6_EE7_M_copyILb0ENSC_11_Alloc_nodeEEEPSt13_Rb_tree_nodeIS6_ESH_PSt18_Rb_tree_node_baseRT0_
FNDA:0,_ZNSt8_Rb_treeI5QCharSt4pairIKS0_5QListI7QStringEESt10_Select1stIS6_ESt4lessIS0_ESaIS6_EE7_M_copyILb0ENSC_11_Alloc_nodeEEEPSt13_Rb_tree_nodeIS6_ESH_PSt18_Rb_tree_node_baseRT0_
FN:1845,_ZNSt8_Rb_treeI5QCharSt4pairIKS0_7QStringESt10_Select1stIS4_ESt4lessIS0_ESaIS4_EE7_M_copyILb0ENSA_11_Alloc_nodeEEEPSt13_Rb_tree_nodeIS4_ESF_PSt18_Rb_tree_node_baseRT0_
FNDA:0,_ZNSt8_Rb_treeI5QCharSt4pairIKS0_7QStringESt10_Select1stIS4_ESt4lessIS0_ESaIS4_EE7_M_copyILb0ENSA_11_Alloc_nodeEEEPSt13_Rb_tree_nodeIS4_ESF_PSt18_Rb_tree_node_baseRT0_
FN:1845,_ZNSt8_Rb_treeI7QStringSt4pairIKS0_S0_ESt10_Select1stIS3_ESt4lessIS0_ESaIS3_EE7_M_copyILb0ENS9_11_Alloc_nodeEEEPSt13_Rb_tree_nodeIS3_ESE_PSt18_Rb_tree_node_baseRT0_
FNDA:0,_ZNSt8_Rb_treeI7QStringSt4pairIKS0_S0_ESt10_Select1stIS3_ESt4lessIS0_ESaIS3_EE7_M_copyILb0ENS9_11_Alloc_nodeEEEPSt13_Rb_tree_nodeIS3_ESE_PSt18_Rb_tree_node_baseRT0_
FN:1845,_ZNSt8_Rb_treeI5QCharSt4pairIKS0_iESt10_Select1stIS3_ESt4lessIS0_ESaIS3_EE7_M_copyILb0ENS9_11_Alloc_nodeEEEPSt13_Rb_tree_nodeIS3_ESE_PSt18_Rb_tree_node_baseRT0_
FNDA:0,_ZNSt8_Rb_treeI5QCharSt4pairIKS0_iESt10_Select1stIS3_ESt4lessIS0_ESaIS3_EE7_M_copyILb0ENS9_11_Alloc_nodeEEEPSt13_Rb_tree_nodeIS3_ESE_PSt18_Rb_tree_node_baseRT0_
FN:1845,_ZNSt8_Rb_treeIiSt4pairIKiiESt10_Select1stIS2_ESt4lessIiESaIS2_EE7_M_copyILb0ENS8_11_Alloc_nodeEEEPSt13_Rb_tree_nodeIS2_ESD_PSt18_Rb_tree_node_baseRT0_
FNDA:0,_ZNSt8_Rb_treeIiSt4pairIKiiESt10_Select1stIS2_ESt4lessIiESaIS2_EE7_M_copyILb0ENS8_11_Alloc_nodeEEEPSt13_Rb_tree_nodeIS2_ESD_PSt18_Rb_tree_node_baseRT0_
FN:1883,_ZNSt8_Rb_treeI5QCharSt4pairIKS0_iESt10_Select1stIS3_ESt4lessIS0_ESaIS3_EE8_M_eraseEPSt13_Rb_tree_nodeIS3_E
FNDA:0,_ZNSt8_Rb_treeI5QCharSt4pairIKS0_iESt10_Select1stIS3_ESt4lessIS0_ESaIS3_EE8_M_eraseEPSt13_Rb_tree_nodeIS3_E
FN:1883,_ZNSt8_Rb_treeI5QCharSt4pairIKS0_7QStringESt10_Select1stIS4_ESt4lessIS0_ESaIS4_EE8_M_eraseEPSt13_Rb_tree_nodeIS4_E
FNDA:0,_ZNSt8_Rb_treeI5QCharSt4pairIKS0_7QStringESt10_Select1stIS4_ESt4lessIS0_ESaIS4_EE8_M_eraseEPSt13_Rb_tree_nodeIS4_E
FN:1883,_ZNSt8_Rb_treeI5QCharSt4pairIKS0_5QListI7QStringEESt10_Select1stIS6_ESt4lessIS0_ESaIS6_EE8_M_eraseEPSt13_Rb_tree_nodeIS6_E
FNDA:0,_ZNSt8_Rb_treeI5QCharSt4pairIKS0_5QListI7QStringEESt10_Select1stIS6_ESt4lessIS0_ESaIS6_EE8_M_eraseEPSt13_Rb_tree_nodeIS6_E
FN:1883,_ZNSt8_Rb_treeIiSt4pairIKiiESt10_Select1stIS2_ESt4lessIiESaIS2_EE8_M_eraseEPSt13_Rb_tree_nodeIS2_E
FNDA:0,_ZNSt8_Rb_treeIiSt4pairIKiiESt10_Select1stIS2_ESt4lessIiESaIS2_EE8_M_eraseEPSt13_Rb_tree_nodeIS2_E
FN:1883,_ZNSt8_Rb_treeI7QStringSt4pairIKS0_S0_ESt10_Select1stIS3_ESt4lessIS0_ESaIS3_EE8_M_eraseEPSt13_Rb_tree_nodeIS3_E
FNDA:0,_ZNSt8_Rb_treeI7QStringSt4pairIKS0_S0_ESt10_Select1stIS3_ESt4lessIS0_ESaIS3_EE8_M_eraseEPSt13_Rb_tree_nodeIS3_E
FN:1900,_ZNSt8_Rb_treeI5QCharSt4pairIKS0_5QListI7QStringEESt10_Select1stIS6_ESt4lessIS0_ESaIS6_EE14_M_lower_boundEPSt13_Rb_tree_nodeIS6_EPSt18_Rb_tree_node_baseRS2_
FNDA:0,_ZNSt8_Rb_treeI5QCharSt4pairIKS0_5QListI7QStringEESt10_Select1stIS6_ESt4lessIS0_ESaIS6_EE14_M_lower_boundEPSt13_Rb_tree_nodeIS6_EPSt18_Rb_tree_node_baseRS2_
FN:1900,_ZNSt8_Rb_treeI5QCharSt4pairIKS0_iESt10_Select1stIS3_ESt4lessIS0_ESaIS3_EE14_M_lower_boundEPSt13_Rb_tree_nodeIS3_EPSt18_Rb_tree_node_baseRS2_
FNDA:0,_ZNSt8_Rb_treeI5QCharSt4pairIKS0_iESt10_Select1stIS3_ESt4lessIS0_ESaIS3_EE14_M_lower_boundEPSt13_Rb_tree_nodeIS3_EPSt18_Rb_tree_node_baseRS2_
FN:1900,_ZNSt8_Rb_treeIiSt4pairIKiiESt10_Select1stIS2_ESt4lessIiESaIS2_EE14_M_lower_boundEPSt13_Rb_tree_nodeIS2_EPSt18_Rb_tree_node_baseRS1_
FNDA:0,_ZNSt8_Rb_treeIiSt4pairIKiiESt10_Select1stIS2_ESt4lessIiESaIS2_EE14_M_lower_boundEPSt13_Rb_tree_nodeIS2_EPSt18_Rb_tree_node_baseRS1_
FN:1900,_ZNSt8_Rb_treeI7QStringSt4pairIKS0_S0_ESt10_Select1stIS3_ESt4lessIS0_ESaIS3_EE14_M_lower_boundEPSt13_Rb_tree_nodeIS3_EPSt18_Rb_tree_node_baseRS2_
FNDA:0,_ZNSt8_Rb_treeI7QStringSt4pairIKS0_S0_ESt10_Select1stIS3_ESt4lessIS0_ESaIS3_EE14_M_lower_boundEPSt13_Rb_tree_nodeIS3_EPSt18_Rb_tree_node_baseRS2_
FN:1900,_ZNSt8_Rb_treeI5QCharSt4pairIKS0_7QStringESt10_Select1stIS4_ESt4lessIS0_ESaIS4_EE14_M_lower_boundEPSt13_Rb_tree_nodeIS4_EPSt18_Rb_tree_node_baseRS2_
FNDA:0,_ZNSt8_Rb_treeI5QCharSt4pairIKS0_7QStringESt10_Select1stIS4_ESt4lessIS0_ESaIS4_EE14_M_lower_boundEPSt13_Rb_tree_nodeIS4_EPSt18_Rb_tree_node_baseRS2_
FN:2061,_ZNSt8_Rb_treeI7QStringSt4pairIKS0_S0_ESt10_Select1stIS3_ESt4lessIS0_ESaIS3_EE24_M_get_insert_unique_posERS2_
FNDA:0,_ZNSt8_Rb_treeI7QStringSt4pairIKS0_S0_ESt10_Select1stIS3_ESt4lessIS0_ESaIS3_EE24_M_get_insert_unique_posERS2_
FN:2061,_ZNSt8_Rb_treeIiSt4pairIKiiESt10_Select1stIS2_ESt4lessIiESaIS2_EE24_M_get_insert_unique_posERS1_
FNDA:0,_ZNSt8_Rb_treeIiSt4pairIKiiESt10_Select1stIS2_ESt4lessIiESaIS2_EE24_M_get_insert_unique_posERS1_
FN:2061,_ZNSt8_Rb_treeI5QCharSt4pairIKS0_iESt10_Select1stIS3_ESt4lessIS0_ESaIS3_EE24_M_get_insert_unique_posERS2_
FNDA:0,_ZNSt8_Rb_treeI5QCharSt4pairIKS0_iESt10_Select1stIS3_ESt4lessIS0_ESaIS3_EE24_M_get_insert_unique_posERS2_
FN:2061,_ZNSt8_Rb_treeI5QCharSt4pairIKS0_5QListI7QStringEESt10_Select1stIS6_ESt4lessIS0_ESaIS6_EE24_M_get_insert_unique_posERS2_
FNDA:0,_ZNSt8_Rb_treeI5QCharSt4pairIKS0_5QListI7QStringEESt10_Select1stIS6_ESt4lessIS0_ESaIS6_EE24_M_get_insert_unique_posERS2_
FN:2061,_ZNSt8_Rb_treeI5QCharSt4pairIKS0_7QStringESt10_Select1stIS4_ESt4lessIS0_ESaIS4_EE24_M_get_insert_unique_posERS2_
FNDA:0,_ZNSt8_Rb_treeI5QCharSt4pairIKS0_7QStringESt10_Select1stIS4_ESt4lessIS0_ESaIS4_EE24_M_get_insert_unique_posERS2_
FN:2115,_ZNSt8_Rb_treeI5QCharSt4pairIKS0_iESt10_Select1stIS3_ESt4lessIS0_ESaIS3_EE16_M_insert_uniqueIS3_EES1_ISt17_Rb_tree_iteratorIS3_EbEOT_
FNDA:0,_ZNSt8_Rb_treeI5QCharSt4pairIKS0_iESt10_Select1stIS3_ESt4lessIS0_ESaIS3_EE16_M_insert_uniqueIS3_EES1_ISt17_Rb_tree_iteratorIS3_EbEOT_
FN:2115,_ZNSt8_Rb_treeIiSt4pairIKiiESt10_Select1stIS2_ESt4lessIiESaIS2_EE16_M_insert_uniqueIS2_EES0_ISt17_Rb_tree_iteratorIS2_EbEOT_
FNDA:0,_ZNSt8_Rb_treeIiSt4pairIKiiESt10_Select1stIS2_ESt4lessIiESaIS2_EE16_M_insert_uniqueIS2_EES0_ISt17_Rb_tree_iteratorIS2_EbEOT_
FN:2115,_ZNSt8_Rb_treeI7QStringSt4pairIKS0_S0_ESt10_Select1stIS3_ESt4lessIS0_ESaIS3_EE16_M_insert_uniqueIS3_EES1_ISt17_Rb_tree_iteratorIS3_EbEOT_
FNDA:0,_ZNSt8_Rb_treeI7QStringSt4pairIKS0_S0_ESt10_Select1stIS3_ESt4lessIS0_ESaIS3_EE16_M_insert_uniqueIS3_EES1_ISt17_Rb_tree_iteratorIS3_EbEOT_
FN:2115,_ZNSt8_Rb_treeI5QCharSt4pairIKS0_5QListI7QStringEESt10_Select1stIS6_ESt4lessIS0_ESaIS6_EE16_M_insert_uniqueIS6_EES1_ISt17_Rb_tree_iteratorIS6_EbEOT_
FNDA:0,_ZNSt8_Rb_treeI5QCharSt4pairIKS0_5QListI7QStringEESt10_Select1stIS6_ESt4lessIS0_ESaIS6_EE16_M_insert_uniqueIS6_EES1_ISt17_Rb_tree_iteratorIS6_EbEOT_
FN:2115,_ZNSt8_Rb_treeI5QCharSt4pairIKS0_7QStringESt10_Select1stIS4_ESt4lessIS0_ESaIS4_EE16_M_insert_uniqueIS4_EES1_ISt17_Rb_tree_iteratorIS4_EbEOT_
FNDA:0,_ZNSt8_Rb_treeI5QCharSt4pairIKS0_7QStringESt10_Select1stIS4_ESt4lessIS0_ESaIS4_EE16_M_insert_uniqueIS4_EES1_ISt17_Rb_tree_iteratorIS4_EbEOT_
FN:2520,_ZNSt8_Rb_treeI5QCharSt4pairIKS0_iESt10_Select1stIS3_ESt4lessIS0_ESaIS3_EE4findERS2_
FNDA:0,_ZNSt8_Rb_treeI5QCharSt4pairIKS0_iESt10_Select1stIS3_ESt4lessIS0_ESaIS3_EE4findERS2_
FN:2520,_ZNSt8_Rb_treeIiSt4pairIKiiESt10_Select1stIS2_ESt4lessIiESaIS2_EE4findERS1_
FNDA:0,_ZNSt8_Rb_treeIiSt4pairIKiiESt10_Select1stIS2_ESt4lessIiESaIS2_EE4findERS1_
FN:2520,_ZNSt8_Rb_treeI7QStringSt4pairIKS0_S0_ESt10_Select1stIS3_ESt4lessIS0_ESaIS3_EE4findERS2_
FNDA:0,_ZNSt8_Rb_treeI7QStringSt4pairIKS0_S0_ESt10_Select1stIS3_ESt4lessIS0_ESaIS3_EE4findERS2_
FN:2520,_ZNSt8_Rb_treeI5QCharSt4pairIKS0_5QListI7QStringEESt10_Select1stIS6_ESt4lessIS0_ESaIS6_EE4findERS2_
FNDA:0,_ZNSt8_Rb_treeI5QCharSt4pairIKS0_5QListI7QStringEESt10_Select1stIS6_ESt4lessIS0_ESaIS6_EE4findERS2_
FN:2520,_ZNSt8_Rb_treeI5QCharSt4pairIKS0_7QStringESt10_Select1stIS4_ESt4lessIS0_ESaIS4_EE4findERS2_
FNDA:0,_ZNSt8_Rb_treeI5QCharSt4pairIKS0_7QStringESt10_Select1stIS4_ESt4lessIS0_ESaIS4_EE4findERS2_
DA:112,0
DA:114,0
BRDA:114,0,0,-
BRDA:114,0,1,-
DA:115,0
DA:126,0
DA:128,0
BRDA:128,0,0,-
BRDA:128,0,1,-
DA:129,0
DA:146,0
DA:150,0
DA:146,8
DA:150,8
DA:146,0
DA:150,0
DA:152,0
DA:154,0
DA:152,0
DA:154,0
DA:152,0
DA:154,0
DA:173,0
DA:174,0
DA:175,0
DA:176,0
DA:177,0
DA:206,0
DA:208,0
DA:209,0
DA:210,0
DA:211,0
DA:212,0
DA:234,0
DA:235,0
DA:234,0
DA:235,0
DA:234,0
DA:235,0
DA:234,0
DA:235,0
DA:234,0
DA:235,0
DA:238,0
DA:239,0
DA:238,0
DA:239,0
DA:238,0
DA:239,0
DA:238,0
DA:239,0
DA:238,0
DA:239,0
DA:273,0
DA:274,0
DA:273,0
DA:274,0
DA:273,0
DA:274,0
DA:273,0
DA:274,0
DA:273,0
DA:274,0
DA:281,0
DA:282,0
DA:281,0
DA:282,0
DA:281,0
DA:282,0
DA:281,0
DA:282,0
DA:281,0
DA:282,0
DA:285,8
DA:287,8
DA:288,8
DA:285,10
DA:287,10
DA:288,10
DA:285,10
DA:287,10
DA:288,10
DA:300,0
DA:302,0
DA:303,0
DA:300,0
DA:302,0
DA:303,0
DA:300,0
DA:302,0
DA:303,0
DA:300,0
DA:302,0
DA:303,0
DA:300,0
DA:302,0
DA:303,0
DA:315,0
DA:316,0
DA:315,0
DA:316,0
DA:315,0
DA:316,0
DA:315,0
DA:316,0
DA:315,0
DA:316,0
DA:320,10
DA:321,10
DA:320,12
DA:321,12
DA:320,12
DA:321,12
DA:343,0
DA:344,0
DA:347,0
DA:348,0
DA:358,0
DA:359,0
DA:362,0
DA:363,0
DA:366,0
DA:368,0
DA:369,0
DA:401,0
DA:402,0
DA:523,0
DA:524,0
DA:523,0
DA:524,0
DA:523,0
DA:524,0
DA:523,0
DA:524,0
DA:523,0
DA:524,0
DA:528,0
DA:529,0
DA:528,0
DA:529,0
DA:528,0
DA:529,0
DA:528,0
DA:529,0
DA:528,0
DA:529,0
DA:528,0
DA:529,0
DA:528,0
DA:529,0
DA:528,0
DA:529,0
DA:528,0
DA:529,0
DA:528,0
DA:529,0
DA:547,0
DA:548,0
DA:547,0
DA:548,0
DA:547,0
DA:548,0
DA:547,0
DA:548,0
DA:547,0
DA:548,0
DA:560,0
DA:561,0
DA:560,0
DA:561,0
DA:560,0
DA:561,0
DA:560,0
DA:561,0
DA:560,0
DA:561,0
DA:564,0
DA:565,0
DA:564,0
DA:565,0
DA:564,0
DA:565,0
DA:564,0
DA:565,0
DA:564,0
DA:565,0
DA:590,0
DA:594,0
DA:595,0
DA:605,0
DA:590,0
DA:594,0
DA:595,0
DA:605,0
DA:590,0
DA:594,0
DA:595,0
DA:605,0
DA:590,0
DA:594,0
DA:595,0
DA:605,0
DA:590,0
DA:594,0
DA:595,0
DA:605,0
DA:590,0
DA:594,0
DA:595,0
DA:605,0
DA:590,0
DA:594,0
DA:595,0
DA:605,0
DA:590,0
DA:594,0
DA:595,0
DA:605,0
DA:590,0
DA:594,0
DA:595,0
DA:605,0
DA:590,0
DA:594,0
DA:595,0
DA:605,0
DA:609,0
DA:611,0
DA:612,0
DA:613,0
DA:609,0
DA:611,0
DA:612,0
DA:613,0
DA:609,0
DA:611,0
DA:612,0
DA:613,0
DA:609,0
DA:611,0
DA:612,0
DA:613,0
DA:609,0
DA:611,0
DA:612,0
DA:613,0
DA:609,0
DA:611,0
DA:612,0
DA:613,0
DA:609,0
DA:611,0
DA:612,0
DA:613,0
DA:609,0
DA:611,0
DA:612,0
DA:613,0
DA:609,0
DA:611,0
DA:612,0
DA:613,0
DA:609,0
DA:611,0
DA:612,0
DA:613,0
DA:618,0
DA:623,0
DA:624,0
DA:626,0
DA:618,0
DA:623,0
DA:624,0
DA:626,0
DA:618,0
DA:623,0
DA:624,0
DA:626,0
DA:618,0
DA:623,0
DA:624,0
DA:626,0
DA:618,0
DA:623,0
DA:624,0
DA:626,0
DA:629,0
DA:631,0
DA:632,0
DA:633,0
DA:629,0
DA:631,0
DA:632,0
DA:633,0
DA:629,0
DA:631,0
DA:632,0
DA:633,0
DA:629,0
DA:631,0
DA:632,0
DA:633,0
DA:629,0
DA:631,0
DA:632,0
DA:633,0
DA:637,0
DA:645,0
DA:646,0
DA:647,0
DA:648,0
DA:649,0
DA:637,0
DA:645,0
DA:646,0
DA:647,0
DA:648,0
DA:649,0
DA:637,0
DA:645,0
DA:646,0
DA:647,0
DA:648,0
DA:649,0
DA:637,0
DA:645,0
DA:646,0
DA:647,0
DA:648,0
DA:649,0
DA:637,0
DA:645,0
DA:646,0
DA:647,0
DA:648,0
DA:649,0
DA:667,0
DA:671,0
DA:672,0
DA:667,0
DA:671,0
DA:672,0
DA:667,0
DA:671,0
DA:672,0
DA:667,0
DA:671,0
DA:672,0
DA:667,0
DA:671,0
DA:672,0
DA:674,0
DA:676,0
DA:677,0
DA:678,0
DA:674,0
DA:676,0
DA:677,0
DA:678,0
DA:674,0
DA:676,0
DA:677,0
DA:678,0
DA:674,0
DA:676,0
DA:677,0
DA:678,0
DA:674,0
DA:676,0
DA:677,0
DA:678,0
DA:710,0
DA:711,0
DA:710,0
DA:711,0
DA:710,0
DA:711,0
DA:710,0
DA:711,0
DA:710,0
DA:711,0
DA:714,0
DA:715,0
DA:714,0
DA:715,0
DA:714,0
DA:715,0
DA:714,0
DA:715,0
DA:714,0
DA:715,0
DA:718,0
DA:719,0
DA:718,0
DA:719,0
DA:718,0
DA:719,0
DA:718,0
DA:719,0
DA:718,0
DA:719,0
DA:726,0
DA:727,0
DA:726,0
DA:727,0
DA:726,0
DA:727,0
DA:726,0
DA:727,0
DA:726,0
DA:727,0
DA:734,0
DA:735,0
DA:734,0
DA:735,0
DA:734,0
DA:735,0
DA:734,0
DA:735,0
DA:734,0
DA:735,0
DA:738,0
DA:739,0
DA:738,0
DA:739,0
DA:738,0
DA:739,0
DA:738,0
DA:739,0
DA:738,0
DA:739,0
DA:749,0
DA:750,0
DA:749,0
DA:750,0
DA:749,0
DA:750,0
DA:749,0
DA:750,0
DA:749,0
DA:750,0
DA:757,0
DA:775,0
DA:757,0
DA:775,0
DA:757,0
DA:775,0
DA:757,0
DA:775,0
DA:757,0
DA:775,0
DA:779,0
DA:780,0
DA:779,0
DA:780,0
DA:779,0
DA:780,0
DA:779,0
DA:780,0
DA:779,0
DA:780,0
DA:787,0
DA:788,0
DA:787,0
DA:788,0
DA:787,0
DA:788,0
DA:787,0
DA:788,0
DA:787,0
DA:788,0
DA:795,0
DA:796,0
DA:795,0
DA:796,0
DA:795,0
DA:796,0
DA:795,0
DA:796,0
DA:795,0
DA:796,0
DA:799,0
DA:800,0
DA:799,0
DA:800,0
DA:799,0
DA:800,0
DA:799,0
DA:800,0
DA:799,0
DA:800,0
DA:807,0
DA:808,0
DA:807,0
DA:808,0
DA:807,0
DA:808,0
DA:807,0
DA:808,0
DA:807,0
DA:808,0
DA:887,0
DA:890,0
DA:891,0
DA:892,0
DA:893,0
DA:894,0
DA:887,0
DA:890,0
DA:891,0
DA:892,0
DA:893,0
DA:894,0
DA:887,0
DA:890,0
DA:891,0
DA:892,0
DA:893,0
DA:894,0
DA:887,0
DA:890,0
DA:891,0
DA:892,0
DA:893,0
DA:894,0
DA:887,0
DA:890,0
DA:891,0
DA:892,0
DA:893,0
DA:894,0
DA:898,0
DA:900,0
DA:901,0
BRDA:901,0,0,-
BRDA:901,0,1,-
DA:898,0
DA:900,0
DA:901,0
BRDA:901,0,0,-
BRDA:901,0,1,-
DA:898,0
DA:900,0
DA:901,0
BRDA:901,0,0,-
BRDA:901,0,1,-
DA:898,0
DA:900,0
DA:901,0
BRDA:901,0,0,-
BRDA:901,0,1,-
DA:898,0
DA:900,0
DA:901,0
BRDA:901,0,0,-
BRDA:901,0,1,-
DA:928,0
DA:928,0
DA:928,0
DA:928,0
DA:928,0
DA:935,0
DA:936,0
DA:938,0
BRDA:938,0,0,-
BRDA:938,0,1,-
DA:939,0
BRDA:939,0,0,-
BRDA:939,0,1,-
DA:940,0
DA:935,0
DA:936,0
DA:938,0
BRDA:938,0,0,-
BRDA:938,0,1,-
DA:939,0
BRDA:939,0,0,-
BRDA:939,0,1,-
DA:940,0
DA:935,0
DA:936,0
DA:938,0
BRDA:938,0,0,-
BRDA:938,0,1,-
DA:939,0
BRDA:939,0,0,-
BRDA:939,0,1,-
DA:940,0
DA:935,0
DA:936,0
DA:938,0
BRDA:938,0,0,-
BRDA:938,0,1,-
DA:939,0
BRDA:939,0,0,-
BRDA:939,0,1,-
DA:940,0
DA:935,0
DA:936,0
DA:938,0
BRDA:938,0,0,-
BRDA:938,0,1,-
DA:939,0
BRDA:939,0,0,-
BRDA:939,0,1,-
DA:940,0
DA:983,0
DA:984,0
DA:983,0
DA:984,0
DA:983,0
DA:984,0
DA:983,0
DA:984,0
DA:983,0
DA:984,0
DA:995,0
DA:996,0
DA:995,0
DA:996,0
DA:995,0
DA:996,0
DA:995,0
DA:996,0
DA:995,0
DA:996,0
DA:999,0
DA:1000,0
DA:1003,0
DA:1004,0
DA:1003,0
DA:1004,0
DA:1003,0
DA:1004,0
DA:1003,0
DA:1004,0
DA:1003,0
DA:1004,0
DA:1007,0
DA:1008,0
DA:1031,0
DA:1032,0
DA:1771,0
DA:1780,0
BRDA:1780,0,0,-
BRDA:1780,0,1,-
DA:1781,0
BRDA:1781,0,0,-
BRDA:1781,0,1,-
BRDA:1781,0,2,-
BRDA:1781,0,3,-
BRDA:1781,0,4,-
BRDA:1781,0,5,-
DA:1784,0
DA:1786,0
DA:1787,0
DA:1788,0
DA:1789,0
DA:1771,0
DA:1780,0
BRDA:1780,0,0,-
BRDA:1780,0,1,-
DA:1781,0
BRDA:1781,0,0,-
BRDA:1781,0,1,-
BRDA:1781,0,2,-
BRDA:1781,0,3,-
BRDA:1781,0,4,-
BRDA:1781,0,5,-
DA:1784,0
DA:1786,0
DA:1787,0
DA:1788,0
DA:1789,0
DA:1771,0
DA:1780,0
BRDA:1780,0,0,-
BRDA:1780,0,1,-
DA:1781,0
BRDA:1781,0,0,-
BRDA:1781,0,1,-
BRDA:1781,0,2,-
BRDA:1781,0,3,-
BRDA:1781,0,4,-
BRDA:1781,0,5,-
DA:1784,0
DA:1786,0
DA:1787,0
DA:1788,0
DA:1789,0
DA:1771,0
DA:1780,0
BRDA:1780,0,0,-
BRDA:1780,0,1,-
DA:1781,0
BRDA:1781,0,0,-
BRDA:1781,0,1,-
BRDA:1781,0,2,-
BRDA:1781,0,3,-
BRDA:1781,0,4,-
BRDA:1781,0,5,-
DA:1784,0
DA:1786,0
DA:1787,0
DA:1788,0
DA:1789,0
DA:1771,0
DA:1780,0
BRDA:1780,0,0,-
BRDA:1780,0,1,-
DA:1781,0
BRDA:1781,0,0,-
BRDA:1781,0,1,-
BRDA:1781,0,2,-
BRDA:1781,0,3,-
BRDA:1781,0,4,-
BRDA:1781,0,5,-
DA:1784,0
DA:1786,0
DA:1787,0
DA:1788,0
DA:1789,0
DA:1845,0
DA:1849,0
DA:1850,0
DA:1854,0
BRDA:1854,0,0,-
BRDA:1854,0,1,-
DA:1855,0
DA:1856,0
BRDA:1856,0,0,-
BRDA:1856,0,1,-
DA:1857,0
DA:1858,0
DA:1860,0
BRDA:1860,0,0,-
BRDA:1860,0,1,-
DA:1862,0
BRDA:1862,0,0,-
BRDA:1862,0,1,-
DA:1863,0
DA:1864,0
DA:1865,0
BRDA:1865,0,0,-
BRDA:1865,0,1,-
DA:1866,0
BRDA:1866,0,0,-
BRDA:1866,0,1,-
DA:1868,0
DA:1869,0
DA:1872,0
DA:1874,0
BRDA:1874,0,0,0
BRDA:1874,0,1,0
DA:1875,0
DA:1877,0
DA:1845,0
DA:1849,0
DA:1850,0
DA:1854,0
BRDA:1854,0,0,-
BRDA:1854,0,1,-
DA:1855,0
DA:1856,0
BRDA:1856,0,0,-
BRDA:1856,0,1,-
DA:1857,0
DA:1858,0
DA:1860,0
BRDA:1860,0,0,-
BRDA:1860,0,1,-
DA:1862,0
BRDA:1862,0,0,-
BRDA:1862,0,1,-
DA:1863,0
DA:1864,0
DA:1865,0
BRDA:1865,0,0,-
BRDA:1865,0,1,-
DA:1866,0
BRDA:1866,0,0,-
BRDA:1866,0,1,-
DA:1868,0
DA:1869,0
DA:1872,0
DA:1874,0
BRDA:1874,0,0,0
BRDA:1874,0,1,0
DA:1875,0
DA:1877,0
DA:1845,0
DA:1849,0
DA:1850,0
DA:1854,0
BRDA:1854,0,0,-
BRDA:1854,0,1,-
DA:1855,0
DA:1856,0
BRDA:1856,0,0,-
BRDA:1856,0,1,-
DA:1857,0
DA:1858,0
DA:1860,0
BRDA:1860,0,0,-
BRDA:1860,0,1,-
DA:1862,0
BRDA:1862,0,0,-
BRDA:1862,0,1,-
DA:1863,0
DA:1864,0
DA:1865,0
BRDA:1865,0,0,-
BRDA:1865,0,1,-
DA:1866,0
BRDA:1866,0,0,-
BRDA:1866,0,1,-
DA:1868,0
DA:1869,0
DA:1872,0
DA:1874,0
BRDA:1874,0,0,0
BRDA:1874,0,1,0
DA:1875,0
DA:1877,0
DA:1845,0
DA:1849,0
DA:1850,0
DA:1854,0
BRDA:1854,0,0,-
BRDA:1854,0,1,-
DA:1855,0
DA:1856,0
BRDA:1856,0,0,-
BRDA:1856,0,1,-
DA:1857,0
DA:1858,0
DA:1860,0
BRDA:1860,0,0,-
BRDA:1860,0,1,-
DA:1862,0
BRDA:1862,0,0,-
BRDA:1862,0,1,-
DA:1863,0
DA:1864,0
DA:1865,0
BRDA:1865,0,0,-
BRDA:1865,0,1,-
DA:1866,0
BRDA:1866,0,0,-
BRDA:1866,0,1,-
DA:1868,0
DA:1869,0
DA:1872,0
DA:1874,0
BRDA:1874,0,0,0
BRDA:1874,0,1,0
DA:1875,0
DA:1877,0
DA:1845,0
DA:1849,0
DA:1850,0
DA:1854,0
BRDA:1854,0,0,-
BRDA:1854,0,1,-
DA:1855,0
DA:1856,0
BRDA:1856,0,0,-
BRDA:1856,0,1,-
DA:1857,0
DA:1858,0
DA:1860,0
BRDA:1860,0,0,-
BRDA:1860,0,1,-
DA:1862,0
BRDA:1862,0,0,-
BRDA:1862,0,1,-
DA:1863,0
DA:1864,0
DA:1865,0
BRDA:1865,0,0,-
BRDA:1865,0,1,-
DA:1866,0
BRDA:1866,0,0,-
BRDA:1866,0,1,-
DA:1868,0
DA:1869,0
DA:1872,0
DA:1874,0
BRDA:1874,0,0,0
BRDA:1874,0,1,0
DA:1875,0
DA:1877,0
DA:1883,0
DA:1887,0
BRDA:1887,0,0,-
BRDA:1887,0,1,-
DA:1889,0
DA:1890,0
DA:1891,0
DA:1892,0
DA:1894,0
DA:1883,0
DA:1887,0
BRDA:1887,0,0,-
BRDA:1887,0,1,-
DA:1889,0
DA:1890,0
DA:1891,0
DA:1892,0
DA:1894,0
DA:1883,0
DA:1887,0
BRDA:1887,0,0,-
BRDA:1887,0,1,-
DA:1889,0
DA:1890,0
DA:1891,0
DA:1892,0
DA:1894,0
DA:1883,0
DA:1887,0
BRDA:1887,0,0,-
BRDA:1887,0,1,-
DA:1889,0
DA:1890,0
DA:1891,0
DA:1892,0
DA:1894,0
DA:1883,0
DA:1887,0
BRDA:1887,0,0,-
BRDA:1887,0,1,-
DA:1889,0
DA:1890,0
DA:1891,0
DA:1892,0
DA:1894,0
DA:1900,0
DA:1904,0
BRDA:1904,0,0,-
BRDA:1904,0,1,-
DA:1905,0
BRDA:1905,0,0,-
BRDA:1905,0,1,-
DA:1906,0
DA:1908,0
DA:1909,0
DA:1900,0
DA:1904,0
BRDA:1904,0,0,-
BRDA:1904,0,1,-
DA:1905,0
BRDA:1905,0,0,-
BRDA:1905,0,1,-
DA:1906,0
DA:1908,0
DA:1909,0
DA:1900,0
DA:1904,0
BRDA:1904,0,0,-
BRDA:1904,0,1,-
DA:1905,0
BRDA:1905,0,0,-
BRDA:1905,0,1,-
DA:1906,0
DA:1908,0
DA:1909,0
DA:1900,0
DA:1904,0
BRDA:1904,0,0,-
BRDA:1904,0,1,-
DA:1905,0
BRDA:1905,0,0,-
BRDA:1905,0,1,-
DA:1906,0
DA:1908,0
DA:1909,0
DA:1900,0
DA:1904,0
BRDA:1904,0,0,-
BRDA:1904,0,1,-
DA:1905,0
BRDA:1905,0,0,-
BRDA:1905,0,1,-
DA:1906,0
DA:1908,0
DA:1909,0
DA:2061,0
DA:2065,0
DA:2066,0
DA:2067,0
DA:2068,0
BRDA:2068,0,0,-
BRDA:2068,0,1,-
DA:2070,0
DA:2071,0
BRDA:2071,0,0,-
BRDA:2071,0,1,-
DA:2072,0
BRDA:2072,0,0,-
BRDA:2072,0,1,-
DA:2074,0
DA:2075,0
BRDA:2075,0,0,-
BRDA:2075,0,1,-
DA:2077,0
BRDA:2077,0,0,-
BRDA:2077,0,1,-
DA:2078,0
DA:2080,0
DA:2082,0
BRDA:2082,0,0,-
BRDA:2082,0,1,-
BRDA:2082,0,2,-
BRDA:2082,0,3,-
DA:2083,0
DA:2084,0
DA:2061,0
DA:2065,0
DA:2066,0
DA:2067,0
DA:2068,0
BRDA:2068,0,0,-
BRDA:2068,0,1,-
DA:2070,0
DA:2071,0
BRDA:2071,0,0,-
BRDA:2071,0,1,-
DA:2072,0
BRDA:2072,0,0,-
BRDA:2072,0,1,-
DA:2074,0
DA:2075,0
BRDA:2075,0,0,-
BRDA:2075,0,1,-
DA:2077,0
BRDA:2077,0,0,-
BRDA:2077,0,1,-
DA:2078,0
DA:2080,0
DA:2082,0
BRDA:2082,0,0,-
BRDA:2082,0,1,-
BRDA:2082,0,2,-
BRDA:2082,0,3,-
DA:2083,0
DA:2084,0
DA:2061,0
DA:2065,0
DA:2066,0
DA:2067,0
DA:2068,0
BRDA:2068,0,0,-
BRDA:2068,0,1,-
DA:2070,0
DA:2071,0
BRDA:2071,0,0,-
BRDA:2071,0,1,-
DA:2072,0
BRDA:2072,0,0,-
BRDA:2072,0,1,-
DA:2074,0
DA:2075,0
BRDA:2075,0,0,-
BRDA:2075,0,1,-
DA:2077,0
BRDA:2077,0,0,-
BRDA:2077,0,1,-
DA:2078,0
DA:2080,0
DA:2082,0
BRDA:2082,0,0,-
BRDA:2082,0,1,-
BRDA:2082,0,2,-
BRDA:2082,0,3,-
DA:2083,0
DA:2084,0
DA:2061,0
DA:2065,0
DA:2066,0
DA:2067,0
DA:2068,0
BRDA:2068,0,0,-
BRDA:2068,0,1,-
DA:2070,0
DA:2071,0
BRDA:2071,0,0,-
BRDA:2071,0,1,-
DA:2072,0
BRDA:2072,0,0,-
BRDA:2072,0,1,-
DA:2074,0
DA:2075,0
BRDA:2075,0,0,-
BRDA:2075,0,1,-
DA:2077,0
BRDA:2077,0,0,-
BRDA:2077,0,1,-
DA:2078,0
DA:2080,0
DA:2082,0
BRDA:2082,0,0,-
BRDA:2082,0,1,-
BRDA:2082,0,2,-
BRDA:2082,0,3,-
DA:2083,0
DA:2084,0
DA:2061,0
DA:2065,0
DA:2066,0
DA:2067,0
DA:2068,0
BRDA:2068,0,0,-
BRDA:2068,0,1,-
DA:2070,0
DA:2071,0
BRDA:2071,0,0,-
BRDA:2071,0,1,-
DA:2072,0
BRDA:2072,0,0,-
BRDA:2072,0,1,-
DA:2074,0
DA:2075,0
BRDA:2075,0,0,-
BRDA:2075,0,1,-
DA:2077,0
BRDA:2077,0,0,-
BRDA:2077,0,1,-
DA:2078,0
DA:2080,0
DA:2082,0
BRDA:2082,0,0,-
BRDA:2082,0,1,-
BRDA:2082,0,2,-
BRDA:2082,0,3,-
DA:2083,0
DA:2084,0
DA:2115,0
DA:2124,0
BRDA:2124,0,0,-
BRDA:2124,0,1,-
DA:2126,0
BRDA:2126,0,0,-
BRDA:2126,0,1,-
DA:2128,0
DA:2129,0
BRDA:2129,0,0,-
BRDA:2129,0,1,-
DA:2131,0
DA:2134,0
DA:2115,0
DA:2124,0
BRDA:2124,0,0,-
BRDA:2124,0,1,-
DA:2126,0
BRDA:2126,0,0,-
BRDA:2126,0,1,-
DA:2128,0
DA:2129,0
BRDA:2129,0,0,-
BRDA:2129,0,1,-
DA:2131,0
DA:2134,0
DA:2115,0
DA:2124,0
BRDA:2124,0,0,-
BRDA:2124,0,1,-
DA:2126,0
BRDA:2126,0,0,-
BRDA:2126,0,1,-
DA:2128,0
DA:2129,0
BRDA:2129,0,0,-
BRDA:2129,0,1,-
DA:2131,0
DA:2134,0
DA:2115,0
DA:2124,0
BRDA:2124,0,0,-
BRDA:2124,0,1,-
DA:2126,0
BRDA:2126,0,0,-
BRDA:2126,0,1,-
DA:2128,0
DA:2129,0
BRDA:2129,0,0,-
BRDA:2129,0,1,-
DA:2131,0
DA:2134,0
DA:2115,0
DA:2124,0
BRDA:2124,0,0,-
BRDA:2124,0,1,-
DA:2126,0
BRDA:2126,0,0,-
BRDA:2126,0,1,-
DA:2128,0
DA:2129,0
BRDA:2129,0,0,-
BRDA:2129,0,1,-
DA:2131,0
DA:2134,0
DA:2520,0
DA:2523,0
BRDA:2523,0,0,-
BRDA:2523,0,1,-
DA:2524,0
DA:2525,0
BRDA:2525,0,0,-
BRDA:2525,0,1,-
DA:2526,0
BRDA:2526,0,0,-
BRDA:2526,0,1,-
BRDA:2526,0,2,-
BRDA:2526,0,3,-
DA:2520,0
DA:2523,0
BRDA:2523,0,0,-
BRDA:2523,0,1,-
DA:2524,0
DA:2525,0
BRDA:2525,0,0,-
BRDA:2525,0,1,-
DA:2526,0
BRDA:2526,0,0,-
BRDA:2526,0,1,-
BRDA:2526,0,2,-
BRDA:2526,0,3,-
DA:2520,0
DA:2523,0
BRDA:2523,0,0,-
BRDA:2523,0,1,-
DA:2524,0
DA:2525,0
BRDA:2525,0,0,-
BRDA:2525,0,1,-
DA:2526,0
BRDA:2526,0,0,-
BRDA:2526,0,1,-
BRDA:2526,0,2,-
BRDA:2526,0,3,-
DA:2520,0
DA:2523,0
BRDA:2523,0,0,-
BRDA:2523,0,1,-
DA:2524,0
DA:2525,0
BRDA:2525,0,0,-
BRDA:2525,0,1,-
DA:2526,0
BRDA:2526,0,0,-
BRDA:2526,0,1,-
BRDA:2526,0,2,-
BRDA:2526,0,3,-
DA:2520,0
DA:2523,0
BRDA:2523,0,0,-
BRDA:2523,0,1,-
DA:2524,0
DA:2525,0
BRDA:2525,0,0,-
BRDA:2525,0,1,-
DA:2526,0
BRDA:2526,0,0,-
BRDA:2526,0,1,-
BRDA:2526,0,2,-
BRDA:2526,0,3,-
end_of_record
SF:/home/pavle/Qt/6.6.1/gcc_64/include/QtCore/qutf8stringview.h
FN:148,_ZN20QBasicUtf8StringViewILb0EE10castHelperEPKc
FNDA:0,_ZN20QBasicUtf8StringViewILb0EE10castHelperEPKc
FN:158,_ZN20QBasicUtf8StringViewILb0EEC2IcLb1EEEPKT_x
FNDA:0,_ZN20QBasicUtf8StringViewILb0EEC2IcLb1EEEPKT_x
FN:174,_ZN20QBasicUtf8StringViewILb0EEC2IPKcLb1EEERKT_
FNDA:0,_ZN20QBasicUtf8StringViewILb0EEC2IPKcLb1EEERKT_
DA:148,0
DA:149,0
DA:158,0
DA:159,0
DA:160,0
BRDA:160,0,0,-
BRDA:160,0,1,-
BRDA:160,0,2,-
BRDA:160,0,3,-
BRDA:160,0,4,-
BRDA:160,0,5,-
DA:174,0
DA:176,0
BRDA:176,0,0,-
BRDA:176,0,1,-
end_of_record
SF:/home/pavle/Qt/6.6.1/gcc_64/include/QtCore/qbasicatomic.h
FN:38,_ZNK19QBasicAtomicIntegerIiE11loadRelaxedEv
FNDA:0,_ZNK19QBasicAtomicIntegerIiE11loadRelaxedEv
FN:41,_ZNK19QBasicAtomicIntegerIiE11loadAcquireEv
FNDA:0,_ZNK19QBasicAtomicIntegerIiE11loadAcquireEv
FN:42,_ZN19QBasicAtomicIntegerIiE12storeReleaseEi
FNDA:0,_ZN19QBasicAtomicIntegerIiE12storeReleaseEi
FN:49,_ZN19QBasicAtomicIntegerIiE3refEv
FNDA:0,_ZN19QBasicAtomicIntegerIiE3refEv
FN:50,_ZN19QBasicAtomicIntegerIiE5derefEv
FNDA:0,_ZN19QBasicAtomicIntegerIiE5derefEv
FN:155,_ZN19QBasicAtomicIntegerIiEC2Ei
FNDA:0,_ZN19QBasicAtomicIntegerIiEC2Ei
DA:38,0
DA:41,0
DA:42,0
DA:49,0
DA:50,0
DA:155,0
end_of_record
SF:/home/pavle/Qt/6.6.1/gcc_64/include/QtCore/qbytearrayview.h
FN:67,_ZN9QtPrivateL19lengthHelperPointerIcEExPKT_
FNDA:0,_ZN9QtPrivateL19lengthHelperPointerIcEExPKT_
FN:116,_ZN14QByteArrayView21lengthHelperCharArrayEPKcm
FNDA:0,_ZN14QByteArrayView21lengthHelperCharArrayEPKcm
FN:126,_ZN14QByteArrayView10castHelperEPKc
FNDA:0,_ZN14QByteArrayView10castHelperEPKc
FN:136,_ZN14QByteArrayViewC2IcLb1EEEPKT_x
FNDA:0,_ZN14QByteArrayViewC2IcLb1EEEPKT_x
FN:149,_ZN14QByteArrayViewC2IPKcLb1EEERKT_
FNDA:0,_ZN14QByteArrayViewC2IPKcLb1EEERKT_
FN:158,_ZN14QByteArrayViewC2I10QByteArrayLb1EEERKT_
FNDA:0,_ZN14QByteArrayViewC2I10QByteArrayLb1EEERKT_
FN:166,_ZN14QByteArrayViewC2ILm29EEERAT__Kc
FNDA:0,_ZN14QByteArrayViewC2ILm29EEERAT__Kc
FN:178,_ZNK14QByteArrayView4sizeEv
FNDA:0,_ZNK14QByteArrayView4sizeEv
FN:179,_ZNK14QByteArrayView4dataEv
FNDA:0,_ZNK14QByteArrayView4dataEv
FN:314,_Zeq14QByteArrayViewS_
FNDA:0,_Zeq14QByteArrayViewS_
DA:67,0
DA:69,0
DA:116,0
DA:118,0
DA:119,0
BRDA:119,0,0,-
BRDA:119,0,1,-
DA:120,0
DA:126,0
DA:127,0
DA:136,0
DA:137,0
BRDA:137,0,0,-
BRDA:137,0,1,-
BRDA:137,0,2,-
BRDA:137,0,3,-
BRDA:137,0,4,-
BRDA:137,0,5,-
DA:138,0
DA:149,0
DA:151,0
BRDA:151,0,0,-
BRDA:151,0,1,-
DA:158,0
DA:159,0
BRDA:159,0,0,-
BRDA:159,0,1,-
DA:166,0
DA:167,0
DA:178,0
DA:179,0
DA:314,0
DA:315,0
BRDA:315,0,0,-
BRDA:315,0,1,-
BRDA:315,0,2,-
BRDA:315,0,3,-
BRDA:315,0,4,-
BRDA:315,0,5,-
end_of_record
SF:/usr/include/c++/11/bits/basic_string.tcc
FN:206,_ZNSt7__cxx1112basic_stringIcSt11char_traitsIcESaIcEE12_M_constructIPKcEEvT_S8_St20forward_iterator_tag
FNDA:0,_ZNSt7__cxx1112basic_stringIcSt11char_traitsIcESaIcEE12_M_constructIPKcEEvT_S8_St20forward_iterator_tag
DA:206,0
DA:211,0
BRDA:211,0,0,-
BRDA:211,0,1,-
BRDA:211,0,2,-
BRDA:211,0,3,-
BRDA:211,0,4,-
BRDA:211,0,5,-
DA:212,0
DA:215,0
BRDA:215,0,0,-
BRDA:215,0,1,-
DA:217,0
BRDA:217,0,0,-
BRDA:217,0,1,-
DA:219,0
BRDA:219,0,0,-
BRDA:219,0,1,-
BRDA:219,0,2,-
BRDA:219,0,3,-
DA:220,0
BRDA:220,0,0,-
BRDA:220,0,1,-
DA:225,0
BRDA:225,0,0,-
BRDA:225,0,1,-
DA:226,0
DA:228,0
BRDA:228,0,0,0
BRDA:228,0,1,0
DA:229,0
DA:232,0
BRDA:232,0,0,-
BRDA:232,0,1,-
DA:233,0
end_of_record
SF:/usr/include/c++/11/ext/new_allocator.h
FN:79,_ZN9__gnu_cxx13new_allocatorIcEC2Ev
FNDA:0,_ZN9__gnu_cxx13new_allocatorIcEC2Ev
FN:79,_ZN9__gnu_cxx13new_allocatorISt13_Rb_tree_nodeISt4pairIKiiEEEC2Ev
FNDA:0,_ZN9__gnu_cxx13new_allocatorISt13_Rb_tree_nodeISt4pairIKiiEEEC2Ev
FN:79,_ZN9__gnu_cxx13new_allocatorISt13_Rb_tree_nodeISt4pairIK7QStringS3_EEEC2Ev
FNDA:0,_ZN9__gnu_cxx13new_allocatorISt13_Rb_tree_nodeISt4pairIK7QStringS3_EEEC2Ev
FN:79,_ZN9__gnu_cxx13new_allocatorISt13_Rb_tree_nodeISt4pairIK5QChar5QListI7QStringEEEEC2Ev
FNDA:0,_ZN9__gnu_cxx13new_allocatorISt13_Rb_tree_nodeISt4pairIK5QChar5QListI7QStringEEEEC2Ev
FN:79,_ZN9__gnu_cxx13new_allocatorISt13_Rb_tree_nodeISt4pairIK5QChar7QStringEEEC2Ev
FNDA:0,_ZN9__gnu_cxx13new_allocatorISt13_Rb_tree_nodeISt4pairIK5QChar7QStringEEEC2Ev
FN:79,_ZN9__gnu_cxx13new_allocatorISt13_Rb_tree_nodeISt4pairIK5QChariEEEC2Ev
FNDA:0,_ZN9__gnu_cxx13new_allocatorISt13_Rb_tree_nodeISt4pairIK5QChariEEEC2Ev
FN:82,_ZN9__gnu_cxx13new_allocatorISt13_Rb_tree_nodeISt4pairIK5QChar7QStringEEEC2ERKS8_
FNDA:0,_ZN9__gnu_cxx13new_allocatorISt13_Rb_tree_nodeISt4pairIK5QChar7QStringEEEC2ERKS8_
FN:82,_ZN9__gnu_cxx13new_allocatorISt13_Rb_tree_nodeISt4pairIKiiEEEC2ERKS6_
FNDA:0,_ZN9__gnu_cxx13new_allocatorISt13_Rb_tree_nodeISt4pairIKiiEEEC2ERKS6_
FN:82,_ZN9__gnu_cxx13new_allocatorISt13_Rb_tree_nodeISt4pairIK7QStringS3_EEEC2ERKS7_
FNDA:0,_ZN9__gnu_cxx13new_allocatorISt13_Rb_tree_nodeISt4pairIK7QStringS3_EEEC2ERKS7_
FN:82,_ZN9__gnu_cxx13new_allocatorISt13_Rb_tree_nodeISt4pairIK5QChar5QListI7QStringEEEEC2ERKSA_
FNDA:0,_ZN9__gnu_cxx13new_allocatorISt13_Rb_tree_nodeISt4pairIK5QChar5QListI7QStringEEEEC2ERKSA_
FN:82,_ZN9__gnu_cxx13new_allocatorISt13_Rb_tree_nodeISt4pairIK5QChariEEEC2ERKS7_
FNDA:0,_ZN9__gnu_cxx13new_allocatorISt13_Rb_tree_nodeISt4pairIK5QChariEEEC2ERKS7_
FN:89,_ZN9__gnu_cxx13new_allocatorIcED2Ev
FNDA:0,_ZN9__gnu_cxx13new_allocatorIcED2Ev
FN:89,_ZN9__gnu_cxx13new_allocatorISt13_Rb_tree_nodeISt4pairIK5QChariEEED2Ev
FNDA:0,_ZN9__gnu_cxx13new_allocatorISt13_Rb_tree_nodeISt4pairIK5QChariEEED2Ev
FN:89,_ZN9__gnu_cxx13new_allocatorISt13_Rb_tree_nodeISt4pairIKiiEEED2Ev
FNDA:0,_ZN9__gnu_cxx13new_allocatorISt13_Rb_tree_nodeISt4pairIKiiEEED2Ev
FN:89,_ZN9__gnu_cxx13new_allocatorISt13_Rb_tree_nodeISt4pairIK7QStringS3_EEED2Ev
FNDA:0,_ZN9__gnu_cxx13new_allocatorISt13_Rb_tree_nodeISt4pairIK7QStringS3_EEED2Ev
FN:89,_ZN9__gnu_cxx13new_allocatorISt13_Rb_tree_nodeISt4pairIK5QChar7QStringEEED2Ev
FNDA:0,_ZN9__gnu_cxx13new_allocatorISt13_Rb_tree_nodeISt4pairIK5QChar7QStringEEED2Ev
FN:89,_ZN9__gnu_cxx13new_allocatorISt13_Rb_tree_nodeISt4pairIK5QChar5QListI7QStringEEEED2Ev
FNDA:0,_ZN9__gnu_cxx13new_allocatorISt13_Rb_tree_nodeISt4pairIK5QChar5QListI7QStringEEEED2Ev
FN:103,_ZN9__gnu_cxx13new_allocatorISt13_Rb_tree_nodeISt4pairIK5QChar5QListI7QStringEEEE8allocateEmPKv
FNDA:0,_ZN9__gnu_cxx13new_allocatorISt13_Rb_tree_nodeISt4pairIK5QChar5QListI7QStringEEEE8allocateEmPKv
FN:103,_ZN9__gnu_cxx13new_allocatorISt13_Rb_tree_nodeISt4pairIK5QChariEEE8allocateEmPKv
FNDA:0,_ZN9__gnu_cxx13new_allocatorISt13_Rb_tree_nodeISt4pairIK5QChariEEE8allocateEmPKv
FN:103,_ZN9__gnu_cxx13new_allocatorISt13_Rb_tree_nodeISt4pairIK5QChar7QStringEEE8allocateEmPKv
FNDA:0,_ZN9__gnu_cxx13new_allocatorISt13_Rb_tree_nodeISt4pairIK5QChar7QStringEEE8allocateEmPKv
FN:103,_ZN9__gnu_cxx13new_allocatorISt13_Rb_tree_nodeISt4pairIKiiEEE8allocateEmPKv
FNDA:0,_ZN9__gnu_cxx13new_allocatorISt13_Rb_tree_nodeISt4pairIKiiEEE8allocateEmPKv
FN:103,_ZN9__gnu_cxx13new_allocatorISt13_Rb_tree_nodeISt4pairIK7QStringS3_EEE8allocateEmPKv
FNDA:0,_ZN9__gnu_cxx13new_allocatorISt13_Rb_tree_nodeISt4pairIK7QStringS3_EEE8allocateEmPKv
FN:132,_ZN9__gnu_cxx13new_allocatorISt13_Rb_tree_nodeISt4pairIK5QChariEEE10deallocateEPS6_m
FNDA:0,_ZN9__gnu_cxx13new_allocatorISt13_Rb_tree_nodeISt4pairIK5QChariEEE10deallocateEPS6_m
FN:132,_ZN9__gnu_cxx13new_allocatorISt13_Rb_tree_nodeISt4pairIK5QChar7QStringEEE10deallocateEPS7_m
FNDA:0,_ZN9__gnu_cxx13new_allocatorISt13_Rb_tree_nodeISt4pairIK5QChar7QStringEEE10deallocateEPS7_m
FN:132,_ZN9__gnu_cxx13new_allocatorISt13_Rb_tree_nodeISt4pairIK5QChar5QListI7QStringEEEE10deallocateEPS9_m
FNDA:0,_ZN9__gnu_cxx13new_allocatorISt13_Rb_tree_nodeISt4pairIK5QChar5QListI7QStringEEEE10deallocateEPS9_m
FN:132,_ZN9__gnu_cxx13new_allocatorISt13_Rb_tree_nodeISt4pairIK7QStringS3_EEE10deallocateEPS6_m
FNDA:0,_ZN9__gnu_cxx13new_allocatorISt13_Rb_tree_nodeISt4pairIK7QStringS3_EEE10deallocateEPS6_m
FN:132,_ZN9__gnu_cxx13new_allocatorISt13_Rb_tree_nodeISt4pairIKiiEEE10deallocateEPS5_m
FNDA:0,_ZN9__gnu_cxx13new_allocatorISt13_Rb_tree_nodeISt4pairIKiiEEE10deallocateEPS5_m
FN:160,_ZN9__gnu_cxx13new_allocatorISt13_Rb_tree_nodeISt4pairIK5QChar5QListI7QStringEEEE9constructIS8_JRKS8_EEEvPT_DpOT0_
FNDA:0,_ZN9__gnu_cxx13new_allocatorISt13_Rb_tree_nodeISt4pairIK5QChar5QListI7QStringEEEE9constructIS8_JRKS8_EEEvPT_DpOT0_
FN:160,_ZN9__gnu_cxx13new_allocatorISt13_Rb_tree_nodeISt4pairIK7QStringS3_EEE9constructIS5_JRKS5_EEEvPT_DpOT0_
FNDA:0,_ZN9__gnu_cxx13new_allocatorISt13_Rb_tree_nodeISt4pairIK7QStringS3_EEE9constructIS5_JRKS5_EEEvPT_DpOT0_
FN:160,_ZN9__gnu_cxx13new_allocatorISt13_Rb_tree_nodeISt4pairIK5QChar5QListI7QStringEEEE9constructIS8_JS8_EEEvPT_DpOT0_
FNDA:0,_ZN9__gnu_cxx13new_allocatorISt13_Rb_tree_nodeISt4pairIK5QChar5QListI7QStringEEEE9constructIS8_JS8_EEEvPT_DpOT0_
FN:160,_ZN9__gnu_cxx13new_allocatorISt13_Rb_tree_nodeISt4pairIKiiEEE9constructIS4_JRKS4_EEEvPT_DpOT0_
FNDA:0,_ZN9__gnu_cxx13new_allocatorISt13_Rb_tree_nodeISt4pairIKiiEEE9constructIS4_JRKS4_EEEvPT_DpOT0_
FN:160,_ZN9__gnu_cxx13new_allocatorISt13_Rb_tree_nodeISt4pairIK5QChariEEE9constructIS5_JS5_EEEvPT_DpOT0_
FNDA:0,_ZN9__gnu_cxx13new_allocatorISt13_Rb_tree_nodeISt4pairIK5QChariEEE9constructIS5_JS5_EEEvPT_DpOT0_
FN:160,_ZN9__gnu_cxx13new_allocatorISt13_Rb_tree_nodeISt4pairIK5QChar7QStringEEE9constructIS6_JRKS6_EEEvPT_DpOT0_
FNDA:0,_ZN9__gnu_cxx13new_allocatorISt13_Rb_tree_nodeISt4pairIK5QChar7QStringEEE9constructIS6_JRKS6_EEEvPT_DpOT0_
FN:160,_ZN9__gnu_cxx13new_allocatorISt13_Rb_tree_nodeISt4pairIK5QChar7QStringEEE9constructIS6_JS6_EEEvPT_DpOT0_
FNDA:0,_ZN9__gnu_cxx13new_allocatorISt13_Rb_tree_nodeISt4pairIK5QChar7QStringEEE9constructIS6_JS6_EEEvPT_DpOT0_
FN:160,_ZN9__gnu_cxx13new_allocatorISt13_Rb_tree_nodeISt4pairIK5QChariEEE9constructIS5_JRKS5_EEEvPT_DpOT0_
FNDA:0,_ZN9__gnu_cxx13new_allocatorISt13_Rb_tree_nodeISt4pairIK5QChariEEE9constructIS5_JRKS5_EEEvPT_DpOT0_
FN:160,_ZN9__gnu_cxx13new_allocatorISt13_Rb_tree_nodeISt4pairIKiiEEE9constructIS4_JS4_EEEvPT_DpOT0_
FNDA:0,_ZN9__gnu_cxx13new_allocatorISt13_Rb_tree_nodeISt4pairIKiiEEE9constructIS4_JS4_EEEvPT_DpOT0_
FN:160,_ZN9__gnu_cxx13new_allocatorISt13_Rb_tree_nodeISt4pairIK7QStringS3_EEE9constructIS5_JS5_EEEvPT_DpOT0_
FNDA:0,_ZN9__gnu_cxx13new_allocatorISt13_Rb_tree_nodeISt4pairIK7QStringS3_EEE9constructIS5_JS5_EEEvPT_DpOT0_
FN:166,_ZN9__gnu_cxx13new_allocatorISt13_Rb_tree_nodeISt4pairIKiiEEE7destroyIS4_EEvPT_
FNDA:0,_ZN9__gnu_cxx13new_allocatorISt13_Rb_tree_nodeISt4pairIKiiEEE7destroyIS4_EEvPT_
FN:166,_ZN9__gnu_cxx13new_allocatorISt13_Rb_tree_nodeISt4pairIK7QStringS3_EEE7destroyIS5_EEvPT_
FNDA:0,_ZN9__gnu_cxx13new_allocatorISt13_Rb_tree_nodeISt4pairIK7QStringS3_EEE7destroyIS5_EEvPT_
FN:166,_ZN9__gnu_cxx13new_allocatorISt13_Rb_tree_nodeISt4pairIK5QChar5QListI7QStringEEEE7destroyIS8_EEvPT_
FNDA:0,_ZN9__gnu_cxx13new_allocatorISt13_Rb_tree_nodeISt4pairIK5QChar5QListI7QStringEEEE7destroyIS8_EEvPT_
FN:166,_ZN9__gnu_cxx13new_allocatorISt13_Rb_tree_nodeISt4pairIK5QChar7QStringEEE7destroyIS6_EEvPT_
FNDA:0,_ZN9__gnu_cxx13new_allocatorISt13_Rb_tree_nodeISt4pairIK5QChar7QStringEEE7destroyIS6_EEvPT_
FN:166,_ZN9__gnu_cxx13new_allocatorISt13_Rb_tree_nodeISt4pairIK5QChariEEE7destroyIS5_EEvPT_
FNDA:0,_ZN9__gnu_cxx13new_allocatorISt13_Rb_tree_nodeISt4pairIK5QChariEEE7destroyIS5_EEvPT_
FN:197,_ZNK9__gnu_cxx13new_allocatorISt13_Rb_tree_nodeISt4pairIK5QChariEEE11_M_max_sizeEv
FNDA:0,_ZNK9__gnu_cxx13new_allocatorISt13_Rb_tree_nodeISt4pairIK5QChariEEE11_M_max_sizeEv
FN:197,_ZNK9__gnu_cxx13new_allocatorISt13_Rb_tree_nodeISt4pairIK5QChar7QStringEEE11_M_max_sizeEv
FNDA:0,_ZNK9__gnu_cxx13new_allocatorISt13_Rb_tree_nodeISt4pairIK5QChar7QStringEEE11_M_max_sizeEv
FN:197,_ZNK9__gnu_cxx13new_allocatorISt13_Rb_tree_nodeISt4pairIKiiEEE11_M_max_sizeEv
FNDA:0,_ZNK9__gnu_cxx13new_allocatorISt13_Rb_tree_nodeISt4pairIKiiEEE11_M_max_sizeEv
FN:197,_ZNK9__gnu_cxx13new_allocatorISt13_Rb_tree_nodeISt4pairIK7QStringS3_EEE11_M_max_sizeEv
FNDA:0,_ZNK9__gnu_cxx13new_allocatorISt13_Rb_tree_nodeISt4pairIK7QStringS3_EEE11_M_max_sizeEv
FN:197,_ZNK9__gnu_cxx13new_allocatorISt13_Rb_tree_nodeISt4pairIK5QChar5QListI7QStringEEEE11_M_max_sizeEv
FNDA:0,_ZNK9__gnu_cxx13new_allocatorISt13_Rb_tree_nodeISt4pairIK5QChar5QListI7QStringEEEE11_M_max_sizeEv
DA:79,0
DA:79,0
DA:79,0
DA:79,0
DA:79,0
DA:79,0
DA:82,0
DA:82,0
DA:82,0
DA:82,0
DA:82,0
DA:89,0
DA:89,0
DA:89,0
DA:89,0
DA:89,0
DA:89,0
DA:103,0
DA:111,0
BRDA:111,0,0,-
BRDA:111,0,1,-
DA:115,0
BRDA:115,0,0,-
BRDA:115,0,1,-
DA:116,0
DA:117,0
DA:127,0
DA:103,0
DA:111,0
BRDA:111,0,0,-
BRDA:111,0,1,-
DA:115,0
BRDA:115,0,0,-
BRDA:115,0,1,-
DA:116,0
DA:117,0
DA:127,0
DA:103,0
DA:111,0
BRDA:111,0,0,-
BRDA:111,0,1,-
DA:115,0
BRDA:115,0,0,-
BRDA:115,0,1,-
DA:116,0
DA:117,0
DA:127,0
DA:103,0
DA:111,0
BRDA:111,0,0,-
BRDA:111,0,1,-
DA:115,0
BRDA:115,0,0,-
BRDA:115,0,1,-
DA:116,0
DA:117,0
DA:127,0
DA:103,0
DA:111,0
BRDA:111,0,0,-
BRDA:111,0,1,-
DA:115,0
BRDA:115,0,0,-
BRDA:115,0,1,-
DA:116,0
DA:117,0
DA:127,0
DA:132,0
DA:145,0
DA:132,0
DA:145,0
DA:132,0
DA:145,0
DA:132,0
DA:145,0
DA:132,0
DA:145,0
DA:160,0
DA:162,0
DA:160,0
DA:162,0
DA:160,0
DA:162,0
DA:160,0
DA:162,0
DA:160,0
DA:162,0
DA:160,0
DA:162,0
DA:160,0
DA:162,0
DA:160,0
DA:162,0
DA:160,0
DA:162,0
DA:160,0
DA:162,0
DA:166,0
DA:168,0
DA:166,0
DA:168,0
DA:166,0
DA:168,0
DA:166,0
DA:168,0
DA:166,0
DA:168,0
DA:197,0
DA:200,0
DA:197,0
DA:200,0
DA:197,0
DA:200,0
DA:197,0
DA:200,0
DA:197,0
DA:200,0
end_of_record
SF:/usr/include/c++/11/bits/range_access.h
FN:61,_ZSt5beginI17QArrayDataPointerI5QCharEEDTcldtfp_5beginEERKT_
FNDA:0,_ZSt5beginI17QArrayDataPointerI5QCharEEDTcldtfp_5beginEERKT_
FN:61,_ZSt5beginIN9QtPrivate15QCommonArrayOpsI7QStringEEEDTcldtfp_5beginEERKT_
FNDA:0,_ZSt5beginIN9QtPrivate15QCommonArrayOpsI7QStringEEEDTcldtfp_5beginEERKT_
FN:61,_ZSt5beginI17QArrayDataPointerI7QStringEEDTcldtfp_5beginEERKT_
FNDA:0,_ZSt5beginI17QArrayDataPointerI7QStringEEDTcldtfp_5beginEERKT_
FN:61,_ZSt5beginI17QArrayDataPointerI4QMapI7QStringS2_EEEDTcldtfp_5beginEERKT_
FNDA:0,_ZSt5beginI17QArrayDataPointerI4QMapI7QStringS2_EEEDTcldtfp_5beginEERKT_
FN:61,_ZSt5beginI17QArrayDataPointerI4QMapI5QChar5QListI7QStringEEEEDTcldtfp_5beginEERKT_
FNDA:0,_ZSt5beginI17QArrayDataPointerI4QMapI5QChar5QListI7QStringEEEEDTcldtfp_5beginEERKT_
FN:61,_ZSt5beginI17QArrayDataPointerI4QMapI5QChar7QStringEEEDTcldtfp_5beginEERKT_
FNDA:0,_ZSt5beginI17QArrayDataPointerI4QMapI5QChar7QStringEEEDTcldtfp_5beginEERKT_
FN:61,_ZSt5beginI17QArrayDataPointerIiEEDTcldtfp_5beginEERKT_
FNDA:0,_ZSt5beginI17QArrayDataPointerIiEEDTcldtfp_5beginEERKT_
FN:61,_ZSt5beginI17QArrayDataPointerI5QListIiEEEDTcldtfp_5beginEERKT_
FNDA:0,_ZSt5beginI17QArrayDataPointerI5QListIiEEEDTcldtfp_5beginEERKT_
FN:61,_ZSt5beginI17QArrayDataPointerI4QMapI5QChariEEEDTcldtfp_5beginEERKT_
FNDA:0,_ZSt5beginI17QArrayDataPointerI4QMapI5QChariEEEDTcldtfp_5beginEERKT_
FN:61,_ZSt5beginI17QArrayDataPointerIP9GameModelEEDTcldtfp_5beginEERKT_
FNDA:0,_ZSt5beginI17QArrayDataPointerIP9GameModelEEDTcldtfp_5beginEERKT_
FN:81,_ZSt3endI17QArrayDataPointerI5QListIiEEEDTcldtfp_3endEERKT_
FNDA:0,_ZSt3endI17QArrayDataPointerI5QListIiEEEDTcldtfp_3endEERKT_
FN:81,_ZSt3endI17QArrayDataPointerI7QStringEEDTcldtfp_3endEERKT_
FNDA:0,_ZSt3endI17QArrayDataPointerI7QStringEEDTcldtfp_3endEERKT_
FN:81,_ZSt3endI17QArrayDataPointerIP9GameModelEEDTcldtfp_3endEERKT_
FNDA:0,_ZSt3endI17QArrayDataPointerIP9GameModelEEDTcldtfp_3endEERKT_
FN:81,_ZSt3endI17QArrayDataPointerI4QMapI7QStringS2_EEEDTcldtfp_3endEERKT_
FNDA:0,_ZSt3endI17QArrayDataPointerI4QMapI7QStringS2_EEEDTcldtfp_3endEERKT_
FN:81,_ZSt3endIN9QtPrivate15QCommonArrayOpsI7QStringEEEDTcldtfp_3endEERKT_
FNDA:0,_ZSt3endIN9QtPrivate15QCommonArrayOpsI7QStringEEEDTcldtfp_3endEERKT_
FN:81,_ZSt3endI17QArrayDataPointerI4QMapI5QChar5QListI7QStringEEEEDTcldtfp_3endEERKT_
FNDA:0,_ZSt3endI17QArrayDataPointerI4QMapI5QChar5QListI7QStringEEEEDTcldtfp_3endEERKT_
FN:81,_ZSt3endI17QArrayDataPointerI5QCharEEDTcldtfp_3endEERKT_
FNDA:0,_ZSt3endI17QArrayDataPointerI5QCharEEDTcldtfp_3endEERKT_
FN:81,_ZSt3endI17QArrayDataPointerI4QMapI5QChar7QStringEEEDTcldtfp_3endEERKT_
FNDA:0,_ZSt3endI17QArrayDataPointerI4QMapI5QChar7QStringEEEDTcldtfp_3endEERKT_
FN:81,_ZSt3endI17QArrayDataPointerI4QMapI5QChariEEEDTcldtfp_3endEERKT_
FNDA:0,_ZSt3endI17QArrayDataPointerI4QMapI5QChariEEEDTcldtfp_3endEERKT_
FN:81,_ZSt3endI17QArrayDataPointerIiEEDTcldtfp_3endEERKT_
FNDA:0,_ZSt3endI17QArrayDataPointerIiEEDTcldtfp_3endEERKT_
FN:245,_ZSt4sizeI5QListI5QCharEEDTcldtfp_4sizeEERKT_
FNDA:0,_ZSt4sizeI5QListI5QCharEEDTcldtfp_4sizeEERKT_
FN:300,_ZSt4dataIN9QtPrivate15QCommonArrayOpsI7QStringEEEDTcldtfp_4dataEERKT_
FNDA:0,_ZSt4dataIN9QtPrivate15QCommonArrayOpsI7QStringEEEDTcldtfp_4dataEERKT_
FN:300,_ZSt4dataI17QArrayDataPointerI4QMapI5QChariEEEDTcldtfp_4dataEERKT_
FNDA:0,_ZSt4dataI17QArrayDataPointerI4QMapI5QChariEEEDTcldtfp_4dataEERKT_
FN:300,_ZSt4dataI17QArrayDataPointerI7QStringEEDTcldtfp_4dataEERKT_
FNDA:0,_ZSt4dataI17QArrayDataPointerI7QStringEEDTcldtfp_4dataEERKT_
FN:300,_ZSt4dataI5QListI5QCharEEDTcldtfp_4dataEERKT_
FNDA:0,_ZSt4dataI5QListI5QCharEEDTcldtfp_4dataEERKT_
FN:300,_ZSt4dataI17QArrayDataPointerI5QCharEEDTcldtfp_4dataEERKT_
FNDA:0,_ZSt4dataI17QArrayDataPointerI5QCharEEDTcldtfp_4dataEERKT_
FN:300,_ZSt4dataI17QArrayDataPointerI4QMapI7QStringS2_EEEDTcldtfp_4dataEERKT_
FNDA:0,_ZSt4dataI17QArrayDataPointerI4QMapI7QStringS2_EEEDTcldtfp_4dataEERKT_
FN:300,_ZSt4dataI17QArrayDataPointerI4QMapI5QChar5QListI7QStringEEEEDTcldtfp_4dataEERKT_
FNDA:0,_ZSt4dataI17QArrayDataPointerI4QMapI5QChar5QListI7QStringEEEEDTcldtfp_4dataEERKT_
FN:300,_ZSt4dataI17QArrayDataPointerI4QMapI5QChar7QStringEEEDTcldtfp_4dataEERKT_
FNDA:0,_ZSt4dataI17QArrayDataPointerI4QMapI5QChar7QStringEEEDTcldtfp_4dataEERKT_
FN:300,_ZSt4dataI17QArrayDataPointerIP9GameModelEEDTcldtfp_4dataEERKT_
FNDA:0,_ZSt4dataI17QArrayDataPointerIP9GameModelEEDTcldtfp_4dataEERKT_
FN:300,_ZSt4dataI17QArrayDataPointerIiEEDTcldtfp_4dataEERKT_
FNDA:0,_ZSt4dataI17QArrayDataPointerIiEEDTcldtfp_4dataEERKT_
FN:300,_ZSt4dataI17QArrayDataPointerI5QListIiEEEDTcldtfp_4dataEERKT_
FNDA:0,_ZSt4dataI17QArrayDataPointerI5QListIiEEEDTcldtfp_4dataEERKT_
DA:61,0
DA:62,0
DA:61,0
DA:62,0
DA:61,0
DA:62,0
DA:61,0
DA:62,0
DA:61,0
DA:62,0
DA:61,0
DA:62,0
DA:61,0
DA:62,0
DA:61,0
DA:62,0
DA:61,0
DA:62,0
DA:61,0
DA:62,0
DA:81,0
DA:82,0
DA:81,0
DA:82,0
DA:81,0
DA:82,0
DA:81,0
DA:82,0
DA:81,0
DA:82,0
DA:81,0
DA:82,0
DA:81,0
DA:82,0
DA:81,0
DA:82,0
DA:81,0
DA:82,0
DA:81,0
DA:82,0
DA:245,0
DA:247,0
DA:300,0
DA:302,0
DA:300,0
DA:302,0
DA:300,0
DA:302,0
DA:300,0
DA:302,0
DA:300,0
DA:302,0
DA:300,0
DA:302,0
DA:300,0
DA:302,0
DA:300,0
DA:302,0
DA:300,0
DA:302,0
DA:300,0
DA:302,0
DA:300,0
DA:302,0
end_of_record
SF:/home/pavle/Qt/6.6.1/gcc_64/include/QtCore/qlist.h
FN:113,_ZN5QListI4QMapI5QChariEE8iteratorC2EPS2_
FNDA:0,_ZN5QListI4QMapI5QChariEE8iteratorC2EPS2_
FN:113,_ZN5QListIS_IiEE8iteratorC2EPS0_
FNDA:4,_ZN5QListIS_IiEE8iteratorC2EPS0_
FN:113,_ZN5QListI5QCharE8iteratorC2EPS0_
FNDA:16,_ZN5QListI5QCharE8iteratorC2EPS0_
FN:113,_ZN5QListIiE8iteratorC2EPi
FNDA:0,_ZN5QListIiE8iteratorC2EPi
FN:113,_ZN5QListIP9GameModelE8iteratorC2EPS1_
FNDA:0,_ZN5QListIP9GameModelE8iteratorC2EPS1_
FN:113,_ZN5QListI4QMapI7QStringS1_EE8iteratorC2EPS2_
FNDA:0,_ZN5QListI4QMapI7QStringS1_EE8iteratorC2EPS2_
FN:113,_ZN5QListI4QMapI5QChar7QStringEE8iteratorC2EPS3_
FNDA:0,_ZN5QListI4QMapI5QChar7QStringEE8iteratorC2EPS3_
FN:113,_ZN5QListI4QMapI5QCharS_I7QStringEEE8iteratorC2EPS4_
FNDA:0,_ZN5QListI4QMapI5QCharS_I7QStringEEE8iteratorC2EPS4_
FN:113,_ZN5QListI7QStringE8iteratorC2EPS0_
FNDA:20,_ZN5QListI7QStringE8iteratorC2EPS0_
FN:132,_ZNK5QListI4QMapI5QChar7QStringEE8iteratordeEv
FNDA:0,_ZNK5QListI4QMapI5QChar7QStringEE8iteratordeEv
FN:132,_ZNK5QListI4QMapI5QChariEE8iteratordeEv
FNDA:0,_ZNK5QListI4QMapI5QChariEE8iteratordeEv
FN:132,_ZNK5QListIP9GameModelE8iteratordeEv
FNDA:0,_ZNK5QListIP9GameModelE8iteratordeEv
FN:132,_ZNK5QListI4QMapI5QCharS_I7QStringEEE8iteratordeEv
FNDA:0,_ZNK5QListI4QMapI5QCharS_I7QStringEEE8iteratordeEv
FN:132,_ZNK5QListI4QMapI7QStringS1_EE8iteratordeEv
FNDA:0,_ZNK5QListI4QMapI7QStringS1_EE8iteratordeEv
FN:132,_ZNK5QListI7QStringE8iteratordeEv
FNDA:34,_ZNK5QListI7QStringE8iteratordeEv
FN:132,_ZNK5QListI5QCharE8iteratordeEv
FNDA:20,_ZNK5QListI5QCharE8iteratordeEv
FN:132,_ZNK5QListIiE8iteratordeEv
FNDA:0,_ZNK5QListIiE8iteratordeEv
FN:132,_ZNK5QListIS_IiEE8iteratordeEv
FNDA:2,_ZNK5QListIS_IiEE8iteratordeEv
FN:135,_ZNK5QListIP9GameModelE8iteratoreqES3_
FNDA:0,_ZNK5QListIP9GameModelE8iteratoreqES3_
FN:135,_ZNK5QListIiE8iteratoreqES1_
FNDA:2,_ZNK5QListIiE8iteratoreqES1_
FN:135,_ZNK5QListI5QCharE8iteratoreqES2_
FNDA:2,_ZNK5QListI5QCharE8iteratoreqES2_
FN:136,_ZNK5QListIiE8iteratorneES1_
FNDA:209,_ZNK5QListIiE8iteratorneES1_
FN:136,_ZNK5QListI7QStringE8iteratorneES2_
FNDA:40,_ZNK5QListI7QStringE8iteratorneES2_
FN:136,_ZNK5QListIP9GameModelE8iteratorneES3_
FNDA:0,_ZNK5QListIP9GameModelE8iteratorneES3_
FN:136,_ZNK5QListI5QCharE8iteratorneES2_
FNDA:6,_ZNK5QListI5QCharE8iteratorneES2_
FN:137,_ZNK5QListIP9GameModelE8iteratorltES3_
FNDA:0,_ZNK5QListIP9GameModelE8iteratorltES3_
FN:149,_ZN5QListIP9GameModelE8iteratorppEv
FNDA:0,_ZN5QListIP9GameModelE8iteratorppEv
FN:149,_ZN5QListI7QStringE8iteratorppEv
FNDA:32,_ZN5QListI7QStringE8iteratorppEv
FN:149,_ZN5QListIiE8iteratorppEv
FNDA:183,_ZN5QListIiE8iteratorppEv
FN:149,_ZN5QListI5QCharE8iteratorppEv
FNDA:10,_ZN5QListI5QCharE8iteratorppEv
FN:150,_ZN5QListI5QCharE8iteratorppEi
FNDA:10,_ZN5QListI5QCharE8iteratorppEi
FN:150,_ZN5QListIiE8iteratorppEi
FNDA:14,_ZN5QListIiE8iteratorppEi
FN:151,_ZN5QListIP9GameModelE8iteratormmEv
FNDA:0,_ZN5QListIP9GameModelE8iteratormmEv
FN:153,_ZNK5QListI5QCharE8iteratormiES2_
FNDA:6,_ZNK5QListI5QCharE8iteratormiES2_
FN:153,_ZNK5QListIP9GameModelE8iteratormiES3_
FNDA:0,_ZNK5QListIP9GameModelE8iteratormiES3_
FN:153,_ZNK5QListIiE8iteratormiES1_
FNDA:8,_ZNK5QListIiE8iteratormiES1_
FN:173,_ZNK5QListI5QCharE8iteratorplEx
FNDA:12,_ZNK5QListI5QCharE8iteratorplEx
FN:173,_ZNK5QListIiE8iteratorplEx
FNDA:16,_ZNK5QListIiE8iteratorplEx
FN:173,_ZNK5QListIP9GameModelE8iteratorplEx
FNDA:0,_ZNK5QListIP9GameModelE8iteratorplEx
FN:174,_ZNK5QListIiE8iteratormiEx
FNDA:0,_ZNK5QListIiE8iteratormiEx
FN:174,_ZNK5QListI5QCharE8iteratormiEx
FNDA:0,_ZNK5QListI5QCharE8iteratormiEx
FN:174,_ZNK5QListIP9GameModelE8iteratormiEx
FNDA:0,_ZNK5QListIP9GameModelE8iteratormiEx
FN:174,_ZNK5QListI7QStringE8iteratormiEx
FNDA:2,_ZNK5QListI7QStringE8iteratormiEx
FN:174,_ZNK5QListI4QMapI7QStringS1_EE8iteratormiEx
FNDA:0,_ZNK5QListI4QMapI7QStringS1_EE8iteratormiEx
FN:174,_ZNK5QListI4QMapI5QCharS_I7QStringEEE8iteratormiEx
FNDA:0,_ZNK5QListI4QMapI5QCharS_I7QStringEEE8iteratormiEx
FN:174,_ZNK5QListIS_IiEE8iteratormiEx
FNDA:2,_ZNK5QListIS_IiEE8iteratormiEx
FN:174,_ZNK5QListI4QMapI5QChariEE8iteratormiEx
FNDA:0,_ZNK5QListI4QMapI5QChariEE8iteratormiEx
FN:174,_ZNK5QListI4QMapI5QChar7QStringEE8iteratormiEx
FNDA:0,_ZNK5QListI4QMapI5QChar7QStringEE8iteratormiEx
FN:184,_ZN5QListI7QStringE14const_iteratorC2EPKS0_
FNDA:0,_ZN5QListI7QStringE14const_iteratorC2EPKS0_
FN:184,_ZN5QListI4QMapI7QStringS1_EE14const_iteratorC2EPKS2_
FNDA:0,_ZN5QListI4QMapI7QStringS1_EE14const_iteratorC2EPKS2_
FN:184,_ZN5QListIiE14const_iteratorC2EPKi
FNDA:0,_ZN5QListIiE14const_iteratorC2EPKi
FN:204,_ZNK5QListI4QMapI7QStringS1_EE14const_iteratordeEv
FNDA:0,_ZNK5QListI4QMapI7QStringS1_EE14const_iteratordeEv
FN:204,_ZNK5QListI7QStringE14const_iteratordeEv
FNDA:0,_ZNK5QListI7QStringE14const_iteratordeEv
FN:204,_ZNK5QListIiE14const_iteratordeEv
FNDA:0,_ZNK5QListIiE14const_iteratordeEv
FN:208,_ZNK5QListI4QMapI7QStringS1_EE14const_iteratorneES4_
FNDA:0,_ZNK5QListI4QMapI7QStringS1_EE14const_iteratorneES4_
FN:208,_ZNK5QListI7QStringE14const_iteratorneES2_
FNDA:0,_ZNK5QListI7QStringE14const_iteratorneES2_
FN:208,_ZNK5QListIiE14const_iteratorneES1_
FNDA:0,_ZNK5QListIiE14const_iteratorneES1_
FN:221,_ZN5QListIiE14const_iteratorppEv
FNDA:0,_ZN5QListIiE14const_iteratorppEv
FN:221,_ZN5QListI7QStringE14const_iteratorppEv
FNDA:0,_ZN5QListI7QStringE14const_iteratorppEv
FN:221,_ZN5QListI4QMapI7QStringS1_EE14const_iteratorppEv
FNDA:0,_ZN5QListI4QMapI7QStringS1_EE14const_iteratorppEv
FN:269,_ZN5QListIiEC2Ev
FNDA:0,_ZN5QListIiEC2Ev
FN:269,_ZN5QListI5QCharEC2Ev
FNDA:22,_ZN5QListI5QCharEC2Ev
FN:269,_ZN5QListI7QStringEC2Ev
FNDA:0,_ZN5QListI7QStringEC2Ev
FN:269,_ZN5QListI4QMapI7QStringS1_EEC2Ev
FNDA:11,_ZN5QListI4QMapI7QStringS1_EEC2Ev
FN:269,_ZN5QListIS_IiEEC2Ev
FNDA:12,_ZN5QListIS_IiEEC2Ev
FN:269,_ZN5QListI4QMapI5QChariEEC2Ev
FNDA:0,_ZN5QListI4QMapI5QChariEEC2Ev
FN:269,_ZN5QListI4QMapI5QChar7QStringEEC2Ev
FNDA:0,_ZN5QListI4QMapI5QChar7QStringEEC2Ev
FN:269,_ZN5QListI4QMapI5QCharS_I7QStringEEEC2Ev
FNDA:0,_ZN5QListI4QMapI5QCharS_I7QStringEEEC2Ev
FN:269,_ZN5QListIP9GameModelEC2Ev
FNDA:0,_ZN5QListIP9GameModelEC2Ev
FN:283,_ZN5QListIiEC2ESt16initializer_listIiE
FNDA:0,_ZN5QListIiEC2ESt16initializer_listIiE
FN:283,_ZN5QListIbEC2ESt16initializer_listIbE
FNDA:2592,_ZN5QListIbEC2ESt16initializer_listIbE
FN:283,_ZN5QListI5QCharEC2ESt16initializer_listIS0_E
FNDA:4,_ZN5QListI5QCharEC2ESt16initializer_listIS0_E
FN:290,_ZN5QListIiEaSESt16initializer_listIiE
FNDA:3,_ZN5QListIiEaSESt16initializer_listIiE
FN:386,_ZNK5QListIiE4sizeEv
FNDA:0,_ZNK5QListIiE4sizeEv
FN:386,_ZNK5QListIP9GameModelE4sizeEv
FNDA:0,_ZNK5QListIP9GameModelE4sizeEv
FN:386,_ZNK5QListI7QStringE4sizeEv
FNDA:0,_ZNK5QListI7QStringE4sizeEv
FN:386,_ZNK5QListI5QCharE4sizeEv
FNDA:0,_ZNK5QListI5QCharE4sizeEv
FN:405,_ZNK5QListI7QStringE8capacityEv
FNDA:0,_ZNK5QListI7QStringE8capacityEv
FN:409,_ZN5QListIS_IiEE6detachEv
FNDA:3,_ZN5QListIS_IiEE6detachEv
FN:409,_ZN5QListI5QCharE6detachEv
FNDA:0,_ZN5QListI5QCharE6detachEv
FN:409,_ZN5QListIbE6detachEv
FNDA:10644,_ZN5QListIbE6detachEv
FN:409,_ZN5QListI4QMapI7QStringS1_EE6detachEv
FNDA:0,_ZN5QListI4QMapI7QStringS1_EE6detachEv
FN:409,_ZN5QListI4QMapI5QCharS_I7QStringEEE6detachEv
FNDA:0,_ZN5QListI4QMapI5QCharS_I7QStringEEE6detachEv
FN:409,_ZN5QListI4QMapI5QChar7QStringEE6detachEv
FNDA:0,_ZN5QListI4QMapI5QChar7QStringEE6detachEv
FN:409,_ZN5QListIP9GameModelE6detachEv
FNDA:0,_ZN5QListIP9GameModelE6detachEv
FN:409,_ZN5QListI4QMapI5QChariEE6detachEv
FNDA:0,_ZN5QListI4QMapI5QChariEE6detachEv
FN:409,_ZN5QListIiE6detachEv
FNDA:0,_ZN5QListIiE6detachEv
FN:409,_ZN5QListI7QStringE6detachEv
FNDA:0,_ZN5QListI7QStringE6detachEv
FN:414,_ZN5QListIS_IiEE4dataEv
FNDA:1,_ZN5QListIS_IiEE4dataEv
FN:414,_ZN5QListIiE4dataEv
FNDA:0,_ZN5QListIiE4dataEv
FN:414,_ZN5QListI7QStringE4dataEv
FNDA:0,_ZN5QListI7QStringE4dataEv
FN:414,_ZN5QListI4QMapI5QCharS_I7QStringEEE4dataEv
FNDA:2,_ZN5QListI4QMapI5QCharS_I7QStringEEE4dataEv
FN:414,_ZN5QListI4QMapI5QChariEE4dataEv
FNDA:38,_ZN5QListI4QMapI5QChariEE4dataEv
FN:414,_ZN5QListI5QCharE4dataEv
FNDA:0,_ZN5QListI5QCharE4dataEv
FN:414,_ZN5QListI4QMapI5QChar7QStringEE4dataEv
FNDA:2,_ZN5QListI4QMapI5QChar7QStringEE4dataEv
FN:414,_ZN5QListIbE4dataEv
FNDA:10644,_ZN5QListIbE4dataEv
FN:414,_ZN5QListI4QMapI7QStringS1_EE4dataEv
FNDA:0,_ZN5QListI4QMapI7QStringS1_EE4dataEv
FN:415,_ZNK5QListI5QCharE4dataEv
FNDA:0,_ZNK5QListI5QCharE4dataEv
FN:415,_ZNK5QListI7QStringE4dataEv
FNDA:0,_ZNK5QListI7QStringE4dataEv
FN:429,_ZNK5QListI7QStringE2atEx
FNDA:0,_ZNK5QListI7QStringE2atEx
FN:434,_ZN5QListI4QMapI5QChar7QStringEEixEx
FNDA:2,_ZN5QListI4QMapI5QChar7QStringEEixEx
FN:434,_ZN5QListI7QStringEixEx
FNDA:0,_ZN5QListI7QStringEixEx
FN:434,_ZN5QListI5QCharEixEx
FNDA:0,_ZN5QListI5QCharEixEx
FN:434,_ZN5QListIiEixEx
FNDA:0,_ZN5QListIiEixEx
FN:434,_ZN5QListIS_IiEEixEx
FNDA:1,_ZN5QListIS_IiEEixEx
FN:434,_ZN5QListIbEixEx
FNDA:10644,_ZN5QListIbEixEx
FN:434,_ZN5QListI4QMapI5QChariEEixEx
FNDA:38,_ZN5QListI4QMapI5QChariEEixEx
FN:434,_ZN5QListI4QMapI7QStringS1_EEixEx
FNDA:0,_ZN5QListI4QMapI7QStringS1_EEixEx
FN:434,_ZN5QListI4QMapI5QCharS_I7QStringEEEixEx
FNDA:2,_ZN5QListI4QMapI5QCharS_I7QStringEEEixEx
FN:441,_ZN5QListI7QStringE6appendERKS0_
FNDA:2,_ZN5QListI7QStringE6appendERKS0_
FN:441,_ZN5QListI4QMapI5QChar7QStringEE6appendERKS3_
FNDA:0,_ZN5QListI4QMapI5QChar7QStringEE6appendERKS3_
FN:441,_ZN5QListI5QCharE6appendERKS0_
FNDA:0,_ZN5QListI5QCharE6appendERKS0_
FN:441,_ZN5QListI4QMapI5QCharS_I7QStringEEE6appendERKS4_
FNDA:0,_ZN5QListI4QMapI5QCharS_I7QStringEEE6appendERKS4_
FN:441,_ZN5QListI4QMapI7QStringS1_EE6appendERKS2_
FNDA:0,_ZN5QListI4QMapI7QStringS1_EE6appendERKS2_
FN:441,_ZN5QListIiE6appendEi
FNDA:0,_ZN5QListIiE6appendEi
FN:441,_ZN5QListIP9GameModelE6appendES1_
FNDA:0,_ZN5QListIP9GameModelE6appendES1_
FN:441,_ZN5QListIS_IiEE6appendERKS0_
FNDA:2,_ZN5QListIS_IiEE6appendERKS0_
FN:441,_ZN5QListI4QMapI5QChariEE6appendERKS2_
FNDA:0,_ZN5QListI4QMapI5QChariEE6appendERKS2_
FN:443,_ZN5QListI7QStringE6appendEOS0_
FNDA:0,_ZN5QListI7QStringE6appendEOS0_
FN:451,_ZN5QListI7QStringE6appendERKS1_
FNDA:0,_ZN5QListI7QStringE6appendERKS1_
FN:608,_ZN5QListI7QStringE5beginEv
FNDA:8,_ZN5QListI7QStringE5beginEv
FN:608,_ZN5QListIiE5beginEv
FNDA:34,_ZN5QListIiE5beginEv
FN:608,_ZN5QListIP9GameModelE5beginEv
FNDA:0,_ZN5QListIP9GameModelE5beginEv
FN:608,_ZN5QListI5QCharE5beginEv
FNDA:2,_ZN5QListI5QCharE5beginEv
FN:609,_ZN5QListI4QMapI5QChar7QStringEE3endEv
FNDA:0,_ZN5QListI4QMapI5QChar7QStringEE3endEv
FN:609,_ZN5QListIP9GameModelE3endEv
FNDA:0,_ZN5QListIP9GameModelE3endEv
FN:609,_ZN5QListI4QMapI5QCharS_I7QStringEEE3endEv
FNDA:0,_ZN5QListI4QMapI5QCharS_I7QStringEEE3endEv
FN:609,_ZN5QListI4QMapI7QStringS1_EE3endEv
FNDA:0,_ZN5QListI4QMapI7QStringS1_EE3endEv
FN:609,_ZN5QListIiE3endEv
FNDA:0,_ZN5QListIiE3endEv
FN:609,_ZN5QListI5QCharE3endEv
FNDA:2,_ZN5QListI5QCharE3endEv
FN:609,_ZN5QListIS_IiEE3endEv
FNDA:2,_ZN5QListIS_IiEE3endEv
FN:609,_ZN5QListI7QStringE3endEv
FNDA:10,_ZN5QListI7QStringE3endEv
FN:609,_ZN5QListI4QMapI5QChariEE3endEv
FNDA:0,_ZN5QListI4QMapI5QChariEE3endEv
FN:611,_ZNK5QListI7QStringE5beginEv
FNDA:0,_ZNK5QListI7QStringE5beginEv
FN:611,_ZNK5QListIiE5beginEv
FNDA:0,_ZNK5QListIiE5beginEv
FN:611,_ZNK5QListI4QMapI7QStringS1_EE5beginEv
FNDA:0,_ZNK5QListI4QMapI7QStringS1_EE5beginEv
FN:612,_ZNK5QListI7QStringE3endEv
FNDA:0,_ZNK5QListI7QStringE3endEv
FN:612,_ZNK5QListIiE3endEv
FNDA:0,_ZNK5QListIiE3endEv
FN:612,_ZNK5QListI4QMapI7QStringS1_EE3endEv
FNDA:0,_ZNK5QListI4QMapI7QStringS1_EE3endEv
FN:615,_ZNK5QListI7QStringE10constBeginEv
FNDA:0,_ZNK5QListI7QStringE10constBeginEv
FN:616,_ZNK5QListI7QStringE8constEndEv
FNDA:0,_ZNK5QListI7QStringE8constEndEv
FN:672,_ZN5QListIiE9push_backEi
FNDA:0,_ZN5QListIiE9push_backEi
FN:672,_ZN5QListI5QCharE9push_backERKS0_
FNDA:0,_ZN5QListI5QCharE9push_backERKS0_
FN:672,_ZN5QListIP9GameModelE9push_backES1_
FNDA:0,_ZN5QListIP9GameModelE9push_backES1_
FN:673,_ZN5QListI7QStringE9push_backEOS0_
FNDA:0,_ZN5QListI7QStringE9push_backEOS0_
FN:746,_ZN5QListI7QStringE7reserveEx
FNDA:0,_ZN5QListI7QStringE7reserveEx
FN:823,_ZN5QListI7QStringE6appendENS1_14const_iteratorES2_
FNDA:0,_ZN5QListI7QStringE6appendENS1_14const_iteratorES2_
FN:875,_ZN5QListI5QCharE11emplaceBackIJRKS0_EEERS0_DpOT_
FNDA:0,_ZN5QListI5QCharE11emplaceBackIJRKS0_EEERS0_DpOT_
FN:875,_ZN5QListIP9GameModelE11emplaceBackIJRS1_EEES4_DpOT_
FNDA:0,_ZN5QListIP9GameModelE11emplaceBackIJRS1_EEES4_DpOT_
FN:875,_ZN5QListI4QMapI5QChar7QStringEE11emplaceBackIJRKS3_EEERS3_DpOT_
FNDA:0,_ZN5QListI4QMapI5QChar7QStringEE11emplaceBackIJRKS3_EEERS3_DpOT_
FN:875,_ZN5QListI4QMapI5QCharS_I7QStringEEE11emplaceBackIJRKS4_EEERS4_DpOT_
FNDA:0,_ZN5QListI4QMapI5QCharS_I7QStringEEE11emplaceBackIJRKS4_EEERS4_DpOT_
FN:875,_ZN5QListI7QStringE11emplaceBackIJRKS0_EEERS0_DpOT_
FNDA:2,_ZN5QListI7QStringE11emplaceBackIJRKS0_EEERS0_DpOT_
FN:875,_ZN5QListI4QMapI5QChariEE11emplaceBackIJRKS2_EEERS2_DpOT_
FNDA:0,_ZN5QListI4QMapI5QChariEE11emplaceBackIJRKS2_EEERS2_DpOT_
FN:875,_ZN5QListI7QStringE11emplaceBackIJS0_EEERS0_DpOT_
FNDA:0,_ZN5QListI7QStringE11emplaceBackIJS0_EEERS0_DpOT_
FN:875,_ZN5QListIiE11emplaceBackIJRiEEES2_DpOT_
FNDA:0,_ZN5QListIiE11emplaceBackIJRiEEES2_DpOT_
FN:875,_ZN5QListIS_IiEE11emplaceBackIJRKS0_EEERS0_DpOT_
FNDA:2,_ZN5QListIS_IiEE11emplaceBackIJRKS0_EEERS0_DpOT_
FN:875,_ZN5QListI4QMapI7QStringS1_EE11emplaceBackIJRKS2_EEERS2_DpOT_
FNDA:0,_ZN5QListI4QMapI7QStringS1_EE11emplaceBackIJRKS2_EEERS2_DpOT_
DA:113,0
DA:113,4
DA:113,0
DA:113,0
DA:113,0
DA:113,16
DA:113,0
DA:113,20
DA:113,0
DA:132,0
DA:132,2
DA:132,20
DA:132,0
DA:132,0
DA:132,0
DA:132,0
DA:132,34
DA:132,0
DA:135,0
DA:135,2
DA:135,2
DA:136,6
DA:136,0
DA:136,40
DA:136,209
DA:137,0
DA:149,0
DA:149,10
DA:149,32
DA:149,183
DA:150,14
DA:150,10
DA:151,0
DA:153,0
DA:153,8
DA:153,6
DA:173,16
DA:173,12
DA:173,0
DA:174,0
DA:174,0
DA:174,0
DA:174,2
DA:174,0
DA:174,0
DA:174,0
DA:174,0
DA:174,2
DA:184,0
DA:184,0
DA:184,0
DA:204,0
DA:204,0
DA:204,0
DA:208,0
DA:208,0
DA:208,0
DA:221,0
DA:221,0
DA:221,0
DA:269,0
DA:269,0
DA:269,0
DA:269,0
DA:269,12
DA:269,11
DA:269,0
DA:269,0
DA:269,22
DA:283,0
DA:284,0
DA:286,0
BRDA:286,0,0,-
BRDA:286,0,1,-
DA:287,0
DA:288,0
DA:283,2592
DA:284,2592
DA:286,2592
BRDA:286,0,0,2592
BRDA:286,0,1,0
DA:287,2592
DA:288,2592
DA:283,4
DA:284,4
DA:286,4
BRDA:286,0,0,4
BRDA:286,0,1,0
DA:287,4
DA:288,4
DA:290,3
DA:292,3
DA:293,3
BRDA:293,0,0,3
BRDA:293,0,1,0
DA:294,3
DA:295,3
DA:386,0
DA:386,0
DA:386,0
DA:386,0
DA:405,0
DA:409,0
DA:409,0
DA:409,0
DA:409,0
DA:409,10644
DA:409,3
DA:409,0
DA:409,0
DA:409,0
DA:409,0
DA:414,38
DA:414,2
DA:414,2
DA:414,0
DA:414,10644
DA:414,1
DA:414,0
DA:414,0
DA:414,0
DA:415,0
DA:415,0
DA:429,0
DA:431,0
BRDA:431,0,0,-
BRDA:431,0,1,-
DA:432,0
DA:434,38
DA:436,38
BRDA:436,0,0,0
BRDA:436,0,1,38
DA:438,38
DA:434,2
DA:436,2
BRDA:436,0,0,0
BRDA:436,0,1,2
DA:438,2
DA:434,2
DA:436,2
BRDA:436,0,0,0
BRDA:436,0,1,2
DA:438,2
DA:434,0
DA:436,0
BRDA:436,0,0,-
BRDA:436,0,1,-
DA:438,0
DA:434,10644
DA:436,10644
BRDA:436,0,0,0
BRDA:436,0,1,10644
DA:438,10644
DA:434,1
DA:436,1
BRDA:436,0,0,0
BRDA:436,0,1,1
DA:438,1
DA:434,0
DA:436,0
BRDA:436,0,0,-
BRDA:436,0,1,-
DA:438,0
DA:434,0
DA:436,0
BRDA:436,0,0,-
BRDA:436,0,1,-
DA:438,0
DA:434,0
DA:436,0
BRDA:436,0,0,-
BRDA:436,0,1,-
DA:438,0
DA:441,0
DA:441,0
DA:441,0
DA:441,2
DA:441,0
DA:441,0
DA:441,0
DA:441,0
DA:441,2
DA:443,0
DA:448,0
DA:450,0
DA:451,0
DA:453,0
DA:454,0
DA:608,2
DA:608,0
DA:608,8
DA:608,34
DA:609,0
DA:609,2
DA:609,0
DA:609,0
DA:609,0
DA:609,2
DA:609,0
DA:609,10
DA:609,0
DA:611,0
DA:611,0
DA:611,0
DA:612,0
DA:612,0
DA:612,0
DA:615,0
DA:616,0
DA:672,0
DA:672,0
DA:672,0
DA:673,0
DA:746,0
DA:749,0
BRDA:749,0,0,-
BRDA:749,0,1,-
DA:750,0
BRDA:750,0,0,-
BRDA:750,0,1,-
DA:751,0
DA:752,0
BRDA:752,0,0,-
BRDA:752,0,1,-
DA:754,0
DA:755,0
DA:759,0
BRDA:759,0,0,-
BRDA:759,0,1,-
DA:760,0
DA:761,0
BRDA:761,0,0,-
BRDA:761,0,1,-
DA:762,0
DA:763,0
DA:764,0
DA:823,0
DA:825,0
DA:826,0
DA:875,0
DA:877,0
DA:878,0
DA:875,0
DA:877,0
DA:878,0
DA:875,0
DA:877,0
DA:878,0
BRDA:878,0,0,-
BRDA:878,0,1,-
DA:875,2
DA:877,2
DA:878,2
BRDA:878,0,0,2
BRDA:878,0,1,0
DA:875,0
DA:877,0
DA:878,0
DA:875,0
DA:877,0
DA:878,0
BRDA:878,0,0,-
BRDA:878,0,1,-
DA:875,0
DA:877,0
DA:878,0
BRDA:878,0,0,-
BRDA:878,0,1,-
DA:875,0
DA:877,0
DA:878,0
BRDA:878,0,0,-
BRDA:878,0,1,-
DA:875,0
DA:877,0
DA:878,0
DA:875,2
DA:877,2
DA:878,2
end_of_record
SF:/usr/include/c++/11/atomic
FN:833,_ZNSt6atomicIiEC2Ei
FNDA:0,_ZNSt6atomicIiEC2Ei
DA:833,0
end_of_record
SF:/usr/include/c++/11/bits/stl_algo.h
FN:79,_ZSt22__move_median_to_firstIN5QListIP9GameModelE8iteratorEN9__gnu_cxx5__ops15_Iter_comp_iterIZN6Server15socketReadyReadEvEUlPKS1_SA_E0_EEEvT_SD_SD_SD_T0_
FNDA:0,_ZSt22__move_median_to_firstIN5QListIP9GameModelE8iteratorEN9__gnu_cxx5__ops15_Iter_comp_iterIZN6Server15socketReadyReadEvEUlPKS1_SA_E0_EEEvT_SD_SD_SD_T0_
FN:1642,_ZSt13__heap_selectIN5QListIP9GameModelE8iteratorEN9__gnu_cxx5__ops15_Iter_comp_iterIZN6Server15socketReadyReadEvEUlPKS1_SA_E0_EEEvT_SD_SD_T0_
FNDA:0,_ZSt13__heap_selectIN5QListIP9GameModelE8iteratorEN9__gnu_cxx5__ops15_Iter_comp_iterIZN6Server15socketReadyReadEvEUlPKS1_SA_E0_EEEvT_SD_SD_T0_
FN:1799,_ZSt25__unguarded_linear_insertIN5QListIP9GameModelE8iteratorEN9__gnu_cxx5__ops14_Val_comp_iterIZN6Server15socketReadyReadEvEUlPKS1_SA_E0_EEEvT_T0_
FNDA:0,_ZSt25__unguarded_linear_insertIN5QListIP9GameModelE8iteratorEN9__gnu_cxx5__ops14_Val_comp_iterIZN6Server15socketReadyReadEvEUlPKS1_SA_E0_EEEvT_T0_
FN:1819,_ZSt16__insertion_sortIN5QListIP9GameModelE8iteratorEN9__gnu_cxx5__ops15_Iter_comp_iterIZN6Server15socketReadyReadEvEUlPKS1_SA_E0_EEEvT_SD_T0_
FNDA:0,_ZSt16__insertion_sortIN5QListIP9GameModelE8iteratorEN9__gnu_cxx5__ops15_Iter_comp_iterIZN6Server15socketReadyReadEvEUlPKS1_SA_E0_EEEvT_SD_T0_
FN:1843,_ZSt26__unguarded_insertion_sortIN5QListIP9GameModelE8iteratorEN9__gnu_cxx5__ops15_Iter_comp_iterIZN6Server15socketReadyReadEvEUlPKS1_SA_E0_EEEvT_SD_T0_
FNDA:0,_ZSt26__unguarded_insertion_sortIN5QListIP9GameModelE8iteratorEN9__gnu_cxx5__ops15_Iter_comp_iterIZN6Server15socketReadyReadEvEUlPKS1_SA_E0_EEEvT_SD_T0_
FN:1861,_ZSt22__final_insertion_sortIN5QListIP9GameModelE8iteratorEN9__gnu_cxx5__ops15_Iter_comp_iterIZN6Server15socketReadyReadEvEUlPKS1_SA_E0_EEEvT_SD_T0_
FNDA:0,_ZSt22__final_insertion_sortIN5QListIP9GameModelE8iteratorEN9__gnu_cxx5__ops15_Iter_comp_iterIZN6Server15socketReadyReadEvEUlPKS1_SA_E0_EEEvT_SD_T0_
FN:1878,_ZSt21__unguarded_partitionIN5QListIP9GameModelE8iteratorEN9__gnu_cxx5__ops15_Iter_comp_iterIZN6Server15socketReadyReadEvEUlPKS1_SA_E0_EEET_SD_SD_SD_T0_
FNDA:0,_ZSt21__unguarded_partitionIN5QListIP9GameModelE8iteratorEN9__gnu_cxx5__ops15_Iter_comp_iterIZN6Server15socketReadyReadEvEUlPKS1_SA_E0_EEET_SD_SD_SD_T0_
FN:1900,_ZSt27__unguarded_partition_pivotIN5QListIP9GameModelE8iteratorEN9__gnu_cxx5__ops15_Iter_comp_iterIZN6Server15socketReadyReadEvEUlPKS1_SA_E0_EEET_SD_SD_T0_
FNDA:0,_ZSt27__unguarded_partition_pivotIN5QListIP9GameModelE8iteratorEN9__gnu_cxx5__ops15_Iter_comp_iterIZN6Server15socketReadyReadEvEUlPKS1_SA_E0_EEET_SD_SD_T0_
FN:1912,_ZSt14__partial_sortIN5QListIP9GameModelE8iteratorEN9__gnu_cxx5__ops15_Iter_comp_iterIZN6Server15socketReadyReadEvEUlPKS1_SA_E0_EEEvT_SD_SD_T0_
FNDA:0,_ZSt14__partial_sortIN5QListIP9GameModelE8iteratorEN9__gnu_cxx5__ops15_Iter_comp_iterIZN6Server15socketReadyReadEvEUlPKS1_SA_E0_EEEvT_SD_SD_T0_
FN:1925,_ZSt16__introsort_loopIN5QListIP9GameModelE8iteratorExN9__gnu_cxx5__ops15_Iter_comp_iterIZN6Server15socketReadyReadEvEUlPKS1_SA_E0_EEEvT_SD_T0_T1_
FNDA:0,_ZSt16__introsort_loopIN5QListIP9GameModelE8iteratorExN9__gnu_cxx5__ops15_Iter_comp_iterIZN6Server15socketReadyReadEvEUlPKS1_SA_E0_EEEvT_SD_T0_T1_
FN:1949,_ZSt6__sortIN5QListIP9GameModelE8iteratorEN9__gnu_cxx5__ops15_Iter_comp_iterIZN6Server15socketReadyReadEvEUlPKS1_SA_E0_EEEvT_SD_T0_
FNDA:0,_ZSt6__sortIN5QListIP9GameModelE8iteratorEN9__gnu_cxx5__ops15_Iter_comp_iterIZN6Server15socketReadyReadEvEUlPKS1_SA_E0_EEEvT_SD_T0_
FN:3706,_ZSt22__gen_two_uniform_intsIyRSt26linear_congruential_engineImLm16807ELm0ELm2147483647EEESt4pairIT_S4_ES4_S4_OT0_
FNDA:10,_ZSt22__gen_two_uniform_intsIyRSt26linear_congruential_engineImLm16807ELm0ELm2147483647EEESt4pairIT_S4_ES4_S4_OT0_
FN:3729,_ZSt7shuffleIN5QListIiE8iteratorERSt26linear_congruential_engineImLm16807ELm0ELm2147483647EEEvT_S6_OT0_
FNDA:2,_ZSt7shuffleIN5QListIiE8iteratorERSt26linear_congruential_engineImLm16807ELm0ELm2147483647EEEvT_S6_OT0_
FN:3729,_ZSt7shuffleIN5QListI5QCharE8iteratorERSt26linear_congruential_engineImLm16807ELm0ELm2147483647EEEvT_S7_OT0_
FNDA:2,_ZSt7shuffleIN5QListI5QCharE8iteratorERSt26linear_congruential_engineImLm16807ELm0ELm2147483647EEEvT_S7_OT0_
FN:3901,_ZSt7find_ifIN5QListIP9GameModelE8iteratorEZN6Server15socketReadyReadEvEUlPKS1_E_ET_S9_S9_T0_
FNDA:0,_ZSt7find_ifIN5QListIP9GameModelE8iteratorEZN6Server15socketReadyReadEvEUlPKS1_E_ET_S9_S9_T0_
FN:4285,_ZSt9transformISt23_Rb_tree_const_iteratorISt4pairIK7QStringS2_EESt20back_insert_iteratorI5QListIS2_EEZNK8QMapDataISt3mapIS2_S2_St4lessIS2_ESaIS4_EEE4keysEvEUlRKT_E_ET0_SH_SH_SL_T1_
FNDA:0,_ZSt9transformISt23_Rb_tree_const_iteratorISt4pairIK7QStringS2_EESt20back_insert_iteratorI5QListIS2_EEZNK8QMapDataISt3mapIS2_S2_St4lessIS2_ESaIS4_EEE4keysEvEUlRKT_E_ET0_SH_SH_SL_T1_
FN:4863,_ZSt4sortIN5QListIP9GameModelE8iteratorEZN6Server15socketReadyReadEvEUlPKS1_S7_E0_EvT_S9_T0_
FNDA:0,_ZSt4sortIN5QListIP9GameModelE8iteratorEZN6Server15socketReadyReadEvEUlPKS1_S7_E0_EvT_S9_T0_
DA:79,0
DA:82,0
BRDA:82,0,0,-
BRDA:82,0,1,-
DA:84,0
BRDA:84,0,0,-
BRDA:84,0,1,-
DA:85,0
DA:86,0
BRDA:86,0,0,-
BRDA:86,0,1,-
DA:87,0
DA:89,0
DA:91,0
BRDA:91,0,0,-
BRDA:91,0,1,-
DA:92,0
DA:93,0
BRDA:93,0,0,-
BRDA:93,0,1,-
DA:94,0
DA:96,0
DA:97,0
DA:1642,0
DA:1646,0
DA:1647,0
BRDA:1647,0,0,-
BRDA:1647,0,1,-
DA:1648,0
BRDA:1648,0,0,-
BRDA:1648,0,1,-
BRDA:1648,0,2,-
BRDA:1648,0,3,-
DA:1649,0
BRDA:1649,0,0,-
BRDA:1649,0,1,-
DA:1650,0
DA:1799,0
DA:1803,0
DA:1804,0
DA:1805,0
DA:1806,0
BRDA:1806,0,0,-
BRDA:1806,0,1,-
BRDA:1806,0,2,-
BRDA:1806,0,3,-
DA:1808,0
DA:1809,0
DA:1810,0
DA:1812,0
DA:1813,0
DA:1819,0
DA:1822,0
BRDA:1822,0,0,-
BRDA:1822,0,1,-
DA:1824,0
BRDA:1824,0,0,-
BRDA:1824,0,1,-
BRDA:1824,0,2,-
BRDA:1824,0,3,-
DA:1826,0
BRDA:1826,0,0,-
BRDA:1826,0,1,-
BRDA:1826,0,2,-
BRDA:1826,0,3,-
DA:1829,0
DA:1830,0
BRDA:1830,0,0,-
BRDA:1830,0,1,-
BRDA:1830,0,2,-
BRDA:1830,0,3,-
DA:1831,0
DA:1834,0
BRDA:1834,0,0,-
BRDA:1834,0,1,-
BRDA:1834,0,2,-
BRDA:1834,0,3,-
DA:1843,0
DA:1846,0
BRDA:1846,0,0,-
BRDA:1846,0,1,-
DA:1847,0
BRDA:1847,0,0,-
BRDA:1847,0,1,-
BRDA:1847,0,2,-
BRDA:1847,0,3,-
DA:1849,0
DA:1861,0
DA:1864,0
BRDA:1864,0,0,-
BRDA:1864,0,1,-
DA:1866,0
DA:1867,0
DA:1871,0
DA:1872,0
DA:1878,0
DA:1884,0
BRDA:1884,0,0,-
BRDA:1884,0,1,-
DA:1885,0
DA:1886,0
DA:1887,0
BRDA:1887,0,0,-
BRDA:1887,0,1,-
DA:1888,0
DA:1889,0
BRDA:1889,0,0,-
BRDA:1889,0,1,-
DA:1890,0
DA:1891,0
DA:1892,0
DA:1900,0
DA:1903,0
BRDA:1903,0,0,-
BRDA:1903,0,1,-
DA:1904,0
BRDA:1904,0,0,-
BRDA:1904,0,1,-
BRDA:1904,0,2,-
BRDA:1904,0,3,-
DA:1906,0
BRDA:1906,0,0,-
BRDA:1906,0,1,-
BRDA:1906,0,2,-
BRDA:1906,0,3,-
DA:1912,0
DA:1917,0
DA:1918,0
DA:1919,0
DA:1925,0
DA:1929,0
BRDA:1929,0,0,-
BRDA:1929,0,1,-
DA:1931,0
BRDA:1931,0,0,-
BRDA:1931,0,1,-
DA:1933,0
BRDA:1933,0,0,-
BRDA:1933,0,1,-
DA:1934,0
DA:1936,0
DA:1938,0
BRDA:1938,0,0,-
BRDA:1938,0,1,-
DA:1939,0
BRDA:1939,0,0,-
BRDA:1939,0,1,-
DA:1940,0
DA:1949,0
DA:1952,0
BRDA:1952,0,0,-
BRDA:1952,0,1,-
DA:1954,0
DA:1955,0
DA:1957,0
DA:1959,0
DA:3706,10
DA:3710,10
BRDA:3710,0,0,10
BRDA:3710,0,1,0
DA:3711,10
BRDA:3711,0,0,10
BRDA:3711,0,1,0
DA:3729,2
DA:3737,2
BRDA:3737,0,0,0
BRDA:3737,0,1,2
DA:3738,2
DA:3752,2
DA:3753,2
DA:3755,2
BRDA:3755,0,0,2
BRDA:3755,0,1,0
DA:3758,2
DA:3764,2
BRDA:3764,0,0,2
BRDA:3764,0,1,0
DA:3766,2
BRDA:3766,0,0,2
BRDA:3766,0,1,0
DA:3767,2
BRDA:3767,0,0,2
BRDA:3767,0,1,0
DA:3774,8
BRDA:3774,0,0,6
BRDA:3774,0,1,2
DA:3776,6
DA:3779,6
BRDA:3779,0,0,6
BRDA:3779,0,1,0
DA:3781,6
DA:3782,6
DA:3785,2
DA:3788,0
BRDA:3788,0,0,-
BRDA:3788,0,1,-
DA:3790,0
BRDA:3790,0,0,-
BRDA:3790,0,1,-
DA:3791,0
BRDA:3791,0,0,-
BRDA:3791,0,1,-
DA:3729,2
DA:3737,2
BRDA:3737,0,0,0
BRDA:3737,0,1,2
DA:3738,2
DA:3752,2
DA:3753,2
DA:3755,2
BRDA:3755,0,0,2
BRDA:3755,0,1,0
DA:3758,2
DA:3764,2
BRDA:3764,0,0,2
BRDA:3764,0,1,0
DA:3766,2
BRDA:3766,0,0,2
BRDA:3766,0,1,0
DA:3767,2
BRDA:3767,0,0,2
BRDA:3767,0,1,0
BRDA:3767,0,2,2
BRDA:3767,0,3,0
BRDA:3767,0,4,2
BRDA:3767,0,5,0
DA:3774,6
BRDA:3774,0,0,4
BRDA:3774,0,1,2
DA:3776,4
DA:3779,4
BRDA:3779,0,0,4
BRDA:3779,0,1,0
DA:3781,4
BRDA:3781,0,0,4
BRDA:3781,0,1,0
BRDA:3781,0,2,4
BRDA:3781,0,3,0
DA:3782,4
BRDA:3782,0,0,4
BRDA:3782,0,1,0
BRDA:3782,0,2,4
BRDA:3782,0,3,0
DA:3785,2
DA:3788,0
BRDA:3788,0,0,-
BRDA:3788,0,1,-
DA:3790,0
BRDA:3790,0,0,-
BRDA:3790,0,1,-
DA:3791,0
BRDA:3791,0,0,-
BRDA:3791,0,1,-
BRDA:3791,0,2,-
BRDA:3791,0,3,-
DA:3901,0
DA:3910,0
BRDA:3910,0,0,-
BRDA:3910,0,1,-
BRDA:3910,0,2,-
BRDA:3910,0,3,-
DA:3911,0
DA:4285,0
DA:4295,0
BRDA:4295,0,0,-
BRDA:4295,0,1,-
DA:4296,0
BRDA:4296,0,0,-
BRDA:4296,0,1,-
DA:4297,0
DA:4863,0
DA:4875,0
DA:4876,0
end_of_record
SF:/usr/include/c++/11/bits/stl_iterator_base_funcs.h
FN:98,_ZSt10__distanceIPKP9GameModelENSt15iterator_traitsIT_E15difference_typeES5_S5_St26random_access_iterator_tag
FNDA:0,_ZSt10__distanceIPKP9GameModelENSt15iterator_traitsIT_E15difference_typeES5_S5_St26random_access_iterator_tag
FN:98,_ZSt10__distanceIPK4QMapI5QChariEENSt15iterator_traitsIT_E15difference_typeES6_S6_St26random_access_iterator_tag
FNDA:0,_ZSt10__distanceIPK4QMapI5QChariEENSt15iterator_traitsIT_E15difference_typeES6_S6_St26random_access_iterator_tag
FN:98,_ZSt10__distanceIPK5QListIiEENSt15iterator_traitsIT_E15difference_typeES5_S5_St26random_access_iterator_tag
FNDA:0,_ZSt10__distanceIPK5QListIiEENSt15iterator_traitsIT_E15difference_typeES5_S5_St26random_access_iterator_tag
FN:98,_ZSt10__distanceIPKiENSt15iterator_traitsIT_E15difference_typeES3_S3_St26random_access_iterator_tag
FNDA:0,_ZSt10__distanceIPKiENSt15iterator_traitsIT_E15difference_typeES3_S3_St26random_access_iterator_tag
FN:98,_ZSt10__distanceIPKcENSt15iterator_traitsIT_E15difference_typeES3_S3_St26random_access_iterator_tag
FNDA:0,_ZSt10__distanceIPKcENSt15iterator_traitsIT_E15difference_typeES3_S3_St26random_access_iterator_tag
FN:98,_ZSt10__distanceIPK4QMapI5QChar7QStringEENSt15iterator_traitsIT_E15difference_typeES7_S7_St26random_access_iterator_tag
FNDA:0,_ZSt10__distanceIPK4QMapI5QChar7QStringEENSt15iterator_traitsIT_E15difference_typeES7_S7_St26random_access_iterator_tag
FN:98,_ZSt10__distanceIPK4QMapI5QChar5QListI7QStringEEENSt15iterator_traitsIT_E15difference_typeES9_S9_St26random_access_iterator_tag
FNDA:0,_ZSt10__distanceIPK4QMapI5QChar5QListI7QStringEEENSt15iterator_traitsIT_E15difference_typeES9_S9_St26random_access_iterator_tag
FN:98,_ZSt10__distanceIPK4QMapI7QStringS1_EENSt15iterator_traitsIT_E15difference_typeES6_S6_St26random_access_iterator_tag
FNDA:0,_ZSt10__distanceIPK4QMapI7QStringS1_EENSt15iterator_traitsIT_E15difference_typeES6_S6_St26random_access_iterator_tag
FN:98,_ZSt10__distanceIPK5QCharENSt15iterator_traitsIT_E15difference_typeES4_S4_St26random_access_iterator_tag
FNDA:0,_ZSt10__distanceIPK5QCharENSt15iterator_traitsIT_E15difference_typeES4_S4_St26random_access_iterator_tag
FN:98,_ZSt10__distanceIPK7QStringENSt15iterator_traitsIT_E15difference_typeES4_S4_St26random_access_iterator_tag
FNDA:0,_ZSt10__distanceIPK7QStringENSt15iterator_traitsIT_E15difference_typeES4_S4_St26random_access_iterator_tag
FN:138,_ZSt8distanceIPK5QListIiEENSt15iterator_traitsIT_E15difference_typeES5_S5_
FNDA:0,_ZSt8distanceIPK5QListIiEENSt15iterator_traitsIT_E15difference_typeES5_S5_
FN:138,_ZSt8distanceIPKcENSt15iterator_traitsIT_E15difference_typeES3_S3_
FNDA:0,_ZSt8distanceIPKcENSt15iterator_traitsIT_E15difference_typeES3_S3_
FN:138,_ZSt8distanceIPK7QStringENSt15iterator_traitsIT_E15difference_typeES4_S4_
FNDA:0,_ZSt8distanceIPK7QStringENSt15iterator_traitsIT_E15difference_typeES4_S4_
FN:138,_ZSt8distanceIPK4QMapI7QStringS1_EENSt15iterator_traitsIT_E15difference_typeES6_S6_
FNDA:0,_ZSt8distanceIPK4QMapI7QStringS1_EENSt15iterator_traitsIT_E15difference_typeES6_S6_
FN:138,_ZSt8distanceIPK4QMapI5QChar5QListI7QStringEEENSt15iterator_traitsIT_E15difference_typeES9_S9_
FNDA:0,_ZSt8distanceIPK4QMapI5QChar5QListI7QStringEEENSt15iterator_traitsIT_E15difference_typeES9_S9_
FN:138,_ZSt8distanceIPK4QMapI5QChar7QStringEENSt15iterator_traitsIT_E15difference_typeES7_S7_
FNDA:0,_ZSt8distanceIPK4QMapI5QChar7QStringEENSt15iterator_traitsIT_E15difference_typeES7_S7_
FN:138,_ZSt8distanceIPKiENSt15iterator_traitsIT_E15difference_typeES3_S3_
FNDA:0,_ZSt8distanceIPKiENSt15iterator_traitsIT_E15difference_typeES3_S3_
FN:138,_ZSt8distanceIPK4QMapI5QChariEENSt15iterator_traitsIT_E15difference_typeES6_S6_
FNDA:0,_ZSt8distanceIPK4QMapI5QChariEENSt15iterator_traitsIT_E15difference_typeES6_S6_
FN:138,_ZSt8distanceIPKP9GameModelENSt15iterator_traitsIT_E15difference_typeES5_S5_
FNDA:0,_ZSt8distanceIPKP9GameModelENSt15iterator_traitsIT_E15difference_typeES5_S5_
FN:138,_ZSt8distanceIPK5QCharENSt15iterator_traitsIT_E15difference_typeES4_S4_
FNDA:0,_ZSt8distanceIPK5QCharENSt15iterator_traitsIT_E15difference_typeES4_S4_
FN:174,_ZSt9__advanceIPKclEvRT_T0_St26random_access_iterator_tag
FNDA:0,_ZSt9__advanceIPKclEvRT_T0_St26random_access_iterator_tag
FN:202,_ZSt7advanceIPKclEvRT_T0_
FNDA:0,_ZSt7advanceIPKclEvRT_T0_
FN:213,_ZSt4nextIPKcET_S2_NSt15iterator_traitsIS2_E15difference_typeE
FNDA:0,_ZSt4nextIPKcET_S2_NSt15iterator_traitsIS2_E15difference_typeE
DA:98,0
DA:104,0
DA:98,0
DA:104,0
DA:98,0
DA:104,0
DA:98,0
DA:104,0
DA:98,0
DA:104,0
DA:98,0
DA:104,0
DA:98,0
DA:104,0
DA:98,0
DA:104,0
DA:98,0
DA:104,0
DA:98,0
DA:104,0
DA:138,0
DA:141,0
DA:142,0
DA:138,0
DA:141,0
DA:142,0
DA:138,0
DA:141,0
DA:142,0
DA:138,0
DA:141,0
DA:142,0
DA:138,0
DA:141,0
DA:142,0
DA:138,0
DA:141,0
DA:142,0
DA:138,0
DA:141,0
DA:142,0
DA:138,0
DA:141,0
DA:142,0
DA:138,0
DA:141,0
DA:142,0
DA:138,0
DA:141,0
DA:142,0
DA:174,0
DA:185,0
DA:186,0
DA:202,0
DA:205,0
DA:206,0
DA:207,0
DA:213,0
DA:218,0
DA:219,0
end_of_record
SF:/usr/include/c++/11/bits/stl_algobase.h
FN:152,_ZSt9iter_swapIN5QListIP9GameModelE8iteratorES4_EvT_T0_
FNDA:0,_ZSt9iter_swapIN5QListIP9GameModelE8iteratorES4_EvT_T0_
FN:152,_ZSt9iter_swapIN5QListI5QCharE8iteratorES3_EvT_T0_
FNDA:10,_ZSt9iter_swapIN5QListI5QCharE8iteratorES3_EvT_T0_
FN:152,_ZSt9iter_swapIN5QListIiE8iteratorES2_EvT_T0_
FNDA:14,_ZSt9iter_swapIN5QListIiE8iteratorES2_EvT_T0_
FN:313,_ZSt12__niter_baseISt20back_insert_iteratorI5QListIP9GameModelEEET_S6_
FNDA:0,_ZSt12__niter_baseISt20back_insert_iteratorI5QListIP9GameModelEEET_S6_
FN:313,_ZSt12__niter_baseIN5QListIP9GameModelE8iteratorEET_S5_
FNDA:0,_ZSt12__niter_baseIN5QListIP9GameModelE8iteratorEET_S5_
FN:335,_ZSt12__niter_wrapIN5QListIP9GameModelE8iteratorEET_RKS5_S5_
FNDA:0,_ZSt12__niter_wrapIN5QListIP9GameModelE8iteratorEET_RKS5_S5_
FN:335,_ZSt12__niter_wrapISt20back_insert_iteratorI5QListIP9GameModelEEET_RKS6_S6_
FNDA:0,_ZSt12__niter_wrapISt20back_insert_iteratorI5QListIP9GameModelEEET_RKS6_S6_
FN:380,_ZNSt11__copy_moveILb0ELb0ESt26random_access_iterator_tagE8__copy_mIN5QListIP9GameModelE8iteratorESt20back_insert_iteratorIS6_EEET0_T_SB_SA_
FNDA:0,_ZNSt11__copy_moveILb0ELb0ESt26random_access_iterator_tagE8__copy_mIN5QListIP9GameModelE8iteratorESt20back_insert_iteratorIS6_EEET0_T_SB_SA_
FN:486,_ZSt14__copy_move_a2ILb0EN5QListIP9GameModelE8iteratorESt20back_insert_iteratorIS3_EET1_T0_S8_S7_
FNDA:0,_ZSt14__copy_move_a2ILb0EN5QListIP9GameModelE8iteratorESt20back_insert_iteratorIS3_EET1_T0_S8_S7_
FN:521,_ZSt14__copy_move_a1ILb0EN5QListIP9GameModelE8iteratorESt20back_insert_iteratorIS3_EET1_T0_S8_S7_
FNDA:0,_ZSt14__copy_move_a1ILb0EN5QListIP9GameModelE8iteratorESt20back_insert_iteratorIS3_EET1_T0_S8_S7_
FN:527,_ZSt13__copy_move_aILb0EN5QListIP9GameModelE8iteratorESt20back_insert_iteratorIS3_EET1_T0_S8_S7_
FNDA:0,_ZSt13__copy_move_aILb0EN5QListIP9GameModelE8iteratorESt20back_insert_iteratorIS3_EET1_T0_S8_S7_
FN:611,_ZSt4copyIN5QListIP9GameModelE8iteratorESt20back_insert_iteratorIS3_EET0_T_S8_S7_
FNDA:0,_ZSt4copyIN5QListIP9GameModelE8iteratorESt20back_insert_iteratorIS3_EET0_T_S8_S7_
FN:714,_ZNSt20__copy_move_backwardILb1ELb0ESt26random_access_iterator_tagE13__copy_move_bIN5QListIP9GameModelE8iteratorES7_EET0_T_S9_S8_
FNDA:0,_ZNSt20__copy_move_backwardILb1ELb0ESt26random_access_iterator_tagE13__copy_move_bIN5QListIP9GameModelE8iteratorES7_EET0_T_S9_S8_
FN:750,_ZSt23__copy_move_backward_a2ILb1EN5QListIP9GameModelE8iteratorES4_ET1_T0_S6_S5_
FNDA:0,_ZSt23__copy_move_backward_a2ILb1EN5QListIP9GameModelE8iteratorES4_ET1_T0_S6_S5_
FN:768,_ZSt23__copy_move_backward_a1ILb1EN5QListIP9GameModelE8iteratorES4_ET1_T0_S6_S5_
FNDA:0,_ZSt23__copy_move_backward_a1ILb1EN5QListIP9GameModelE8iteratorES4_ET1_T0_S6_S5_
FN:796,_ZSt22__copy_move_backward_aILb1EN5QListIP9GameModelE8iteratorES4_ET1_T0_S6_S5_
FNDA:0,_ZSt22__copy_move_backward_aILb1EN5QListIP9GameModelE8iteratorES4_ET1_T0_S6_S5_
FN:884,_ZSt13move_backwardIN5QListIP9GameModelE8iteratorES4_ET0_T_S6_S5_
FNDA:0,_ZSt13move_backwardIN5QListIP9GameModelE8iteratorES4_ET0_T_S6_S5_
FN:1522,_ZSt4__lgx
FNDA:0,_ZSt4__lgx
FN:2061,_ZSt9__find_ifIN5QListIP9GameModelE8iteratorEN9__gnu_cxx5__ops10_Iter_predIZN6Server15socketReadyReadEvEUlPKS1_E_EEET_SD_SD_T0_St26random_access_iterator_tag
FNDA:0,_ZSt9__find_ifIN5QListIP9GameModelE8iteratorEN9__gnu_cxx5__ops10_Iter_predIZN6Server15socketReadyReadEvEUlPKS1_E_EEET_SD_SD_T0_St26random_access_iterator_tag
FN:2112,_ZSt9__find_ifIN5QListIP9GameModelE8iteratorEN9__gnu_cxx5__ops10_Iter_predIZN6Server15socketReadyReadEvEUlPKS1_E_EEET_SD_SD_T0_
FNDA:0,_ZSt9__find_ifIN5QListIP9GameModelE8iteratorEN9__gnu_cxx5__ops10_Iter_predIZN6Server15socketReadyReadEvEUlPKS1_E_EEET_SD_SD_T0_
DA:152,0
DA:182,0
DA:184,0
DA:152,14
DA:182,14
DA:184,14
DA:152,10
DA:182,10
DA:184,10
DA:313,0
DA:315,0
DA:313,0
DA:315,0
DA:335,0
DA:336,0
DA:335,0
DA:336,0
DA:380,0
DA:383,0
BRDA:383,0,0,-
BRDA:383,0,1,-
DA:385,0
DA:386,0
DA:387,0
DA:389,0
DA:486,0
DA:495,0
DA:521,0
DA:522,0
DA:527,0
DA:529,0
DA:532,0
DA:611,0
DA:620,0
DA:714,0
DA:717,0
DA:718,0
BRDA:718,0,0,-
BRDA:718,0,1,-
DA:719,0
DA:720,0
DA:750,0
DA:760,0
DA:762,0
DA:768,0
DA:769,0
DA:796,0
DA:798,0
DA:801,0
DA:884,0
DA:894,0
DA:896,0
DA:1522,0
DA:1523,0
DA:2061,0
DA:2065,0
DA:2067,0
BRDA:2067,0,0,-
BRDA:2067,0,1,-
DA:2069,0
BRDA:2069,0,0,-
BRDA:2069,0,1,-
DA:2070,0
DA:2071,0
DA:2073,0
BRDA:2073,0,0,-
BRDA:2073,0,1,-
DA:2074,0
DA:2075,0
DA:2077,0
BRDA:2077,0,0,-
BRDA:2077,0,1,-
DA:2078,0
DA:2079,0
DA:2081,0
BRDA:2081,0,0,-
BRDA:2081,0,1,-
DA:2082,0
DA:2083,0
DA:2086,0
BRDA:2086,0,0,-
BRDA:2086,0,1,-
BRDA:2086,0,2,-
BRDA:2086,0,3,-
DA:2088,0
DA:2089,0
BRDA:2089,0,0,-
BRDA:2089,0,1,-
DA:2090,0
DA:2091,0
DA:2093,0
DA:2094,0
BRDA:2094,0,0,-
BRDA:2094,0,1,-
DA:2095,0
DA:2096,0
DA:2098,0
DA:2099,0
BRDA:2099,0,0,-
BRDA:2099,0,1,-
DA:2100,0
DA:2101,0
DA:2103,0
DA:2105,0
DA:2112,0
DA:2114,0
BRDA:2114,0,0,-
BRDA:2114,0,1,-
DA:2115,0
end_of_record
SF:/usr/include/c++/11/bits/stl_map.h
FN:185,_ZNSt3mapIiiSt4lessIiESaISt4pairIKiiEEEC2Ev
FNDA:0,_ZNSt3mapIiiSt4lessIiESaISt4pairIKiiEEEC2Ev
FN:185,_ZNSt3mapI7QStringS0_St4lessIS0_ESaISt4pairIKS0_S0_EEEC2Ev
FNDA:0,_ZNSt3mapI7QStringS0_St4lessIS0_ESaISt4pairIKS0_S0_EEEC2Ev
FN:185,_ZNSt3mapI5QChar7QStringSt4lessIS0_ESaISt4pairIKS0_S1_EEEC2Ev
FNDA:0,_ZNSt3mapI5QChar7QStringSt4lessIS0_ESaISt4pairIKS0_S1_EEEC2Ev
FN:185,_ZNSt3mapI5QChar5QListI7QStringESt4lessIS0_ESaISt4pairIKS0_S3_EEEC2Ev
FNDA:0,_ZNSt3mapI5QChar5QListI7QStringESt4lessIS0_ESaISt4pairIKS0_S3_EEEC2Ev
FN:185,_ZNSt3mapI5QChariSt4lessIS0_ESaISt4pairIKS0_iEEEC2Ev
FNDA:0,_ZNSt3mapI5QChariSt4lessIS0_ESaISt4pairIKS0_iEEEC2Ev
FN:207,_ZNSt3mapI5QChariSt4lessIS0_ESaISt4pairIKS0_iEEEC2ERKS7_
FNDA:0,_ZNSt3mapI5QChariSt4lessIS0_ESaISt4pairIKS0_iEEEC2ERKS7_
FN:207,_ZNSt3mapI5QChar7QStringSt4lessIS0_ESaISt4pairIKS0_S1_EEEC2ERKS8_
FNDA:0,_ZNSt3mapI5QChar7QStringSt4lessIS0_ESaISt4pairIKS0_S1_EEEC2ERKS8_
FN:207,_ZNSt3mapI5QChar5QListI7QStringESt4lessIS0_ESaISt4pairIKS0_S3_EEEC2ERKSA_
FNDA:0,_ZNSt3mapI5QChar5QListI7QStringESt4lessIS0_ESaISt4pairIKS0_S3_EEEC2ERKSA_
FN:207,_ZNSt3mapI7QStringS0_St4lessIS0_ESaISt4pairIKS0_S0_EEEC2ERKS7_
FNDA:0,_ZNSt3mapI7QStringS0_St4lessIS0_ESaISt4pairIKS0_S0_EEEC2ERKS7_
FN:207,_ZNSt3mapIiiSt4lessIiESaISt4pairIKiiEEEC2ERKS6_
FNDA:0,_ZNSt3mapIiiSt4lessIiESaISt4pairIKiiEEEC2ERKS6_
FN:302,_ZNSt3mapIiiSt4lessIiESaISt4pairIKiiEEED2Ev
FNDA:0,_ZNSt3mapIiiSt4lessIiESaISt4pairIKiiEEED2Ev
FN:302,_ZNSt3mapI5QChariSt4lessIS0_ESaISt4pairIKS0_iEEED2Ev
FNDA:0,_ZNSt3mapI5QChariSt4lessIS0_ESaISt4pairIKS0_iEEED2Ev
FN:302,_ZNSt3mapI5QChar7QStringSt4lessIS0_ESaISt4pairIKS0_S1_EEED2Ev
FNDA:0,_ZNSt3mapI5QChar7QStringSt4lessIS0_ESaISt4pairIKS0_S1_EEED2Ev
FN:302,_ZNSt3mapI7QStringS0_St4lessIS0_ESaISt4pairIKS0_S0_EEED2Ev
FNDA:0,_ZNSt3mapI7QStringS0_St4lessIS0_ESaISt4pairIKS0_S0_EEED2Ev
FN:302,_ZNSt3mapI5QChar5QListI7QStringESt4lessIS0_ESaISt4pairIKS0_S3_EEED2Ev
FNDA:0,_ZNSt3mapI5QChar5QListI7QStringESt4lessIS0_ESaISt4pairIKS0_S3_EEED2Ev
FN:356,_ZNSt3mapI5QChar7QStringSt4lessIS0_ESaISt4pairIKS0_S1_EEE5beginEv
FNDA:2,_ZNSt3mapI5QChar7QStringSt4lessIS0_ESaISt4pairIKS0_S1_EEE5beginEv
FN:356,_ZNSt3mapI5QChariSt4lessIS0_ESaISt4pairIKS0_iEEE5beginEv
FNDA:2,_ZNSt3mapI5QChariSt4lessIS0_ESaISt4pairIKS0_iEEE5beginEv
FN:356,_ZNSt3mapI5QChar5QListI7QStringESt4lessIS0_ESaISt4pairIKS0_S3_EEE5beginEv
FNDA:2,_ZNSt3mapI5QChar5QListI7QStringESt4lessIS0_ESaISt4pairIKS0_S3_EEE5beginEv
FN:374,_ZNSt3mapIiiSt4lessIiESaISt4pairIKiiEEE3endEv
FNDA:0,_ZNSt3mapIiiSt4lessIiESaISt4pairIKiiEEE3endEv
FN:374,_ZNSt3mapI5QChariSt4lessIS0_ESaISt4pairIKS0_iEEE3endEv
FNDA:0,_ZNSt3mapI5QChariSt4lessIS0_ESaISt4pairIKS0_iEEE3endEv
FN:374,_ZNSt3mapI7QStringS0_St4lessIS0_ESaISt4pairIKS0_S0_EEE3endEv
FNDA:0,_ZNSt3mapI7QStringS0_St4lessIS0_ESaISt4pairIKS0_S0_EEE3endEv
FN:374,_ZNSt3mapI5QChar5QListI7QStringESt4lessIS0_ESaISt4pairIKS0_S3_EEE3endEv
FNDA:0,_ZNSt3mapI5QChar5QListI7QStringESt4lessIS0_ESaISt4pairIKS0_S3_EEE3endEv
FN:374,_ZNSt3mapI5QChar7QStringSt4lessIS0_ESaISt4pairIKS0_S1_EEE3endEv
FNDA:0,_ZNSt3mapI5QChar7QStringSt4lessIS0_ESaISt4pairIKS0_S1_EEE3endEv
FN:383,_ZNKSt3mapI7QStringS0_St4lessIS0_ESaISt4pairIKS0_S0_EEE3endEv
FNDA:0,_ZNKSt3mapI7QStringS0_St4lessIS0_ESaISt4pairIKS0_S0_EEE3endEv
FN:429,_ZNKSt3mapI7QStringS0_St4lessIS0_ESaISt4pairIKS0_S0_EEE6cbeginEv
FNDA:0,_ZNKSt3mapI7QStringS0_St4lessIS0_ESaISt4pairIKS0_S0_EEE6cbeginEv
FN:438,_ZNKSt3mapI7QStringS0_St4lessIS0_ESaISt4pairIKS0_S0_EEE4cendEv
FNDA:0,_ZNKSt3mapI7QStringS0_St4lessIS0_ESaISt4pairIKS0_S0_EEE4cendEv
FN:470,_ZNKSt3mapI7QStringS0_St4lessIS0_ESaISt4pairIKS0_S0_EEE4sizeEv
FNDA:0,_ZNKSt3mapI7QStringS0_St4lessIS0_ESaISt4pairIKS0_S0_EEE4sizeEv
FN:810,_ZNSt3mapI7QStringS0_St4lessIS0_ESaISt4pairIKS0_S0_EEE6insertEOS5_
FNDA:0,_ZNSt3mapI7QStringS0_St4lessIS0_ESaISt4pairIKS0_S0_EEE6insertEOS5_
FN:810,_ZNSt3mapIiiSt4lessIiESaISt4pairIKiiEEE6insertEOS4_
FNDA:0,_ZNSt3mapIiiSt4lessIiESaISt4pairIKiiEEE6insertEOS4_
FN:810,_ZNSt3mapI5QChar5QListI7QStringESt4lessIS0_ESaISt4pairIKS0_S3_EEE6insertEOS8_
FNDA:0,_ZNSt3mapI5QChar5QListI7QStringESt4lessIS0_ESaISt4pairIKS0_S3_EEE6insertEOS8_
FN:810,_ZNSt3mapI5QChar7QStringSt4lessIS0_ESaISt4pairIKS0_S1_EEE6insertEOS6_
FNDA:0,_ZNSt3mapI5QChar7QStringSt4lessIS0_ESaISt4pairIKS0_S1_EEE6insertEOS6_
FN:810,_ZNSt3mapI5QChariSt4lessIS0_ESaISt4pairIKS0_iEEE6insertEOS5_
FNDA:0,_ZNSt3mapI5QChariSt4lessIS0_ESaISt4pairIKS0_iEEE6insertEOS5_
FN:1169,_ZNSt3mapI7QStringS0_St4lessIS0_ESaISt4pairIKS0_S0_EEE4findERS4_
FNDA:0,_ZNSt3mapI7QStringS0_St4lessIS0_ESaISt4pairIKS0_S0_EEE4findERS4_
FN:1169,_ZNSt3mapI5QChar5QListI7QStringESt4lessIS0_ESaISt4pairIKS0_S3_EEE4findERS7_
FNDA:0,_ZNSt3mapI5QChar5QListI7QStringESt4lessIS0_ESaISt4pairIKS0_S3_EEE4findERS7_
FN:1169,_ZNSt3mapIiiSt4lessIiESaISt4pairIKiiEEE4findERS3_
FNDA:0,_ZNSt3mapIiiSt4lessIiESaISt4pairIKiiEEE4findERS3_
FN:1169,_ZNSt3mapI5QChar7QStringSt4lessIS0_ESaISt4pairIKS0_S1_EEE4findERS5_
FNDA:0,_ZNSt3mapI5QChar7QStringSt4lessIS0_ESaISt4pairIKS0_S1_EEE4findERS5_
FN:1169,_ZNSt3mapI5QChariSt4lessIS0_ESaISt4pairIKS0_iEEE4findERS4_
FNDA:0,_ZNSt3mapI5QChariSt4lessIS0_ESaISt4pairIKS0_iEEE4findERS4_
DA:185,0
DA:185,0
DA:185,0
DA:185,0
DA:185,0
DA:207,0
DA:207,0
DA:207,0
DA:207,0
DA:207,0
DA:302,0
DA:302,0
DA:302,0
DA:302,0
DA:302,0
DA:356,2
DA:357,2
DA:356,2
DA:357,2
DA:356,2
DA:357,2
DA:374,0
DA:375,0
DA:374,0
DA:375,0
DA:374,0
DA:375,0
DA:374,0
DA:375,0
DA:374,0
DA:375,0
DA:383,0
DA:384,0
DA:429,0
DA:430,0
DA:438,0
DA:439,0
DA:470,0
DA:471,0
DA:810,0
DA:811,0
DA:810,0
DA:811,0
DA:810,0
DA:811,0
DA:810,0
DA:811,0
DA:810,0
DA:811,0
DA:1169,0
DA:1170,0
DA:1169,0
DA:1170,0
DA:1169,0
DA:1170,0
DA:1169,0
DA:1170,0
DA:1169,0
DA:1170,0
end_of_record
SF:/home/pavle/Qt/6.6.1/gcc_64/include/QtCore/qfunctionaltools_impl.h
FN:38,_ZNR9QtPrivate6detail14StorageByValueIM6ServerFvN15QAbstractSocket11SocketStateEEvE6objectEv
FNDA:0,_ZNR9QtPrivate6detail14StorageByValueIM6ServerFvN15QAbstractSocket11SocketStateEEvE6objectEv
FN:38,_ZNR9QtPrivate6detail14StorageByValueIM6ServerFvvEvE6objectEv
FNDA:0,_ZNR9QtPrivate6detail14StorageByValueIM6ServerFvvEvE6objectEv
DA:38,0
DA:38,0
end_of_record
SF:/home/pavle/Qt/6.6.1/gcc_64/include/QtCore/qshareddata.h
FN:23,_ZN11QSharedDataC2Ev
FNDA:0,_ZN11QSharedDataC2Ev
FN:24,_ZN11QSharedDataC2ERKS_
FNDA:0,_ZN11QSharedDataC2ERKS_
DA:23,0
DA:24,0
end_of_record
SF:/usr/include/c++/11/utility
FN:183,_ZNSt10__pair_getILm0EE10__move_getIP15QTypedArrayDataI4QMapI5QChar7QStringEEPS6_EEOT_OSt4pairISA_T0_E
FNDA:0,_ZNSt10__pair_getILm0EE10__move_getIP15QTypedArrayDataI4QMapI5QChar7QStringEEPS6_EEOT_OSt4pairISA_T0_E
FN:183,_ZNSt10__pair_getILm0EE10__move_getIP15QTypedArrayDataI5QCharEPS3_EEOT_OSt4pairIS7_T0_E
FNDA:0,_ZNSt10__pair_getILm0EE10__move_getIP15QTypedArrayDataI5QCharEPS3_EEOT_OSt4pairIS7_T0_E
FN:183,_ZNSt10__pair_getILm0EE10__move_getIP15QTypedArrayDataI4QMapI7QStringS4_EEPS5_EEOT_OSt4pairIS9_T0_E
FNDA:0,_ZNSt10__pair_getILm0EE10__move_getIP15QTypedArrayDataI4QMapI7QStringS4_EEPS5_EEOT_OSt4pairIS9_T0_E
FN:183,_ZNSt10__pair_getILm0EE10__move_getIP15QTypedArrayDataIP9GameModelEPS4_EEOT_OSt4pairIS8_T0_E
FNDA:0,_ZNSt10__pair_getILm0EE10__move_getIP15QTypedArrayDataIP9GameModelEPS4_EEOT_OSt4pairIS8_T0_E
FN:183,_ZNSt10__pair_getILm0EE10__move_getIP15QTypedArrayDataI4QMapI5QChar5QListI7QStringEEEPS8_EEOT_OSt4pairISC_T0_E
FNDA:0,_ZNSt10__pair_getILm0EE10__move_getIP15QTypedArrayDataI4QMapI5QChar5QListI7QStringEEEPS8_EEOT_OSt4pairISC_T0_E
FN:183,_ZNSt10__pair_getILm0EE10__move_getIP15QTypedArrayDataI7QStringEPS3_EEOT_OSt4pairIS7_T0_E
FNDA:0,_ZNSt10__pair_getILm0EE10__move_getIP15QTypedArrayDataI7QStringEPS3_EEOT_OSt4pairIS7_T0_E
FN:183,_ZNSt10__pair_getILm0EE10__move_getIP15QTypedArrayDataI5QListIiEEPS4_EEOT_OSt4pairIS8_T0_E
FNDA:1,_ZNSt10__pair_getILm0EE10__move_getIP15QTypedArrayDataI5QListIiEEPS4_EEOT_OSt4pairIS8_T0_E
FN:183,_ZNSt10__pair_getILm0EE10__move_getIP15QTypedArrayDataI4QMapI5QChariEEPS5_EEOT_OSt4pairIS9_T0_E
FNDA:0,_ZNSt10__pair_getILm0EE10__move_getIP15QTypedArrayDataI4QMapI5QChariEEPS5_EEOT_OSt4pairIS9_T0_E
FN:183,_ZNSt10__pair_getILm0EE10__move_getIP15QTypedArrayDataIbEPbEEOT_OSt4pairIS6_T0_E
FNDA:0,_ZNSt10__pair_getILm0EE10__move_getIP15QTypedArrayDataIbEPbEEOT_OSt4pairIS6_T0_E
FN:183,_ZNSt10__pair_getILm0EE10__move_getIP15QTypedArrayDataIiEPiEEOT_OSt4pairIS6_T0_E
FNDA:0,_ZNSt10__pair_getILm0EE10__move_getIP15QTypedArrayDataIiEPiEEOT_OSt4pairIS6_T0_E
FN:207,_ZNSt10__pair_getILm1EE10__move_getIP15QTypedArrayDataI7QStringEPS3_EEOT0_OSt4pairIT_S7_E
FNDA:0,_ZNSt10__pair_getILm1EE10__move_getIP15QTypedArrayDataI7QStringEPS3_EEOT0_OSt4pairIT_S7_E
FN:207,_ZNSt10__pair_getILm1EE10__move_getIP15QTypedArrayDataIbEPbEEOT0_OSt4pairIT_S6_E
FNDA:0,_ZNSt10__pair_getILm1EE10__move_getIP15QTypedArrayDataIbEPbEEOT0_OSt4pairIT_S6_E
FN:207,_ZNSt10__pair_getILm1EE10__move_getIP15QTypedArrayDataI5QCharEPS3_EEOT0_OSt4pairIT_S7_E
FNDA:0,_ZNSt10__pair_getILm1EE10__move_getIP15QTypedArrayDataI5QCharEPS3_EEOT0_OSt4pairIT_S7_E
FN:207,_ZNSt10__pair_getILm1EE10__move_getIP15QTypedArrayDataIP9GameModelEPS4_EEOT0_OSt4pairIT_S8_E
FNDA:0,_ZNSt10__pair_getILm1EE10__move_getIP15QTypedArrayDataIP9GameModelEPS4_EEOT0_OSt4pairIT_S8_E
FN:207,_ZNSt10__pair_getILm1EE10__move_getIP15QTypedArrayDataI4QMapI7QStringS4_EEPS5_EEOT0_OSt4pairIT_S9_E
FNDA:0,_ZNSt10__pair_getILm1EE10__move_getIP15QTypedArrayDataI4QMapI7QStringS4_EEPS5_EEOT0_OSt4pairIT_S9_E
FN:207,_ZNSt10__pair_getILm1EE10__move_getIP15QTypedArrayDataI4QMapI5QChariEEPS5_EEOT0_OSt4pairIT_S9_E
FNDA:0,_ZNSt10__pair_getILm1EE10__move_getIP15QTypedArrayDataI4QMapI5QChariEEPS5_EEOT0_OSt4pairIT_S9_E
FN:207,_ZNSt10__pair_getILm1EE10__move_getIP15QTypedArrayDataI4QMapI5QChar5QListI7QStringEEEPS8_EEOT0_OSt4pairIT_SC_E
FNDA:0,_ZNSt10__pair_getILm1EE10__move_getIP15QTypedArrayDataI4QMapI5QChar5QListI7QStringEEEPS8_EEOT0_OSt4pairIT_SC_E
FN:207,_ZNSt10__pair_getILm1EE10__move_getIP15QTypedArrayDataI4QMapI5QChar7QStringEEPS6_EEOT0_OSt4pairIT_SA_E
FNDA:0,_ZNSt10__pair_getILm1EE10__move_getIP15QTypedArrayDataI4QMapI5QChar7QStringEEPS6_EEOT0_OSt4pairIT_SA_E
FN:207,_ZNSt10__pair_getILm1EE10__move_getIP15QTypedArrayDataIiEPiEEOT0_OSt4pairIT_S6_E
FNDA:0,_ZNSt10__pair_getILm1EE10__move_getIP15QTypedArrayDataIiEPiEEOT0_OSt4pairIT_S6_E
FN:207,_ZNSt10__pair_getILm1EE10__move_getIP15QTypedArrayDataI5QListIiEEPS4_EEOT0_OSt4pairIT_S8_E
FNDA:1,_ZNSt10__pair_getILm1EE10__move_getIP15QTypedArrayDataI5QListIiEEPS4_EEOT0_OSt4pairIT_S8_E
FN:228,_ZSt3getILm1EP15QTypedArrayDataIiEPiEONSt13tuple_elementIXT_ESt4pairIT0_T1_EE4typeEOS8_
FNDA:0,_ZSt3getILm1EP15QTypedArrayDataIiEPiEONSt13tuple_elementIXT_ESt4pairIT0_T1_EE4typeEOS8_
FN:228,_ZSt3getILm1EP15QTypedArrayDataI7QStringEPS1_EONSt13tuple_elementIXT_ESt4pairIT0_T1_EE4typeEOS9_
FNDA:0,_ZSt3getILm1EP15QTypedArrayDataI7QStringEPS1_EONSt13tuple_elementIXT_ESt4pairIT0_T1_EE4typeEOS9_
FN:228,_ZSt3getILm0EP15QTypedArrayDataIP9GameModelEPS2_EONSt13tuple_elementIXT_ESt4pairIT0_T1_EE4typeEOSA_
FNDA:0,_ZSt3getILm0EP15QTypedArrayDataIP9GameModelEPS2_EONSt13tuple_elementIXT_ESt4pairIT0_T1_EE4typeEOSA_
FN:228,_ZSt3getILm1EP15QTypedArrayDataIbEPbEONSt13tuple_elementIXT_ESt4pairIT0_T1_EE4typeEOS8_
FNDA:0,_ZSt3getILm1EP15QTypedArrayDataIbEPbEONSt13tuple_elementIXT_ESt4pairIT0_T1_EE4typeEOS8_
FN:228,_ZSt3getILm0EP15QTypedArrayDataIiEPiEONSt13tuple_elementIXT_ESt4pairIT0_T1_EE4typeEOS8_
FNDA:0,_ZSt3getILm0EP15QTypedArrayDataIiEPiEONSt13tuple_elementIXT_ESt4pairIT0_T1_EE4typeEOS8_
FN:228,_ZSt3getILm1EP15QTypedArrayDataIP9GameModelEPS2_EONSt13tuple_elementIXT_ESt4pairIT0_T1_EE4typeEOSA_
FNDA:0,_ZSt3getILm1EP15QTypedArrayDataIP9GameModelEPS2_EONSt13tuple_elementIXT_ESt4pairIT0_T1_EE4typeEOSA_
FN:228,_ZSt3getILm0EP15QTypedArrayDataI7QStringEPS1_EONSt13tuple_elementIXT_ESt4pairIT0_T1_EE4typeEOS9_
FNDA:0,_ZSt3getILm0EP15QTypedArrayDataI7QStringEPS1_EONSt13tuple_elementIXT_ESt4pairIT0_T1_EE4typeEOS9_
FN:228,_ZSt3getILm0EP15QTypedArrayDataI5QCharEPS1_EONSt13tuple_elementIXT_ESt4pairIT0_T1_EE4typeEOS9_
FNDA:0,_ZSt3getILm0EP15QTypedArrayDataI5QCharEPS1_EONSt13tuple_elementIXT_ESt4pairIT0_T1_EE4typeEOS9_
FN:228,_ZSt3getILm1EP15QTypedArrayDataI5QCharEPS1_EONSt13tuple_elementIXT_ESt4pairIT0_T1_EE4typeEOS9_
FNDA:0,_ZSt3getILm1EP15QTypedArrayDataI5QCharEPS1_EONSt13tuple_elementIXT_ESt4pairIT0_T1_EE4typeEOS9_
FN:228,_ZSt3getILm0EP15QTypedArrayDataI4QMapI7QStringS2_EEPS3_EONSt13tuple_elementIXT_ESt4pairIT0_T1_EE4typeEOSB_
FNDA:0,_ZSt3getILm0EP15QTypedArrayDataI4QMapI7QStringS2_EEPS3_EONSt13tuple_elementIXT_ESt4pairIT0_T1_EE4typeEOSB_
FN:228,_ZSt3getILm1EP15QTypedArrayDataI4QMapI7QStringS2_EEPS3_EONSt13tuple_elementIXT_ESt4pairIT0_T1_EE4typeEOSB_
FNDA:0,_ZSt3getILm1EP15QTypedArrayDataI4QMapI7QStringS2_EEPS3_EONSt13tuple_elementIXT_ESt4pairIT0_T1_EE4typeEOSB_
FN:228,_ZSt3getILm0EP15QTypedArrayDataI4QMapI5QChar5QListI7QStringEEEPS6_EONSt13tuple_elementIXT_ESt4pairIT0_T1_EE4typeEOSE_
FNDA:0,_ZSt3getILm0EP15QTypedArrayDataI4QMapI5QChar5QListI7QStringEEEPS6_EONSt13tuple_elementIXT_ESt4pairIT0_T1_EE4typeEOSE_
FN:228,_ZSt3getILm0EP15QTypedArrayDataIbEPbEONSt13tuple_elementIXT_ESt4pairIT0_T1_EE4typeEOS8_
FNDA:0,_ZSt3getILm0EP15QTypedArrayDataIbEPbEONSt13tuple_elementIXT_ESt4pairIT0_T1_EE4typeEOS8_
FN:228,_ZSt3getILm1EP15QTypedArrayDataI4QMapI5QChariEEPS3_EONSt13tuple_elementIXT_ESt4pairIT0_T1_EE4typeEOSB_
FNDA:0,_ZSt3getILm1EP15QTypedArrayDataI4QMapI5QChariEEPS3_EONSt13tuple_elementIXT_ESt4pairIT0_T1_EE4typeEOSB_
FN:228,_ZSt3getILm1EP15QTypedArrayDataI4QMapI5QChar5QListI7QStringEEEPS6_EONSt13tuple_elementIXT_ESt4pairIT0_T1_EE4typeEOSE_
FNDA:0,_ZSt3getILm1EP15QTypedArrayDataI4QMapI5QChar5QListI7QStringEEEPS6_EONSt13tuple_elementIXT_ESt4pairIT0_T1_EE4typeEOSE_
FN:228,_ZSt3getILm0EP15QTypedArrayDataI4QMapI5QChar7QStringEEPS4_EONSt13tuple_elementIXT_ESt4pairIT0_T1_EE4typeEOSC_
FNDA:0,_ZSt3getILm0EP15QTypedArrayDataI4QMapI5QChar7QStringEEPS4_EONSt13tuple_elementIXT_ESt4pairIT0_T1_EE4typeEOSC_
FN:228,_ZSt3getILm1EP15QTypedArrayDataI4QMapI5QChar7QStringEEPS4_EONSt13tuple_elementIXT_ESt4pairIT0_T1_EE4typeEOSC_
FNDA:0,_ZSt3getILm1EP15QTypedArrayDataI4QMapI5QChar7QStringEEPS4_EONSt13tuple_elementIXT_ESt4pairIT0_T1_EE4typeEOSC_
FN:228,_ZSt3getILm0EP15QTypedArrayDataI5QListIiEEPS2_EONSt13tuple_elementIXT_ESt4pairIT0_T1_EE4typeEOSA_
FNDA:1,_ZSt3getILm0EP15QTypedArrayDataI5QListIiEEPS2_EONSt13tuple_elementIXT_ESt4pairIT0_T1_EE4typeEOSA_
FN:228,_ZSt3getILm1EP15QTypedArrayDataI5QListIiEEPS2_EONSt13tuple_elementIXT_ESt4pairIT0_T1_EE4typeEOSA_
FNDA:1,_ZSt3getILm1EP15QTypedArrayDataI5QListIiEEPS2_EONSt13tuple_elementIXT_ESt4pairIT0_T1_EE4typeEOSA_
FN:228,_ZSt3getILm0EP15QTypedArrayDataI4QMapI5QChariEEPS3_EONSt13tuple_elementIXT_ESt4pairIT0_T1_EE4typeEOSB_
FNDA:0,_ZSt3getILm0EP15QTypedArrayDataI4QMapI5QChariEEPS3_EONSt13tuple_elementIXT_ESt4pairIT0_T1_EE4typeEOSB_
FN:291,_ZSt8exchangeIPN6QDebug6StreamEDnET_RS3_OT0_
FNDA:0,_ZSt8exchangeIPN6QDebug6StreamEDnET_RS3_OT0_
FN:291,_ZSt8exchangeIP8QMapDataISt3mapIiiSt4lessIiESaISt4pairIKiiEEEEDnET_RSB_OT0_
FNDA:2,_ZSt8exchangeIP8QMapDataISt3mapIiiSt4lessIiESaISt4pairIKiiEEEEDnET_RSB_OT0_
FN:291,_ZSt8exchangeIP8QMapDataISt3mapI7QStringS2_St4lessIS2_ESaISt4pairIKS2_S2_EEEEDnET_RSC_OT0_
FNDA:0,_ZSt8exchangeIP8QMapDataISt3mapI7QStringS2_St4lessIS2_ESaISt4pairIKS2_S2_EEEEDnET_RSC_OT0_
FN:291,_ZSt8exchangeIP8QMapDataISt3mapI5QChar5QListI7QStringESt4lessIS2_ESaISt4pairIKS2_S5_EEEEDnET_RSF_OT0_
FNDA:0,_ZSt8exchangeIP8QMapDataISt3mapI5QChar5QListI7QStringESt4lessIS2_ESaISt4pairIKS2_S5_EEEEDnET_RSF_OT0_
FN:291,_ZSt8exchangeIP8QMapDataISt3mapI5QChar7QStringSt4lessIS2_ESaISt4pairIKS2_S3_EEEEDnET_RSD_OT0_
FNDA:0,_ZSt8exchangeIP8QMapDataISt3mapI5QChar7QStringSt4lessIS2_ESaISt4pairIKS2_S3_EEEEDnET_RSD_OT0_
FN:291,_ZSt8exchangeIP8QMapDataISt3mapI5QChariSt4lessIS2_ESaISt4pairIKS2_iEEEEDnET_RSC_OT0_
FNDA:0,_ZSt8exchangeIP8QMapDataISt3mapI5QChariSt4lessIS2_ESaISt4pairIKS2_iEEEEDnET_RSC_OT0_
DA:183,0
DA:184,0
DA:183,0
DA:184,0
DA:183,1
DA:184,1
DA:183,0
DA:184,0
DA:183,0
DA:184,0
DA:183,0
DA:184,0
DA:183,0
DA:184,0
DA:183,0
DA:184,0
DA:183,0
DA:184,0
DA:183,0
DA:184,0
DA:207,0
DA:208,0
DA:207,0
DA:208,0
DA:207,1
DA:208,1
DA:207,0
DA:208,0
DA:207,0
DA:208,0
DA:207,0
DA:208,0
DA:207,0
DA:208,0
DA:207,0
DA:208,0
DA:207,0
DA:208,0
DA:207,0
DA:208,0
DA:228,0
DA:229,0
DA:228,0
DA:229,0
DA:228,0
DA:229,0
DA:228,0
DA:229,0
DA:228,0
DA:229,0
DA:228,0
DA:229,0
DA:228,0
DA:229,0
DA:228,0
DA:229,0
DA:228,0
DA:229,0
DA:228,0
DA:229,0
DA:228,0
DA:229,0
DA:228,0
DA:229,0
DA:228,0
DA:229,0
DA:228,0
DA:229,0
DA:228,0
DA:229,0
DA:228,1
DA:229,1
DA:228,1
DA:229,1
DA:228,0
DA:229,0
DA:228,0
DA:229,0
DA:228,0
DA:229,0
DA:291,0
DA:292,0
DA:291,0
DA:292,0
DA:291,0
DA:292,0
DA:291,0
DA:292,0
DA:291,2
DA:292,2
DA:291,0
DA:292,0
end_of_record
SF:/usr/include/c++/11/ext/aligned_buffer.h
FN:64,_ZN9__gnu_cxx16__aligned_membufISt4pairIKiiEE7_M_addrEv
FNDA:0,_ZN9__gnu_cxx16__aligned_membufISt4pairIKiiEE7_M_addrEv
FN:64,_ZN9__gnu_cxx16__aligned_membufISt4pairIK7QStringS2_EE7_M_addrEv
FNDA:0,_ZN9__gnu_cxx16__aligned_membufISt4pairIK7QStringS2_EE7_M_addrEv
FN:64,_ZN9__gnu_cxx16__aligned_membufISt4pairIK5QChar5QListI7QStringEEE7_M_addrEv
FNDA:0,_ZN9__gnu_cxx16__aligned_membufISt4pairIK5QChar5QListI7QStringEEE7_M_addrEv
FN:64,_ZN9__gnu_cxx16__aligned_membufISt4pairIK5QChar7QStringEE7_M_addrEv
FNDA:0,_ZN9__gnu_cxx16__aligned_membufISt4pairIK5QChar7QStringEE7_M_addrEv
FN:64,_ZN9__gnu_cxx16__aligned_membufISt4pairIK5QChariEE7_M_addrEv
FNDA:0,_ZN9__gnu_cxx16__aligned_membufISt4pairIK5QChariEE7_M_addrEv
FN:68,_ZNK9__gnu_cxx16__aligned_membufISt4pairIK5QChar7QStringEE7_M_addrEv
FNDA:0,_ZNK9__gnu_cxx16__aligned_membufISt4pairIK5QChar7QStringEE7_M_addrEv
FN:68,_ZNK9__gnu_cxx16__aligned_membufISt4pairIK7QStringS2_EE7_M_addrEv
FNDA:0,_ZNK9__gnu_cxx16__aligned_membufISt4pairIK7QStringS2_EE7_M_addrEv
FN:68,_ZNK9__gnu_cxx16__aligned_membufISt4pairIKiiEE7_M_addrEv
FNDA:0,_ZNK9__gnu_cxx16__aligned_membufISt4pairIKiiEE7_M_addrEv
FN:68,_ZNK9__gnu_cxx16__aligned_membufISt4pairIK5QChar5QListI7QStringEEE7_M_addrEv
FNDA:0,_ZNK9__gnu_cxx16__aligned_membufISt4pairIK5QChar5QListI7QStringEEE7_M_addrEv
FN:68,_ZNK9__gnu_cxx16__aligned_membufISt4pairIK5QChariEE7_M_addrEv
FNDA:0,_ZNK9__gnu_cxx16__aligned_membufISt4pairIK5QChariEE7_M_addrEv
FN:72,_ZN9__gnu_cxx16__aligned_membufISt4pairIK5QChariEE6_M_ptrEv
FNDA:0,_ZN9__gnu_cxx16__aligned_membufISt4pairIK5QChariEE6_M_ptrEv
FN:72,_ZN9__gnu_cxx16__aligned_membufISt4pairIK5QChar7QStringEE6_M_ptrEv
FNDA:0,_ZN9__gnu_cxx16__aligned_membufISt4pairIK5QChar7QStringEE6_M_ptrEv
FN:72,_ZN9__gnu_cxx16__aligned_membufISt4pairIK5QChar5QListI7QStringEEE6_M_ptrEv
FNDA:0,_ZN9__gnu_cxx16__aligned_membufISt4pairIK5QChar5QListI7QStringEEE6_M_ptrEv
FN:72,_ZN9__gnu_cxx16__aligned_membufISt4pairIK7QStringS2_EE6_M_ptrEv
FNDA:0,_ZN9__gnu_cxx16__aligned_membufISt4pairIK7QStringS2_EE6_M_ptrEv
FN:72,_ZN9__gnu_cxx16__aligned_membufISt4pairIKiiEE6_M_ptrEv
FNDA:0,_ZN9__gnu_cxx16__aligned_membufISt4pairIKiiEE6_M_ptrEv
FN:76,_ZNK9__gnu_cxx16__aligned_membufISt4pairIK5QChar7QStringEE6_M_ptrEv
FNDA:0,_ZNK9__gnu_cxx16__aligned_membufISt4pairIK5QChar7QStringEE6_M_ptrEv
FN:76,_ZNK9__gnu_cxx16__aligned_membufISt4pairIK5QChar5QListI7QStringEEE6_M_ptrEv
FNDA:0,_ZNK9__gnu_cxx16__aligned_membufISt4pairIK5QChar5QListI7QStringEEE6_M_ptrEv
FN:76,_ZNK9__gnu_cxx16__aligned_membufISt4pairIKiiEE6_M_ptrEv
FNDA:0,_ZNK9__gnu_cxx16__aligned_membufISt4pairIKiiEE6_M_ptrEv
FN:76,_ZNK9__gnu_cxx16__aligned_membufISt4pairIK7QStringS2_EE6_M_ptrEv
FNDA:0,_ZNK9__gnu_cxx16__aligned_membufISt4pairIK7QStringS2_EE6_M_ptrEv
FN:76,_ZNK9__gnu_cxx16__aligned_membufISt4pairIK5QChariEE6_M_ptrEv
FNDA:0,_ZNK9__gnu_cxx16__aligned_membufISt4pairIK5QChariEE6_M_ptrEv
DA:64,0
DA:65,0
DA:64,0
DA:65,0
DA:64,0
DA:65,0
DA:64,0
DA:65,0
DA:64,0
DA:65,0
DA:68,0
DA:69,0
DA:68,0
DA:69,0
DA:68,0
DA:69,0
DA:68,0
DA:69,0
DA:68,0
DA:69,0
DA:72,0
DA:73,0
DA:72,0
DA:73,0
DA:72,0
DA:73,0
DA:72,0
DA:73,0
DA:72,0
DA:73,0
DA:76,0
DA:77,0
DA:76,0
DA:77,0
DA:76,0
DA:77,0
DA:76,0
DA:77,0
DA:76,0
DA:77,0
end_of_record
SF:/usr/include/c++/11/bits/random.h
FN:136,_ZNSt8__detail4_ModImLm2147483647ELm16807ELm0ELb1ELb1EE6__calcEm
FNDA:14,_ZNSt8__detail4_ModImLm2147483647ELm16807ELm0ELb1ELb1EE6__calcEm
FN:136,_ZNSt8__detail4_ModImLm2147483647ELm1ELm0ELb1ELb1EE6__calcEm
FNDA:9,_ZNSt8__detail4_ModImLm2147483647ELm1ELm0ELb1ELb1EE6__calcEm
FN:147,_ZNSt8__detail5__modImLm2147483647ELm16807ELm0EEET_S1_
FNDA:14,_ZNSt8__detail5__modImLm2147483647ELm16807ELm0EEET_S1_
FN:147,_ZNSt8__detail5__modImLm2147483647ELm1ELm0EEET_S1_
FNDA:9,_ZNSt8__detail5__modImLm2147483647ELm1ELm0EEET_S1_
FN:293,_ZNSt26linear_congruential_engineImLm16807ELm0ELm2147483647EEC2Em
FNDA:3,_ZNSt26linear_congruential_engineImLm16807ELm0ELm2147483647EEC2Em
FN:358,_ZNSt26linear_congruential_engineImLm16807ELm0ELm2147483647EEclEv
FNDA:14,_ZNSt26linear_congruential_engineImLm16807ELm0ELm2147483647EEclEv
FN:1618,_ZNSt13random_deviceC2Ev
FNDA:3,_ZNSt13random_deviceC2Ev
FN:1624,_ZNSt13random_deviceD2Ev
FNDA:3,_ZNSt13random_deviceD2Ev
FN:1647,_ZNSt13random_deviceclEv
FNDA:3,_ZNSt13random_deviceclEv
DA:136,14
DA:138,14
DA:140,14
DA:141,14
DA:136,9
DA:138,9
DA:140,9
DA:141,9
DA:147,14
DA:154,14
DA:155,14
DA:147,9
DA:154,9
DA:155,9
DA:293,3
DA:294,3
DA:358,14
DA:360,14
DA:361,14
DA:1618,3
BRDA:1618,0,0,3
BRDA:1618,0,1,0
BRDA:1618,0,2,3
BRDA:1618,0,3,0
DA:1624,3
DA:1625,3
DA:1647,3
DA:1648,3
end_of_record
SF:/usr/include/c++/11/bits/move.h
FN:49,_ZSt11__addressofI5QListI7QStringEEPT_RS3_
FNDA:0,_ZSt11__addressofI5QListI7QStringEEPT_RS3_
FN:49,_ZSt11__addressofI7QStringEPT_RS1_
FNDA:0,_ZSt11__addressofI7QStringEPT_RS1_
FN:49,_ZSt11__addressofI4QMapI7QStringS1_EEPT_RS3_
FNDA:0,_ZSt11__addressofI4QMapI7QStringS1_EEPT_RS3_
FN:49,_ZSt11__addressofI5QListIiEEPT_RS2_
FNDA:0,_ZSt11__addressofI5QListIiEEPT_RS2_
FN:49,_ZSt11__addressofI4QMapI5QChariEEPT_RS3_
FNDA:0,_ZSt11__addressofI4QMapI5QChariEEPT_RS3_
FN:49,_ZSt11__addressofI4QMapI5QChar7QStringEEPT_RS4_
FNDA:0,_ZSt11__addressofI4QMapI5QChar7QStringEEPT_RS4_
FN:49,_ZSt11__addressofI4QMapI5QChar5QListI7QStringEEEPT_RS6_
FNDA:0,_ZSt11__addressofI4QMapI5QChar5QListI7QStringEEEPT_RS6_
FN:49,_ZSt11__addressofI5QListIP9GameModelEEPT_RS4_
FNDA:0,_ZSt11__addressofI5QListIP9GameModelEEPT_RS4_
FN:77,_ZSt7forwardISt17_Rb_tree_iteratorISt4pairIK5QChar5QListI7QStringEEEEOT_RNSt16remove_referenceIS9_E4typeE
FNDA:0,_ZSt7forwardISt17_Rb_tree_iteratorISt4pairIK5QChar5QListI7QStringEEEEOT_RNSt16remove_referenceIS9_E4typeE
FN:77,_ZSt7forwardISt4pairIK5QChar5QListI7QStringEEEOT_RNSt16remove_referenceIS7_E4typeE
FNDA:0,_ZSt7forwardISt4pairIK5QChar5QListI7QStringEEEOT_RNSt16remove_referenceIS7_E4typeE
FN:77,_ZSt7forwardISt4pairIK5QChar7QStringEEOT_RNSt16remove_referenceIS5_E4typeE
FNDA:0,_ZSt7forwardISt4pairIK5QChar7QStringEEOT_RNSt16remove_referenceIS5_E4typeE
FN:77,_ZSt7forwardIRP9GameModelEOT_RNSt16remove_referenceIS3_E4typeE
FNDA:0,_ZSt7forwardIRP9GameModelEOT_RNSt16remove_referenceIS3_E4typeE
FN:77,_ZSt7forwardIRK5QCharEOT_RNSt16remove_referenceIS3_E4typeE
FNDA:0,_ZSt7forwardIRK5QCharEOT_RNSt16remove_referenceIS3_E4typeE
FN:77,_ZSt7forwardIyEOT_RNSt16remove_referenceIS0_E4typeE
FNDA:40,_ZSt7forwardIyEOT_RNSt16remove_referenceIS0_E4typeE
FN:77,_ZSt7forwardISt4pairIK5QChariEEOT_RNSt16remove_referenceIS4_E4typeE
FNDA:0,_ZSt7forwardISt4pairIK5QChariEEOT_RNSt16remove_referenceIS4_E4typeE
FN:77,_ZSt7forwardISt17_Rb_tree_iteratorISt4pairIKiiEEEOT_RNSt16remove_referenceIS5_E4typeE
FNDA:0,_ZSt7forwardISt17_Rb_tree_iteratorISt4pairIKiiEEEOT_RNSt16remove_referenceIS5_E4typeE
FN:77,_ZSt7forwardIP15QTypedArrayDataI7QStringEEOT_RNSt16remove_referenceIS4_E4typeE
FNDA:0,_ZSt7forwardIP15QTypedArrayDataI7QStringEEOT_RNSt16remove_referenceIS4_E4typeE
FN:77,_ZSt7forwardIP7QStringEOT_RNSt16remove_referenceIS2_E4typeE
FNDA:0,_ZSt7forwardIP7QStringEOT_RNSt16remove_referenceIS2_E4typeE
FN:77,_ZSt7forwardISt17_Rb_tree_iteratorISt4pairIK7QStringS2_EEEOT_RNSt16remove_referenceIS6_E4typeE
FNDA:0,_ZSt7forwardISt17_Rb_tree_iteratorISt4pairIK7QStringS2_EEEOT_RNSt16remove_referenceIS6_E4typeE
FN:77,_ZSt7forwardISt4pairIKiiEEOT_RNSt16remove_referenceIS3_E4typeE
FNDA:0,_ZSt7forwardISt4pairIKiiEEOT_RNSt16remove_referenceIS3_E4typeE
FN:77,_ZSt7forwardISt17_Rb_tree_iteratorISt4pairIK5QChar7QStringEEEOT_RNSt16remove_referenceIS7_E4typeE
FNDA:0,_ZSt7forwardISt17_Rb_tree_iteratorISt4pairIK5QChar7QStringEEEOT_RNSt16remove_referenceIS7_E4typeE
FN:77,_ZSt7forwardIP15QTypedArrayDataIP9GameModelEEOT_RNSt16remove_referenceIS5_E4typeE
FNDA:0,_ZSt7forwardIP15QTypedArrayDataIP9GameModelEEOT_RNSt16remove_referenceIS5_E4typeE
FN:77,_ZSt7forwardIPP9GameModelEOT_RNSt16remove_referenceIS3_E4typeE
FNDA:0,_ZSt7forwardIPP9GameModelEOT_RNSt16remove_referenceIS3_E4typeE
FN:77,_ZSt7forwardIRK4QMapI5QChar7QStringEEOT_RNSt16remove_referenceIS6_E4typeE
FNDA:0,_ZSt7forwardIRK4QMapI5QChar7QStringEEOT_RNSt16remove_referenceIS6_E4typeE
FN:77,_ZSt7forwardIiEOT_RNSt16remove_referenceIS0_E4typeE
FNDA:0,_ZSt7forwardIiEOT_RNSt16remove_referenceIS0_E4typeE
FN:77,_ZSt7forwardIbEOT_RNSt16remove_referenceIS0_E4typeE
FNDA:0,_ZSt7forwardIbEOT_RNSt16remove_referenceIS0_E4typeE
FN:77,_ZSt7forwardIDnEOT_RNSt16remove_referenceIS0_E4typeE
FNDA:0,_ZSt7forwardIDnEOT_RNSt16remove_referenceIS0_E4typeE
FN:77,_ZSt7forwardIM6ServerFvvEEOT_RNSt16remove_referenceIS3_E4typeE
FNDA:0,_ZSt7forwardIM6ServerFvvEEOT_RNSt16remove_referenceIS3_E4typeE
FN:77,_ZSt7forwardIM6ServerFvN15QAbstractSocket11SocketStateEEEOT_RNSt16remove_referenceIS5_E4typeE
FNDA:0,_ZSt7forwardIM6ServerFvN15QAbstractSocket11SocketStateEEEOT_RNSt16remove_referenceIS5_E4typeE
FN:77,_ZSt7forwardIRK7QStringEOT_RNSt16remove_referenceIS3_E4typeE
FNDA:32,_ZSt7forwardIRK7QStringEOT_RNSt16remove_referenceIS3_E4typeE
FN:77,_ZSt7forwardI7QStringEOT_RNSt16remove_referenceIS1_E4typeE
FNDA:0,_ZSt7forwardI7QStringEOT_RNSt16remove_referenceIS1_E4typeE
FN:77,_ZSt7forwardIRK4QMapI7QStringS1_EEOT_RNSt16remove_referenceIS5_E4typeE
FNDA:0,_ZSt7forwardIRK4QMapI7QStringS1_EEOT_RNSt16remove_referenceIS5_E4typeE
FN:77,_ZSt7forwardI5QListI7QStringEEOT_RNSt16remove_referenceIS3_E4typeE
FNDA:0,_ZSt7forwardI5QListI7QStringEEOT_RNSt16remove_referenceIS3_E4typeE
FN:77,_ZSt7forwardIRK4QMapI5QChar5QListI7QStringEEEOT_RNSt16remove_referenceIS8_E4typeE
FNDA:0,_ZSt7forwardIRK4QMapI5QChar5QListI7QStringEEEOT_RNSt16remove_referenceIS8_E4typeE
FN:77,_ZSt7forwardISt4pairIK7QStringS1_EEOT_RNSt16remove_referenceIS4_E4typeE
FNDA:0,_ZSt7forwardISt4pairIK7QStringS1_EEOT_RNSt16remove_referenceIS4_E4typeE
FN:77,_ZSt7forwardIP15QTypedArrayDataI5QCharEEOT_RNSt16remove_referenceIS4_E4typeE
FNDA:0,_ZSt7forwardIP15QTypedArrayDataI5QCharEEOT_RNSt16remove_referenceIS4_E4typeE
FN:77,_ZSt7forwardIP5QCharEOT_RNSt16remove_referenceIS2_E4typeE
FNDA:0,_ZSt7forwardIP5QCharEOT_RNSt16remove_referenceIS2_E4typeE
FN:77,_ZSt7forwardIRiEOT_RNSt16remove_referenceIS1_E4typeE
FNDA:0,_ZSt7forwardIRiEOT_RNSt16remove_referenceIS1_E4typeE
FN:77,_ZSt7forwardIP15QTypedArrayDataIiEEOT_RNSt16remove_referenceIS3_E4typeE
FNDA:0,_ZSt7forwardIP15QTypedArrayDataIiEEOT_RNSt16remove_referenceIS3_E4typeE
FN:77,_ZSt7forwardIPiEOT_RNSt16remove_referenceIS1_E4typeE
FNDA:0,_ZSt7forwardIPiEOT_RNSt16remove_referenceIS1_E4typeE
FN:77,_ZSt7forwardIRK5QListIiEEOT_RNSt16remove_referenceIS4_E4typeE
FNDA:4,_ZSt7forwardIRK5QListIiEEOT_RNSt16remove_referenceIS4_E4typeE
FN:77,_ZSt7forwardIRK4QMapI5QChariEEOT_RNSt16remove_referenceIS5_E4typeE
FNDA:0,_ZSt7forwardIRK4QMapI5QChariEEOT_RNSt16remove_referenceIS5_E4typeE
FN:77,_ZSt7forwardIP15QTypedArrayDataIbEEOT_RNSt16remove_referenceIS3_E4typeE
FNDA:7776,_ZSt7forwardIP15QTypedArrayDataIbEEOT_RNSt16remove_referenceIS3_E4typeE
FN:77,_ZSt7forwardIPbEOT_RNSt16remove_referenceIS1_E4typeE
FNDA:7776,_ZSt7forwardIPbEOT_RNSt16remove_referenceIS1_E4typeE
FN:77,_ZSt7forwardIRKSt4pairIK5QChar7QStringEEOT_RNSt16remove_referenceIS7_E4typeE
FNDA:0,_ZSt7forwardIRKSt4pairIK5QChar7QStringEEOT_RNSt16remove_referenceIS7_E4typeE
FN:77,_ZSt7forwardIRKSt4pairIK5QChariEEOT_RNSt16remove_referenceIS6_E4typeE
FNDA:0,_ZSt7forwardIRKSt4pairIK5QChariEEOT_RNSt16remove_referenceIS6_E4typeE
FN:77,_ZSt7forwardIP15QTypedArrayDataI4QMapI5QChar7QStringEEEOT_RNSt16remove_referenceIS7_E4typeE
FNDA:0,_ZSt7forwardIP15QTypedArrayDataI4QMapI5QChar7QStringEEEOT_RNSt16remove_referenceIS7_E4typeE
FN:77,_ZSt7forwardIP4QMapI5QChar7QStringEEOT_RNSt16remove_referenceIS5_E4typeE
FNDA:0,_ZSt7forwardIP4QMapI5QChar7QStringEEOT_RNSt16remove_referenceIS5_E4typeE
FN:77,_ZSt7forwardIRPSt13_Rb_tree_nodeISt4pairIK5QChar7QStringEEEOT_RNSt16remove_referenceIS9_E4typeE
FNDA:0,_ZSt7forwardIRPSt13_Rb_tree_nodeISt4pairIK5QChar7QStringEEEOT_RNSt16remove_referenceIS9_E4typeE
FN:77,_ZSt7forwardIP4QMapI5QChariEEOT_RNSt16remove_referenceIS4_E4typeE
FNDA:0,_ZSt7forwardIP4QMapI5QChariEEOT_RNSt16remove_referenceIS4_E4typeE
FN:77,_ZSt7forwardIP4QMapI5QChar5QListI7QStringEEEOT_RNSt16remove_referenceIS7_E4typeE
FNDA:0,_ZSt7forwardIP4QMapI5QChar5QListI7QStringEEEOT_RNSt16remove_referenceIS7_E4typeE
FN:77,_ZSt7forwardIP15QTypedArrayDataI4QMapI5QChariEEEOT_RNSt16remove_referenceIS6_E4typeE
FNDA:0,_ZSt7forwardIP15QTypedArrayDataI4QMapI5QChariEEEOT_RNSt16remove_referenceIS6_E4typeE
FN:77,_ZSt7forwardIP15QTypedArrayDataI4QMapI5QChar5QListI7QStringEEEEOT_RNSt16remove_referenceIS9_E4typeE
FNDA:0,_ZSt7forwardIP15QTypedArrayDataI4QMapI5QChar5QListI7QStringEEEEOT_RNSt16remove_referenceIS9_E4typeE
FN:77,_ZSt7forwardIRPSt13_Rb_tree_nodeISt4pairIK5QChar5QListI7QStringEEEEOT_RNSt16remove_referenceISB_E4typeE
FNDA:0,_ZSt7forwardIRPSt13_Rb_tree_nodeISt4pairIK5QChar5QListI7QStringEEEEOT_RNSt16remove_referenceISB_E4typeE
FN:77,_ZSt7forwardIP15QTypedArrayDataI5QListIiEEEOT_RNSt16remove_referenceIS5_E4typeE
FNDA:4,_ZSt7forwardIP15QTypedArrayDataI5QListIiEEEOT_RNSt16remove_referenceIS5_E4typeE
FN:77,_ZSt7forwardIRKSt4pairIKiiEEOT_RNSt16remove_referenceIS5_E4typeE
FNDA:0,_ZSt7forwardIRKSt4pairIKiiEEOT_RNSt16remove_referenceIS5_E4typeE
FN:77,_ZSt7forwardIP5QListIiEEOT_RNSt16remove_referenceIS3_E4typeE
FNDA:4,_ZSt7forwardIP5QListIiEEOT_RNSt16remove_referenceIS3_E4typeE
FN:77,_ZSt7forwardIRKSt4pairIK5QChar5QListI7QStringEEEOT_RNSt16remove_referenceIS9_E4typeE
FNDA:0,_ZSt7forwardIRKSt4pairIK5QChar5QListI7QStringEEEOT_RNSt16remove_referenceIS9_E4typeE
FN:77,_ZSt7forwardIP4QMapI7QStringS1_EEOT_RNSt16remove_referenceIS4_E4typeE
FNDA:0,_ZSt7forwardIP4QMapI7QStringS1_EEOT_RNSt16remove_referenceIS4_E4typeE
FN:77,_ZSt7forwardIRKSt4pairIK7QStringS1_EEOT_RNSt16remove_referenceIS6_E4typeE
FNDA:0,_ZSt7forwardIRKSt4pairIK7QStringS1_EEOT_RNSt16remove_referenceIS6_E4typeE
FN:77,_ZSt7forwardIP15QTypedArrayDataI4QMapI7QStringS2_EEEOT_RNSt16remove_referenceIS6_E4typeE
FNDA:0,_ZSt7forwardIP15QTypedArrayDataI4QMapI7QStringS2_EEEOT_RNSt16remove_referenceIS6_E4typeE
FN:77,_ZSt7forwardISt17_Rb_tree_iteratorISt4pairIK5QChariEEEOT_RNSt16remove_referenceIS6_E4typeE
FNDA:0,_ZSt7forwardISt17_Rb_tree_iteratorISt4pairIK5QChariEEEOT_RNSt16remove_referenceIS6_E4typeE
FN:77,_ZSt7forwardIRPSt13_Rb_tree_nodeISt4pairIK5QChariEEEOT_RNSt16remove_referenceIS8_E4typeE
FNDA:0,_ZSt7forwardIRPSt13_Rb_tree_nodeISt4pairIK5QChariEEEOT_RNSt16remove_referenceIS8_E4typeE
FN:77,_ZSt7forwardIRPSt13_Rb_tree_nodeISt4pairIK7QStringS2_EEEOT_RNSt16remove_referenceIS8_E4typeE
FNDA:0,_ZSt7forwardIRPSt13_Rb_tree_nodeISt4pairIK7QStringS2_EEEOT_RNSt16remove_referenceIS8_E4typeE
FN:77,_ZSt7forwardIRPSt18_Rb_tree_node_baseEOT_RNSt16remove_referenceIS3_E4typeE
FNDA:0,_ZSt7forwardIRPSt18_Rb_tree_node_baseEOT_RNSt16remove_referenceIS3_E4typeE
FN:77,_ZSt7forwardIRPSt13_Rb_tree_nodeISt4pairIKiiEEEOT_RNSt16remove_referenceIS7_E4typeE
FNDA:0,_ZSt7forwardIRPSt13_Rb_tree_nodeISt4pairIKiiEEEOT_RNSt16remove_referenceIS7_E4typeE
FN:104,_ZSt4moveIRZN6Server15socketReadyReadEvEUlPK9GameModelE_EONSt16remove_referenceIT_E4typeEOS7_
FNDA:0,_ZSt4moveIRZN6Server15socketReadyReadEvEUlPK9GameModelE_EONSt16remove_referenceIT_E4typeEOS7_
FN:104,_ZSt4moveIRSt4pairIP15QTypedArrayDataIbEPbEEONSt16remove_referenceIT_E4typeEOS8_
FNDA:0,_ZSt4moveIRSt4pairIP15QTypedArrayDataIbEPbEEONSt16remove_referenceIT_E4typeEOS8_
FN:104,_ZSt4moveIRSt4pairIKiiEEONSt16remove_referenceIT_E4typeEOS5_
FNDA:0,_ZSt4moveIRSt4pairIKiiEEONSt16remove_referenceIT_E4typeEOS5_
FN:104,_ZSt4moveIRSt4pairIK7QStringS1_EEONSt16remove_referenceIT_E4typeEOS6_
FNDA:0,_ZSt4moveIRSt4pairIK7QStringS1_EEONSt16remove_referenceIT_E4typeEOS6_
FN:104,_ZSt4moveIRP8QMapDataISt3mapI5QChariSt4lessIS2_ESaISt4pairIKS2_iEEEEEONSt16remove_referenceIT_E4typeEOSE_
FNDA:0,_ZSt4moveIRP8QMapDataISt3mapI5QChariSt4lessIS2_ESaISt4pairIKS2_iEEEEEONSt16remove_referenceIT_E4typeEOSE_
FN:104,_ZSt4moveIRP9GameModelEONSt16remove_referenceIT_E4typeEOS4_
FNDA:0,_ZSt4moveIRP9GameModelEONSt16remove_referenceIT_E4typeEOS4_
FN:104,_ZSt4moveIRSt4pairIK5QChar5QListI7QStringEEEONSt16remove_referenceIT_E4typeEOS9_
FNDA:0,_ZSt4moveIRSt4pairIK5QChar5QListI7QStringEEEONSt16remove_referenceIT_E4typeEOS9_
FN:104,_ZSt4moveIRSt4pairIK5QChar7QStringEEONSt16remove_referenceIT_E4typeEOS7_
FNDA:0,_ZSt4moveIRSt4pairIK5QChar7QStringEEONSt16remove_referenceIT_E4typeEOS7_
FN:104,_ZSt4moveIRSt4pairIP15QTypedArrayDataI4QMapI5QChariEEPS4_EEONSt16remove_referenceIT_E4typeEOSB_
FNDA:0,_ZSt4moveIRSt4pairIP15QTypedArrayDataI4QMapI5QChariEEPS4_EEONSt16remove_referenceIT_E4typeEOSB_
FN:104,_ZSt4moveIRM6ServerFvN15QAbstractSocket11SocketStateEEEONSt16remove_referenceIT_E4typeEOS7_
FNDA:0,_ZSt4moveIRM6ServerFvN15QAbstractSocket11SocketStateEEEONSt16remove_referenceIT_E4typeEOS7_
FN:104,_ZSt4moveIRM6ServerFvvEEONSt16remove_referenceIT_E4typeEOS5_
FNDA:0,_ZSt4moveIRM6ServerFvvEEONSt16remove_referenceIT_E4typeEOS5_
FN:104,_ZSt4moveIR17QArrayDataPointerIiEEONSt16remove_referenceIT_E4typeEOS4_
FNDA:0,_ZSt4moveIR17QArrayDataPointerIiEEONSt16remove_referenceIT_E4typeEOS4_
FN:104,_ZSt4moveIR17QArrayDataPointerI4QMapI5QChariEEEONSt16remove_referenceIT_E4typeEOS7_
FNDA:0,_ZSt4moveIR17QArrayDataPointerI4QMapI5QChariEEEONSt16remove_referenceIT_E4typeEOS7_
FN:104,_ZSt4moveIR17QArrayDataPointerI5QListIiEEEONSt16remove_referenceIT_E4typeEOS6_
FNDA:1,_ZSt4moveIR17QArrayDataPointerI5QListIiEEEONSt16remove_referenceIT_E4typeEOS6_
FN:104,_ZSt4moveIR17QArrayDataPointerI5QCharEEONSt16remove_referenceIT_E4typeEOS5_
FNDA:0,_ZSt4moveIR17QArrayDataPointerI5QCharEEONSt16remove_referenceIT_E4typeEOS5_
FN:104,_ZSt4moveIR17QArrayDataPointerI4QMapI5QChar7QStringEEEONSt16remove_referenceIT_E4typeEOS8_
FNDA:0,_ZSt4moveIR17QArrayDataPointerI4QMapI5QChar7QStringEEEONSt16remove_referenceIT_E4typeEOS8_
FN:104,_ZSt4moveIR17QArrayDataPointerI4QMapI5QChar5QListI7QStringEEEEONSt16remove_referenceIT_E4typeEOSA_
FNDA:0,_ZSt4moveIR17QArrayDataPointerI4QMapI5QChar5QListI7QStringEEEEONSt16remove_referenceIT_E4typeEOSA_
FN:104,_ZSt4moveIR17QArrayDataPointerI4QMapI7QStringS2_EEEONSt16remove_referenceIT_E4typeEOS7_
FNDA:0,_ZSt4moveIR17QArrayDataPointerI4QMapI7QStringS2_EEEONSt16remove_referenceIT_E4typeEOS7_
FN:104,_ZSt4moveIR17QArrayDataPointerI7QStringEEONSt16remove_referenceIT_E4typeEOS5_
FNDA:0,_ZSt4moveIR17QArrayDataPointerI7QStringEEONSt16remove_referenceIT_E4typeEOS5_
FN:104,_ZSt4moveIRN9QtPrivate30QExplicitlySharedDataPointerV2I8QMapDataISt3mapIiiSt4lessIiESaISt4pairIKiiEEEEEEEONSt16remove_referenceIT_E4typeEOSF_
FNDA:2,_ZSt4moveIRN9QtPrivate30QExplicitlySharedDataPointerV2I8QMapDataISt3mapIiiSt4lessIiESaISt4pairIKiiEEEEEEEONSt16remove_referenceIT_E4typeEOSF_
FN:104,_ZSt4moveIRPN6QDebug6StreamEEONSt16remove_referenceIT_E4typeEOS5_
FNDA:0,_ZSt4moveIRPN6QDebug6StreamEEONSt16remove_referenceIT_E4typeEOS5_
FN:104,_ZSt4moveIRxEONSt16remove_referenceIT_E4typeEOS2_
FNDA:0,_ZSt4moveIRxEONSt16remove_referenceIT_E4typeEOS2_
FN:104,_ZSt4moveIR7QStringEONSt16remove_referenceIT_E4typeEOS3_
FNDA:0,_ZSt4moveIR7QStringEONSt16remove_referenceIT_E4typeEOS3_
FN:104,_ZSt4moveIRP8QMapDataISt3mapI5QChar5QListI7QStringESt4lessIS2_ESaISt4pairIKS2_S5_EEEEEONSt16remove_referenceIT_E4typeEOSH_
FNDA:0,_ZSt4moveIRP8QMapDataISt3mapI5QChar5QListI7QStringESt4lessIS2_ESaISt4pairIKS2_S5_EEEEEONSt16remove_referenceIT_E4typeEOSH_
FN:104,_ZSt4moveIRSt4pairIP15QTypedArrayDataI5QCharEPS2_EEONSt16remove_referenceIT_E4typeEOS9_
FNDA:0,_ZSt4moveIRSt4pairIP15QTypedArrayDataI5QCharEPS2_EEONSt16remove_referenceIT_E4typeEOS9_
FN:104,_ZSt4moveIRSt4pairIP15QTypedArrayDataIP9GameModelEPS3_EEONSt16remove_referenceIT_E4typeEOSA_
FNDA:0,_ZSt4moveIRSt4pairIP15QTypedArrayDataIP9GameModelEPS3_EEONSt16remove_referenceIT_E4typeEOSA_
FN:104,_ZSt4moveIRSt4pairIP15QTypedArrayDataI4QMapI7QStringS3_EEPS4_EEONSt16remove_referenceIT_E4typeEOSB_
FNDA:0,_ZSt4moveIRSt4pairIP15QTypedArrayDataI4QMapI7QStringS3_EEPS4_EEONSt16remove_referenceIT_E4typeEOSB_
FN:104,_ZSt4moveIRSt4pairIP15QTypedArrayDataI7QStringEPS2_EEONSt16remove_referenceIT_E4typeEOS9_
FNDA:0,_ZSt4moveIRSt4pairIP15QTypedArrayDataI7QStringEPS2_EEONSt16remove_referenceIT_E4typeEOS9_
FN:104,_ZSt4moveIRSt4pairIP15QTypedArrayDataIiEPiEEONSt16remove_referenceIT_E4typeEOS8_
FNDA:0,_ZSt4moveIRSt4pairIP15QTypedArrayDataIiEPiEEONSt16remove_referenceIT_E4typeEOS8_
FN:104,_ZSt4moveIRP8QMapDataISt3mapI7QStringS2_St4lessIS2_ESaISt4pairIKS2_S2_EEEEEONSt16remove_referenceIT_E4typeEOSE_
FNDA:0,_ZSt4moveIRP8QMapDataISt3mapI7QStringS2_St4lessIS2_ESaISt4pairIKS2_S2_EEEEEONSt16remove_referenceIT_E4typeEOSE_
FN:104,_ZSt4moveIR4QMapI5QChariEEONSt16remove_referenceIT_E4typeEOS5_
FNDA:0,_ZSt4moveIR4QMapI5QChariEEONSt16remove_referenceIT_E4typeEOS5_
FN:104,_ZSt4moveIR5QListIiEEONSt16remove_referenceIT_E4typeEOS4_
FNDA:2,_ZSt4moveIR5QListIiEEONSt16remove_referenceIT_E4typeEOS4_
FN:104,_ZSt4moveIRSt4pairIP15QTypedArrayDataI4QMapI5QChar5QListI7QStringEEEPS7_EEONSt16remove_referenceIT_E4typeEOSE_
FNDA:0,_ZSt4moveIRSt4pairIP15QTypedArrayDataI4QMapI5QChar5QListI7QStringEEEPS7_EEONSt16remove_referenceIT_E4typeEOSE_
FN:104,_ZSt4moveIR4QMapI5QChar7QStringEEONSt16remove_referenceIT_E4typeEOS6_
FNDA:0,_ZSt4moveIR4QMapI5QChar7QStringEEONSt16remove_referenceIT_E4typeEOS6_
FN:104,_ZSt4moveIR4QMapI5QChar5QListI7QStringEEEONSt16remove_referenceIT_E4typeEOS8_
FNDA:0,_ZSt4moveIR4QMapI5QChar5QListI7QStringEEEONSt16remove_referenceIT_E4typeEOS8_
FN:104,_ZSt4moveIRZN6Server15socketReadyReadEvEUlPK9GameModelS3_E0_EONSt16remove_referenceIT_E4typeEOS7_
FNDA:0,_ZSt4moveIRZN6Server15socketReadyReadEvEUlPK9GameModelS3_E0_EONSt16remove_referenceIT_E4typeEOS7_
FN:104,_ZSt4moveIR4QMapI7QStringS1_EEONSt16remove_referenceIT_E4typeEOS5_
FNDA:0,_ZSt4moveIR4QMapI7QStringS1_EEONSt16remove_referenceIT_E4typeEOS5_
FN:104,_ZSt4moveIR5QCharEONSt16remove_referenceIT_E4typeEOS3_
FNDA:30,_ZSt4moveIR5QCharEONSt16remove_referenceIT_E4typeEOS3_
FN:104,_ZSt4moveIRP8QMapDataISt3mapIiiSt4lessIiESaISt4pairIKiiEEEEEONSt16remove_referenceIT_E4typeEOSD_
FNDA:2,_ZSt4moveIRP8QMapDataISt3mapIiiSt4lessIiESaISt4pairIKiiEEEEEONSt16remove_referenceIT_E4typeEOSD_
FN:104,_ZSt4moveIRSt4pairIP15QTypedArrayDataI4QMapI5QChar7QStringEEPS5_EEONSt16remove_referenceIT_E4typeEOSC_
FNDA:0,_ZSt4moveIRSt4pairIP15QTypedArrayDataI4QMapI5QChar7QStringEEPS5_EEONSt16remove_referenceIT_E4typeEOSC_
FN:104,_ZSt4moveIRSt4pairIK5QChariEEONSt16remove_referenceIT_E4typeEOS6_
FNDA:0,_ZSt4moveIRSt4pairIK5QChariEEONSt16remove_referenceIT_E4typeEOS6_
FN:104,_ZSt4moveIRP8QMapDataISt3mapI5QChar7QStringSt4lessIS2_ESaISt4pairIKS2_S3_EEEEEONSt16remove_referenceIT_E4typeEOSF_
FNDA:0,_ZSt4moveIRP8QMapDataISt3mapI5QChar7QStringSt4lessIS2_ESaISt4pairIKS2_S3_EEEEEONSt16remove_referenceIT_E4typeEOSF_
FN:104,_ZSt4moveIRSt4pairIP15QTypedArrayDataI5QListIiEEPS3_EEONSt16remove_referenceIT_E4typeEOSA_
FNDA:2,_ZSt4moveIRSt4pairIP15QTypedArrayDataI5QListIiEEPS3_EEONSt16remove_referenceIT_E4typeEOSA_
FN:104,_ZSt4moveIRN9__gnu_cxx5__ops15_Iter_comp_iterIZN6Server15socketReadyReadEvEUlPK9GameModelS6_E0_EEEONSt16remove_referenceIT_E4typeEOSB_
FNDA:0,_ZSt4moveIRN9__gnu_cxx5__ops15_Iter_comp_iterIZN6Server15socketReadyReadEvEUlPK9GameModelS6_E0_EEEONSt16remove_referenceIT_E4typeEOSB_
FN:104,_ZSt4moveIRiEONSt16remove_referenceIT_E4typeEOS2_
FNDA:0,_ZSt4moveIRiEONSt16remove_referenceIT_E4typeEOS2_
FN:157,_ZSt10__exchangeIP8QMapDataISt3mapIiiSt4lessIiESaISt4pairIKiiEEEEDnET_RSB_OT0_
FNDA:2,_ZSt10__exchangeIP8QMapDataISt3mapIiiSt4lessIiESaISt4pairIKiiEEEEDnET_RSB_OT0_
FN:157,_ZSt10__exchangeIP8QMapDataISt3mapI5QChar7QStringSt4lessIS2_ESaISt4pairIKS2_S3_EEEEDnET_RSD_OT0_
FNDA:0,_ZSt10__exchangeIP8QMapDataISt3mapI5QChar7QStringSt4lessIS2_ESaISt4pairIKS2_S3_EEEEDnET_RSD_OT0_
FN:157,_ZSt10__exchangeIPN6QDebug6StreamEDnET_RS3_OT0_
FNDA:0,_ZSt10__exchangeIPN6QDebug6StreamEDnET_RS3_OT0_
FN:157,_ZSt10__exchangeIP8QMapDataISt3mapI7QStringS2_St4lessIS2_ESaISt4pairIKS2_S2_EEEEDnET_RSC_OT0_
FNDA:0,_ZSt10__exchangeIP8QMapDataISt3mapI7QStringS2_St4lessIS2_ESaISt4pairIKS2_S2_EEEEDnET_RSC_OT0_
FN:157,_ZSt10__exchangeIP8QMapDataISt3mapI5QChariSt4lessIS2_ESaISt4pairIKS2_iEEEEDnET_RSC_OT0_
FNDA:0,_ZSt10__exchangeIP8QMapDataISt3mapI5QChariSt4lessIS2_ESaISt4pairIKS2_iEEEEDnET_RSC_OT0_
FN:157,_ZSt10__exchangeIP8QMapDataISt3mapI5QChar5QListI7QStringESt4lessIS2_ESaISt4pairIKS2_S5_EEEEDnET_RSF_OT0_
FNDA:0,_ZSt10__exchangeIP8QMapDataISt3mapI5QChar5QListI7QStringESt4lessIS2_ESaISt4pairIKS2_S5_EEEEDnET_RSF_OT0_
FN:196,_ZSt4swapIiENSt9enable_ifIXsrSt6__and_IJSt6__not_ISt15__is_tuple_likeIT_EESt21is_move_constructibleIS4_ESt18is_move_assignableIS4_EEE5valueEvE4typeERS4_SE_
FNDA:14,_ZSt4swapIiENSt9enable_ifIXsrSt6__and_IJSt6__not_ISt15__is_tuple_likeIT_EESt21is_move_constructibleIS4_ESt18is_move_assignableIS4_EEE5valueEvE4typeERS4_SE_
FN:196,_ZSt4swapIP9GameModelENSt9enable_ifIXsrSt6__and_IJSt6__not_ISt15__is_tuple_likeIT_EESt21is_move_constructibleIS6_ESt18is_move_assignableIS6_EEE5valueEvE4typeERS6_SG_
FNDA:0,_ZSt4swapIP9GameModelENSt9enable_ifIXsrSt6__and_IJSt6__not_ISt15__is_tuple_likeIT_EESt21is_move_constructibleIS6_ESt18is_move_assignableIS6_EEE5valueEvE4typeERS6_SG_
FN:196,_ZSt4swapIxENSt9enable_ifIXsrSt6__and_IJSt6__not_ISt15__is_tuple_likeIT_EESt21is_move_constructibleIS4_ESt18is_move_assignableIS4_EEE5valueEvE4typeERS4_SE_
FNDA:0,_ZSt4swapIxENSt9enable_ifIXsrSt6__and_IJSt6__not_ISt15__is_tuple_likeIT_EESt21is_move_constructibleIS4_ESt18is_move_assignableIS4_EEE5valueEvE4typeERS4_SE_
FN:196,_ZSt4swapI5QCharENSt9enable_ifIXsrSt6__and_IJSt6__not_ISt15__is_tuple_likeIT_EESt21is_move_constructibleIS5_ESt18is_move_assignableIS5_EEE5valueEvE4typeERS5_SF_
FNDA:10,_ZSt4swapI5QCharENSt9enable_ifIXsrSt6__and_IJSt6__not_ISt15__is_tuple_likeIT_EESt21is_move_constructibleIS5_ESt18is_move_assignableIS5_EEE5valueEvE4typeERS5_SF_
DA:49,0
DA:50,0
DA:49,0
DA:50,0
DA:49,0
DA:50,0
DA:49,0
DA:50,0
DA:49,0
DA:50,0
DA:49,0
DA:50,0
DA:49,0
DA:50,0
DA:49,0
DA:50,0
DA:77,0
DA:78,0
DA:77,0
DA:78,0
DA:77,40
DA:78,40
DA:77,0
DA:78,0
DA:77,0
DA:78,0
DA:77,0
DA:78,0
DA:77,0
DA:78,0
DA:77,0
DA:78,0
DA:77,0
DA:78,0
DA:77,7776
DA:78,7776
DA:77,7776
DA:78,7776
DA:77,0
DA:78,0
DA:77,4
DA:78,4
DA:77,0
DA:78,0
DA:77,0
DA:78,0
DA:77,0
DA:78,0
DA:77,0
DA:78,0
DA:77,0
DA:78,0
DA:77,0
DA:78,0
DA:77,0
DA:78,0
DA:77,0
DA:78,0
DA:77,0
DA:78,0
DA:77,0
DA:78,0
DA:77,32
DA:78,32
DA:77,0
DA:78,0
DA:77,0
DA:78,0
DA:77,0
DA:78,0
DA:77,0
DA:78,0
DA:77,0
DA:78,0
DA:77,0
DA:78,0
DA:77,0
DA:78,0
DA:77,0
DA:78,0
DA:77,0
DA:78,0
DA:77,0
DA:78,0
DA:77,0
DA:78,0
DA:77,0
DA:78,0
DA:77,0
DA:78,0
DA:77,4
DA:78,4
DA:77,4
DA:78,4
DA:77,0
DA:78,0
DA:77,0
DA:78,0
DA:77,0
DA:78,0
DA:77,0
DA:78,0
DA:77,0
DA:78,0
DA:77,0
DA:78,0
DA:77,0
DA:78,0
DA:77,0
DA:78,0
DA:77,0
DA:78,0
DA:77,0
DA:78,0
DA:77,0
DA:78,0
DA:77,0
DA:78,0
DA:77,0
DA:78,0
DA:77,0
DA:78,0
DA:77,0
DA:78,0
DA:77,0
DA:78,0
DA:77,0
DA:78,0
DA:77,0
DA:78,0
DA:77,0
DA:78,0
DA:104,0
DA:105,0
DA:104,0
DA:105,0
DA:104,30
DA:105,30
DA:104,0
DA:105,0
DA:104,0
DA:105,0
DA:104,0
DA:105,0
DA:104,0
DA:105,0
DA:104,0
DA:105,0
DA:104,0
DA:105,0
DA:104,0
DA:105,0
DA:104,0
DA:105,0
DA:104,0
DA:105,0
DA:104,0
DA:105,0
DA:104,1
DA:105,1
DA:104,0
DA:105,0
DA:104,0
DA:105,0
DA:104,0
DA:105,0
DA:104,0
DA:105,0
DA:104,0
DA:105,0
DA:104,2
DA:105,2
DA:104,0
DA:105,0
DA:104,0
DA:105,0
DA:104,0
DA:105,0
DA:104,0
DA:105,0
DA:104,0
DA:105,0
DA:104,0
DA:105,0
DA:104,2
DA:105,2
DA:104,0
DA:105,0
DA:104,0
DA:105,0
DA:104,0
DA:105,0
DA:104,0
DA:105,0
DA:104,0
DA:105,0
DA:104,0
DA:105,0
DA:104,0
DA:105,0
DA:104,0
DA:105,0
DA:104,0
DA:105,0
DA:104,0
DA:105,0
DA:104,0
DA:105,0
DA:104,0
DA:105,0
DA:104,0
DA:105,0
DA:104,2
DA:105,2
DA:104,0
DA:105,0
DA:104,0
DA:105,0
DA:104,0
DA:105,0
DA:104,2
DA:105,2
DA:157,0
DA:159,0
DA:160,0
DA:161,0
DA:157,0
DA:159,0
DA:160,0
DA:161,0
DA:157,0
DA:159,0
DA:160,0
DA:161,0
DA:157,0
DA:159,0
DA:160,0
DA:161,0
DA:157,2
DA:159,2
DA:160,2
DA:161,2
DA:157,0
DA:159,0
DA:160,0
DA:161,0
DA:196,0
DA:204,0
DA:205,0
DA:206,0
DA:207,0
DA:196,14
DA:204,14
DA:205,14
DA:206,14
DA:207,14
DA:196,10
DA:204,10
DA:205,10
DA:206,10
DA:207,10
DA:196,0
DA:204,0
DA:205,0
DA:206,0
DA:207,0
end_of_record
SF:/usr/include/c++/11/ext/alloc_traits.h
FN:97,_ZN9__gnu_cxx14__alloc_traitsISaISt13_Rb_tree_nodeISt4pairIK5QChariEEES6_E17_S_select_on_copyERKS7_
FNDA:0,_ZN9__gnu_cxx14__alloc_traitsISaISt13_Rb_tree_nodeISt4pairIK5QChariEEES6_E17_S_select_on_copyERKS7_
FN:97,_ZN9__gnu_cxx14__alloc_traitsISaISt13_Rb_tree_nodeISt4pairIK5QChar7QStringEEES7_E17_S_select_on_copyERKS8_
FNDA:0,_ZN9__gnu_cxx14__alloc_traitsISaISt13_Rb_tree_nodeISt4pairIK5QChar7QStringEEES7_E17_S_select_on_copyERKS8_
FN:97,_ZN9__gnu_cxx14__alloc_traitsISaISt13_Rb_tree_nodeISt4pairIK5QChar5QListI7QStringEEEES9_E17_S_select_on_copyERKSA_
FNDA:0,_ZN9__gnu_cxx14__alloc_traitsISaISt13_Rb_tree_nodeISt4pairIK5QChar5QListI7QStringEEEES9_E17_S_select_on_copyERKSA_
FN:97,_ZN9__gnu_cxx14__alloc_traitsISaISt13_Rb_tree_nodeISt4pairIK7QStringS3_EEES6_E17_S_select_on_copyERKS7_
FNDA:0,_ZN9__gnu_cxx14__alloc_traitsISaISt13_Rb_tree_nodeISt4pairIK7QStringS3_EEES6_E17_S_select_on_copyERKS7_
FN:97,_ZN9__gnu_cxx14__alloc_traitsISaISt13_Rb_tree_nodeISt4pairIKiiEEES5_E17_S_select_on_copyERKS6_
FNDA:0,_ZN9__gnu_cxx14__alloc_traitsISaISt13_Rb_tree_nodeISt4pairIKiiEEES5_E17_S_select_on_copyERKS6_
DA:97,0
DA:98,0
DA:97,0
DA:98,0
DA:97,0
DA:98,0
DA:97,0
DA:98,0
DA:97,0
DA:98,0
end_of_record
SF:/home/pavle/Qt/6.6.1/gcc_64/include/QtCore/qbytearray.h
FN:474,_ZNK10QByteArray4sizeEv
FNDA:0,_ZNK10QByteArray4sizeEv
FN:521,_ZN10QByteArrayD2Ev
FNDA:0,_ZN10QByteArrayD2Ev
FN:540,_ZNK10QByteArray4dataEv
FNDA:0,_ZNK10QByteArray4dataEv
FN:627,_ZNK10QByteArray6isNullEv
FNDA:0,_ZNK10QByteArray6isNullEv
DA:474,0
DA:521,0
DA:540,0
DA:543,0
BRDA:543,0,0,-
BRDA:543,0,1,-
DA:627,0
DA:629,0
end_of_record
SF:/home/pavle/Qt/6.6.1/gcc_64/include/QtCore/qlogging.h
FN:43,_ZN18QMessageLogContextC2EPKciS1_S1_
FNDA:0,_ZN18QMessageLogContextC2EPKciS1_S1_
FN:72,_ZN14QMessageLoggerC2EPKciS1_
FNDA:0,_ZN14QMessageLoggerC2EPKciS1_
DA:43,0
DA:44,0
DA:72,0
DA:73,0
end_of_record
SF:/home/pavle/Qt/6.6.1/gcc_64/include/QtNetwork/qabstractsocket.h
FN:237,_ZN11QMetaTypeIdIN15QAbstractSocket11SocketStateEE14qt_metatype_idEv
FNDA:0,_ZN11QMetaTypeIdIN15QAbstractSocket11SocketStateEE14qt_metatype_idEv
FN:237,_Z27qRegisterNormalizedMetaTypeIN15QAbstractSocket11SocketStateEEiRK10QByteArray
FNDA:0,_Z27qRegisterNormalizedMetaTypeIN15QAbstractSocket11SocketStateEEiRK10QByteArray
DA:237,0
BRDA:237,0,0,-
BRDA:237,0,1,-
BRDA:237,0,2,-
BRDA:237,0,3,-
BRDA:237,0,4,-
BRDA:237,0,5,-
BRDA:237,0,6,-
BRDA:237,0,7,-
BRDA:237,0,8,-
BRDA:237,0,9,-
DA:237,0
end_of_record
SF:/home/pavle/Qt/6.6.1/gcc_64/include/QtCore/qarraydata.h
FN:43,_ZNK10QArrayData22constAllocatedCapacityEv
FNDA:0,_ZNK10QArrayData22constAllocatedCapacityEv
FN:49,_ZN10QArrayData3refEv
FNDA:0,_ZN10QArrayData3refEv
FN:56,_ZN10QArrayData5derefEv
FNDA:0,_ZN10QArrayData5derefEv
FN:61,_ZNK10QArrayData8isSharedEv
FNDA:0,_ZNK10QArrayData8isSharedEv
FN:69,_ZNK10QArrayData11needsDetachEv
FNDA:0,_ZNK10QArrayData11needsDetachEv
FN:74,_ZNK10QArrayData14detachCapacityEx
FNDA:0,_ZNK10QArrayData14detachCapacityEx
FN:101,_ZN15QTypedArrayDataI4QMapI5QChariEE8allocateExN10QArrayData16AllocationOptionE
FNDA:0,_ZN15QTypedArrayDataI4QMapI5QChariEE8allocateExN10QArrayData16AllocationOptionE
FN:101,_ZN15QTypedArrayDataI5QCharE8allocateExN10QArrayData16AllocationOptionE
FNDA:0,_ZN15QTypedArrayDataI5QCharE8allocateExN10QArrayData16AllocationOptionE
FN:101,_ZN15QTypedArrayDataIiE8allocateExN10QArrayData16AllocationOptionE
FNDA:0,_ZN15QTypedArrayDataIiE8allocateExN10QArrayData16AllocationOptionE
FN:101,_ZN15QTypedArrayDataIbE8allocateExN10QArrayData16AllocationOptionE
FNDA:2592,_ZN15QTypedArrayDataIbE8allocateExN10QArrayData16AllocationOptionE
FN:101,_ZN15QTypedArrayDataI7QStringE8allocateExN10QArrayData16AllocationOptionE
FNDA:0,_ZN15QTypedArrayDataI7QStringE8allocateExN10QArrayData16AllocationOptionE
FN:101,_ZN15QTypedArrayDataIP9GameModelE8allocateExN10QArrayData16AllocationOptionE
FNDA:0,_ZN15QTypedArrayDataIP9GameModelE8allocateExN10QArrayData16AllocationOptionE
FN:101,_ZN15QTypedArrayDataI5QListIiEE8allocateExN10QArrayData16AllocationOptionE
FNDA:1,_ZN15QTypedArrayDataI5QListIiEE8allocateExN10QArrayData16AllocationOptionE
FN:101,_ZN15QTypedArrayDataI4QMapI5QChar7QStringEE8allocateExN10QArrayData16AllocationOptionE
FNDA:0,_ZN15QTypedArrayDataI4QMapI5QChar7QStringEE8allocateExN10QArrayData16AllocationOptionE
FN:101,_ZN15QTypedArrayDataI4QMapI5QChar5QListI7QStringEEE8allocateExN10QArrayData16AllocationOptionE
FNDA:0,_ZN15QTypedArrayDataI4QMapI5QChar5QListI7QStringEEE8allocateExN10QArrayData16AllocationOptionE
FN:101,_ZN15QTypedArrayDataI4QMapI7QStringS1_EE8allocateExN10QArrayData16AllocationOptionE
FNDA:0,_ZN15QTypedArrayDataI4QMapI7QStringS1_EE8allocateExN10QArrayData16AllocationOptionE
FN:113,_ZN15QTypedArrayDataI5QCharE19reallocateUnalignedEPS1_PS0_xN10QArrayData16AllocationOptionE
FNDA:0,_ZN15QTypedArrayDataI5QCharE19reallocateUnalignedEPS1_PS0_xN10QArrayData16AllocationOptionE
FN:113,_ZN15QTypedArrayDataIbE19reallocateUnalignedEPS0_PbxN10QArrayData16AllocationOptionE
FNDA:0,_ZN15QTypedArrayDataIbE19reallocateUnalignedEPS0_PbxN10QArrayData16AllocationOptionE
FN:113,_ZN15QTypedArrayDataI4QMapI5QChariEE19reallocateUnalignedEPS3_PS2_xN10QArrayData16AllocationOptionE
FNDA:0,_ZN15QTypedArrayDataI4QMapI5QChariEE19reallocateUnalignedEPS3_PS2_xN10QArrayData16AllocationOptionE
FN:113,_ZN15QTypedArrayDataI5QListIiEE19reallocateUnalignedEPS2_PS1_xN10QArrayData16AllocationOptionE
FNDA:0,_ZN15QTypedArrayDataI5QListIiEE19reallocateUnalignedEPS2_PS1_xN10QArrayData16AllocationOptionE
FN:113,_ZN15QTypedArrayDataI4QMapI5QChar7QStringEE19reallocateUnalignedEPS4_PS3_xN10QArrayData16AllocationOptionE
FNDA:0,_ZN15QTypedArrayDataI4QMapI5QChar7QStringEE19reallocateUnalignedEPS4_PS3_xN10QArrayData16AllocationOptionE
FN:113,_ZN15QTypedArrayDataI4QMapI5QChar5QListI7QStringEEE19reallocateUnalignedEPS6_PS5_xN10QArrayData16AllocationOptionE
FNDA:0,_ZN15QTypedArrayDataI4QMapI5QChar5QListI7QStringEEE19reallocateUnalignedEPS6_PS5_xN10QArrayData16AllocationOptionE
FN:113,_ZN15QTypedArrayDataI4QMapI7QStringS1_EE19reallocateUnalignedEPS3_PS2_xN10QArrayData16AllocationOptionE
FNDA:0,_ZN15QTypedArrayDataI4QMapI7QStringS1_EE19reallocateUnalignedEPS3_PS2_xN10QArrayData16AllocationOptionE
FN:113,_ZN15QTypedArrayDataIiE19reallocateUnalignedEPS0_PixN10QArrayData16AllocationOptionE
FNDA:0,_ZN15QTypedArrayDataIiE19reallocateUnalignedEPS0_PixN10QArrayData16AllocationOptionE
FN:113,_ZN15QTypedArrayDataI7QStringE19reallocateUnalignedEPS1_PS0_xN10QArrayData16AllocationOptionE
FNDA:0,_ZN15QTypedArrayDataI7QStringE19reallocateUnalignedEPS1_PS0_xN10QArrayData16AllocationOptionE
FN:113,_ZN15QTypedArrayDataIP9GameModelE19reallocateUnalignedEPS2_PS1_xN10QArrayData16AllocationOptionE
FNDA:0,_ZN15QTypedArrayDataIP9GameModelE19reallocateUnalignedEPS2_PS1_xN10QArrayData16AllocationOptionE
FN:127,_ZN15QTypedArrayDataI4QMapI5QChar5QListI7QStringEEE9dataStartEP10QArrayDatax
FNDA:0,_ZN15QTypedArrayDataI4QMapI5QChar5QListI7QStringEEE9dataStartEP10QArrayDatax
FN:127,_ZN15QTypedArrayDataI4QMapI7QStringS1_EE9dataStartEP10QArrayDatax
FNDA:0,_ZN15QTypedArrayDataI4QMapI7QStringS1_EE9dataStartEP10QArrayDatax
FN:127,_ZN15QTypedArrayDataI7QStringE9dataStartEP10QArrayDatax
FNDA:0,_ZN15QTypedArrayDataI7QStringE9dataStartEP10QArrayDatax
FN:127,_ZN15QTypedArrayDataI4QMapI5QChar7QStringEE9dataStartEP10QArrayDatax
FNDA:0,_ZN15QTypedArrayDataI4QMapI5QChar7QStringEE9dataStartEP10QArrayDatax
FN:127,_ZN15QTypedArrayDataI5QCharE9dataStartEP10QArrayDatax
FNDA:0,_ZN15QTypedArrayDataI5QCharE9dataStartEP10QArrayDatax
FN:127,_ZN15QTypedArrayDataIiE9dataStartEP10QArrayDatax
FNDA:0,_ZN15QTypedArrayDataIiE9dataStartEP10QArrayDatax
FN:127,_ZN15QTypedArrayDataI5QListIiEE9dataStartEP10QArrayDatax
FNDA:2,_ZN15QTypedArrayDataI5QListIiEE9dataStartEP10QArrayDatax
FN:127,_ZN15QTypedArrayDataI4QMapI5QChariEE9dataStartEP10QArrayDatax
FNDA:0,_ZN15QTypedArrayDataI4QMapI5QChariEE9dataStartEP10QArrayDatax
FN:127,_ZN15QTypedArrayDataIbE9dataStartEP10QArrayDatax
FNDA:2592,_ZN15QTypedArrayDataIbE9dataStartEP10QArrayDatax
FN:127,_ZN15QTypedArrayDataIP9GameModelE9dataStartEP10QArrayDatax
FNDA:0,_ZN15QTypedArrayDataIP9GameModelE9dataStartEP10QArrayDatax
DA:43,0
DA:45,0
DA:49,0
DA:51,0
DA:52,0
DA:56,0
DA:58,0
DA:61,0
DA:63,0
DA:69,0
DA:71,0
DA:74,0
DA:76,0
BRDA:76,0,0,-
BRDA:76,0,1,-
BRDA:76,0,2,-
BRDA:76,0,3,-
BRDA:76,0,4,-
BRDA:76,0,5,-
DA:77,0
DA:78,0
DA:101,0
DA:105,0
DA:107,0
DA:109,0
BRDA:109,0,0,-
BRDA:109,0,1,-
DA:101,1
DA:105,1
DA:107,1
DA:109,1
BRDA:109,0,0,1
BRDA:109,0,1,0
DA:101,0
DA:105,0
DA:107,0
DA:109,0
BRDA:109,0,0,-
BRDA:109,0,1,-
DA:101,0
DA:105,0
DA:107,0
DA:109,0
BRDA:109,0,0,-
BRDA:109,0,1,-
DA:101,0
DA:105,0
DA:107,0
DA:109,0
BRDA:109,0,0,-
BRDA:109,0,1,-
DA:101,0
DA:105,0
DA:107,0
DA:109,0
BRDA:109,0,0,-
BRDA:109,0,1,-
DA:101,0
DA:105,0
DA:107,0
DA:109,0
BRDA:109,0,0,-
BRDA:109,0,1,-
DA:101,2592
DA:105,2592
DA:107,2592
DA:109,2592
BRDA:109,0,0,2592
BRDA:109,0,1,0
DA:101,0
DA:105,0
DA:107,0
DA:109,0
BRDA:109,0,0,-
BRDA:109,0,1,-
DA:101,0
DA:105,0
DA:107,0
DA:109,0
BRDA:109,0,0,-
BRDA:109,0,1,-
DA:113,0
DA:117,0
DA:118,0
BRDA:118,0,0,-
BRDA:118,0,1,-
DA:113,0
DA:117,0
DA:118,0
BRDA:118,0,0,-
BRDA:118,0,1,-
DA:113,0
DA:117,0
DA:118,0
BRDA:118,0,0,-
BRDA:118,0,1,-
DA:113,0
DA:117,0
DA:118,0
BRDA:118,0,0,-
BRDA:118,0,1,-
DA:113,0
DA:117,0
DA:118,0
BRDA:118,0,0,-
BRDA:118,0,1,-
DA:113,0
DA:117,0
DA:118,0
BRDA:118,0,0,-
BRDA:118,0,1,-
DA:113,0
DA:117,0
DA:118,0
BRDA:118,0,0,-
BRDA:118,0,1,-
DA:113,0
DA:117,0
DA:118,0
BRDA:118,0,0,-
BRDA:118,0,1,-
DA:113,0
DA:117,0
DA:118,0
BRDA:118,0,0,-
BRDA:118,0,1,-
DA:113,0
DA:117,0
DA:118,0
BRDA:118,0,0,-
BRDA:118,0,1,-
DA:127,0
DA:130,0
BRDA:130,0,0,-
BRDA:130,0,1,-
BRDA:130,0,2,-
BRDA:130,0,3,-
DA:131,0
DA:132,0
DA:133,0
DA:127,2592
DA:130,2592
BRDA:130,0,0,2592
BRDA:130,0,1,0
BRDA:130,0,2,2592
BRDA:130,0,3,0
DA:131,2592
DA:132,2592
DA:133,2592
DA:127,0
DA:130,0
BRDA:130,0,0,-
BRDA:130,0,1,-
BRDA:130,0,2,-
BRDA:130,0,3,-
DA:131,0
DA:132,0
DA:133,0
DA:127,2
DA:130,2
BRDA:130,0,0,2
BRDA:130,0,1,0
BRDA:130,0,2,2
BRDA:130,0,3,0
DA:131,2
DA:132,2
DA:133,2
DA:127,0
DA:130,0
BRDA:130,0,0,-
BRDA:130,0,1,-
BRDA:130,0,2,-
BRDA:130,0,3,-
DA:131,0
DA:132,0
DA:133,0
DA:127,0
DA:130,0
BRDA:130,0,0,-
BRDA:130,0,1,-
BRDA:130,0,2,-
BRDA:130,0,3,-
DA:131,0
DA:132,0
DA:133,0
DA:127,0
DA:130,0
BRDA:130,0,0,-
BRDA:130,0,1,-
BRDA:130,0,2,-
BRDA:130,0,3,-
DA:131,0
DA:132,0
DA:133,0
DA:127,0
DA:130,0
BRDA:130,0,0,-
BRDA:130,0,1,-
BRDA:130,0,2,-
BRDA:130,0,3,-
DA:131,0
DA:132,0
DA:133,0
DA:127,0
DA:130,0
BRDA:130,0,0,-
BRDA:130,0,1,-
BRDA:130,0,2,-
BRDA:130,0,3,-
DA:131,0
DA:132,0
DA:133,0
DA:127,0
DA:130,0
BRDA:130,0,0,-
BRDA:130,0,1,-
BRDA:130,0,2,-
BRDA:130,0,3,-
DA:131,0
DA:132,0
DA:133,0
end_of_record
SF:/usr/include/c++/11/bits/random.tcc
FN:116,_ZNSt26linear_congruential_engineImLm16807ELm0ELm2147483647EE4seedEm
FNDA:3,_ZNSt26linear_congruential_engineImLm16807ELm0ELm2147483647EE4seedEm
DA:116,3
DA:119,3
DA:120,3
BRDA:120,0,0,3
BRDA:120,0,1,0
BRDA:120,0,2,0
BRDA:120,0,3,3
BRDA:120,0,4,0
BRDA:120,0,5,3
DA:121,0
DA:123,3
DA:124,3
end_of_record
SF:/usr/include/c++/11/array
FN:60,_ZNSt14__array_traitsIcLm29EE6_S_ptrERA29_Kc
FNDA:0,_ZNSt14__array_traitsIcLm29EE6_S_ptrERA29_Kc
FN:261,_ZNKSt5arrayIcLm29EE4dataEv
FNDA:0,_ZNKSt5arrayIcLm29EE4dataEv
DA:60,0
DA:61,0
DA:261,0
DA:262,0
end_of_record
SF:/home/pavle/Qt/6.6.1/gcc_64/include/QtCore/qmap.h
FN:40,_ZN8QMapDataISt3mapIiiSt4lessIiESaISt4pairIKiiEEEEC2Ev
FNDA:0,_ZN8QMapDataISt3mapIiiSt4lessIiESaISt4pairIKiiEEEEC2Ev
FN:40,_ZN8QMapDataISt3mapI7QStringS1_St4lessIS1_ESaISt4pairIKS1_S1_EEEEC2Ev
FNDA:0,_ZN8QMapDataISt3mapI7QStringS1_St4lessIS1_ESaISt4pairIKS1_S1_EEEEC2Ev
FN:40,_ZN8QMapDataISt3mapI5QChar5QListI7QStringESt4lessIS1_ESaISt4pairIKS1_S4_EEEEC2Ev
FNDA:0,_ZN8QMapDataISt3mapI5QChar5QListI7QStringESt4lessIS1_ESaISt4pairIKS1_S4_EEEEC2Ev
FN:40,_ZN8QMapDataISt3mapI5QChar7QStringSt4lessIS1_ESaISt4pairIKS1_S2_EEEEC2Ev
FNDA:0,_ZN8QMapDataISt3mapI5QChar7QStringSt4lessIS1_ESaISt4pairIKS1_S2_EEEEC2Ev
FN:40,_ZN8QMapDataISt3mapI5QChariSt4lessIS1_ESaISt4pairIKS1_iEEEEC2Ev
FNDA:0,_ZN8QMapDataISt3mapI5QChariSt4lessIS1_ESaISt4pairIKS1_iEEEEC2Ev
FN:92,_ZNK8QMapDataISt3mapI7QStringS1_St4lessIS1_ESaISt4pairIKS1_S1_EEEE4keysEv
FNDA:0,_ZNK8QMapDataISt3mapI7QStringS1_St4lessIS1_ESaISt4pairIKS1_S1_EEEE4keysEv
FN:97,_ZZNK8QMapDataISt3mapI7QStringS1_St4lessIS1_ESaISt4pairIKS1_S1_EEEE4keysEvENKUlRKT_E_clIS6_EEDaSC_
FNDA:0,_ZZNK8QMapDataISt3mapI7QStringS1_St4lessIS1_ESaISt4pairIKS1_S1_EEEE4keysEvENKUlRKT_E_clIS6_EEDaSC_
FN:199,_ZN4QMapIiiEC2Ev
FNDA:0,_ZN4QMapIiiEC2Ev
FN:199,_ZN4QMapI7QStringS0_EC2Ev
FNDA:0,_ZN4QMapI7QStringS0_EC2Ev
FN:199,_ZN4QMapI5QChar5QListI7QStringEEC2Ev
FNDA:0,_ZN4QMapI5QChar5QListI7QStringEEC2Ev
FN:199,_ZN4QMapI5QChariEC2Ev
FNDA:0,_ZN4QMapI5QChariEC2Ev
FN:199,_ZN4QMapI5QChar7QStringEC2Ev
FNDA:0,_ZN4QMapI5QChar7QStringEC2Ev
FN:270,_ZN4QMapIiiE6detachEv
FNDA:0,_ZN4QMapIiiE6detachEv
FN:270,_ZN4QMapI7QStringS0_E6detachEv
FNDA:0,_ZN4QMapI7QStringS0_E6detachEv
FN:270,_ZN4QMapI5QChar5QListI7QStringEE6detachEv
FNDA:0,_ZN4QMapI5QChar5QListI7QStringEE6detachEv
FN:270,_ZN4QMapI5QChariE6detachEv
FNDA:0,_ZN4QMapI5QChariE6detachEv
FN:270,_ZN4QMapI5QChar7QStringE6detachEv
FNDA:0,_ZN4QMapI5QChar7QStringE6detachEv
FN:366,_ZN4QMapI5QChar7QStringEixERKS0_
FNDA:0,_ZN4QMapI5QChar7QStringEixERKS0_
FN:366,_ZN4QMapI5QChariEixERKS0_
FNDA:0,_ZN4QMapI5QChariEixERKS0_
FN:366,_ZN4QMapIiiEixERKi
FNDA:0,_ZN4QMapIiiEixERKi
FN:366,_ZN4QMapI7QStringS0_EixERKS0_
FNDA:0,_ZN4QMapI7QStringS0_EixERKS0_
FN:366,_ZN4QMapI5QChar5QListI7QStringEEixERKS0_
FNDA:0,_ZN4QMapI5QChar5QListI7QStringEEixERKS0_
FN:382,_ZNK4QMapI7QStringS0_E4keysEv
FNDA:0,_ZNK4QMapI7QStringS0_E4keysEv
FN:431,_ZN4QMapI5QChariE8iteratorC2ESt17_Rb_tree_iteratorISt4pairIKS0_iEE
FNDA:4,_ZN4QMapI5QChariE8iteratorC2ESt17_Rb_tree_iteratorISt4pairIKS0_iEE
FN:431,_ZN4QMapI5QChar7QStringE8iteratorC2ESt17_Rb_tree_iteratorISt4pairIKS0_S1_EE
FNDA:4,_ZN4QMapI5QChar7QStringE8iteratorC2ESt17_Rb_tree_iteratorISt4pairIKS0_S1_EE
FN:431,_ZN4QMapI5QChar5QListI7QStringEE8iteratorC2ESt17_Rb_tree_iteratorISt4pairIKS0_S3_EE
FNDA:4,_ZN4QMapI5QChar5QListI7QStringEE8iteratorC2ESt17_Rb_tree_iteratorISt4pairIKS0_S3_EE
FN:443,_ZNK4QMapI5QChar5QListI7QStringEE8iteratordeEv
FNDA:8,_ZNK4QMapI5QChar5QListI7QStringEE8iteratordeEv
FN:443,_ZNK4QMapI5QChariE8iteratordeEv
FNDA:10,_ZNK4QMapI5QChariE8iteratordeEv
FN:443,_ZNK4QMapI5QChar7QStringE8iteratordeEv
FNDA:10,_ZNK4QMapI5QChar7QStringE8iteratordeEv
FN:446,_ZneRKN4QMapI5QChar7QStringE8iteratorES5_
FNDA:12,_ZneRKN4QMapI5QChar7QStringE8iteratorES5_
FN:446,_ZneRKN4QMapI5QChar5QListI7QStringEE8iteratorES7_
FNDA:10,_ZneRKN4QMapI5QChar5QListI7QStringEE8iteratorES7_
FN:446,_ZneRKN4QMapI5QChariE8iteratorES4_
FNDA:12,_ZneRKN4QMapI5QChariE8iteratorES4_
FN:448,_ZN4QMapI5QChar7QStringE8iteratorppEv
FNDA:10,_ZN4QMapI5QChar7QStringE8iteratorppEv
FN:448,_ZN4QMapI5QChar5QListI7QStringEE8iteratorppEv
FNDA:8,_ZN4QMapI5QChar5QListI7QStringEE8iteratorppEv
FN:448,_ZN4QMapI5QChariE8iteratorppEv
FNDA:10,_ZN4QMapI5QChariE8iteratorppEv
FN:500,_ZN4QMapI7QStringS0_E14const_iteratorC2ESt23_Rb_tree_const_iteratorISt4pairIKS0_S0_EE
FNDA:0,_ZN4QMapI7QStringS0_E14const_iteratorC2ESt23_Rb_tree_const_iteratorISt4pairIKS0_S0_EE
FN:509,_ZN4QMapI7QStringS0_E14const_iteratorC2Ev
FNDA:0,_ZN4QMapI7QStringS0_E14const_iteratorC2Ev
FN:512,_ZNK4QMapI7QStringS0_E14const_iterator3keyEv
FNDA:0,_ZNK4QMapI7QStringS0_E14const_iterator3keyEv
FN:513,_ZNK4QMapI7QStringS0_E14const_iterator5valueEv
FNDA:0,_ZNK4QMapI7QStringS0_E14const_iterator5valueEv
FN:517,_ZneRKN4QMapI7QStringS0_E14const_iteratorES4_
FNDA:0,_ZneRKN4QMapI7QStringS0_E14const_iteratorES4_
FN:519,_ZN4QMapI7QStringS0_E14const_iteratorppEv
FNDA:0,_ZN4QMapI7QStringS0_E14const_iteratorppEv
FN:597,_ZN4QMapI5QChar7QStringE5beginEv
FNDA:2,_ZN4QMapI5QChar7QStringE5beginEv
FN:597,_ZN4QMapI5QChariE5beginEv
FNDA:2,_ZN4QMapI5QChariE5beginEv
FN:597,_ZN4QMapI5QChar5QListI7QStringEE5beginEv
FNDA:2,_ZN4QMapI5QChar5QListI7QStringEE5beginEv
FN:598,_ZNK4QMapI7QStringS0_E5beginEv
FNDA:0,_ZNK4QMapI7QStringS0_E5beginEv
FN:599,_ZNK4QMapI7QStringS0_E10constBeginEv
FNDA:0,_ZNK4QMapI7QStringS0_E10constBeginEv
FN:601,_ZN4QMapI5QChar5QListI7QStringEE3endEv
FNDA:2,_ZN4QMapI5QChar5QListI7QStringEE3endEv
FN:601,_ZN4QMapI5QChariE3endEv
FNDA:2,_ZN4QMapI5QChariE3endEv
FN:601,_ZN4QMapI5QChar7QStringE3endEv
FNDA:2,_ZN4QMapI5QChar7QStringE3endEv
FN:602,_ZNK4QMapI7QStringS0_E3endEv
FNDA:0,_ZNK4QMapI7QStringS0_E3endEv
FN:603,_ZNK4QMapI7QStringS0_E8constEndEv
FNDA:0,_ZNK4QMapI7QStringS0_E8constEndEv
DA:40,0
DA:40,0
DA:40,0
DA:40,0
DA:40,0
DA:92,0
DA:94,0
DA:95,0
BRDA:95,0,0,-
BRDA:95,0,1,-
DA:97,0
DA:99,0
BRDA:99,0,0,-
BRDA:99,0,1,-
BRDA:99,0,2,-
BRDA:99,0,3,-
DA:103,0
DA:104,0
DA:199,0
DA:199,0
DA:199,0
DA:199,0
DA:199,0
DA:270,0
DA:272,0
BRDA:272,0,0,-
BRDA:272,0,1,-
DA:273,0
DA:275,0
DA:276,0
DA:270,0
DA:272,0
BRDA:272,0,0,-
BRDA:272,0,1,-
DA:273,0
DA:275,0
DA:276,0
DA:270,0
DA:272,0
BRDA:272,0,0,-
BRDA:272,0,1,-
DA:273,0
DA:275,0
DA:276,0
DA:270,0
DA:272,0
BRDA:272,0,0,-
BRDA:272,0,1,-
DA:273,0
DA:275,0
DA:276,0
DA:270,0
DA:272,0
BRDA:272,0,0,-
BRDA:272,0,1,-
DA:273,0
DA:275,0
DA:276,0
DA:366,0
DA:368,0
BRDA:368,0,0,-
BRDA:368,0,1,-
DA:369,0
BRDA:369,0,0,-
BRDA:369,0,1,-
DA:370,0
BRDA:370,0,0,-
BRDA:370,0,1,-
DA:371,0
BRDA:371,0,0,-
BRDA:371,0,1,-
DA:372,0
BRDA:372,0,0,-
BRDA:372,0,1,-
DA:373,0
DA:374,0
DA:366,0
DA:368,0
BRDA:368,0,0,-
BRDA:368,0,1,-
DA:369,0
BRDA:369,0,0,-
BRDA:369,0,1,-
DA:370,0
BRDA:370,0,0,-
BRDA:370,0,1,-
DA:371,0
BRDA:371,0,0,-
BRDA:371,0,1,-
DA:372,0
BRDA:372,0,0,-
BRDA:372,0,1,-
DA:373,0
DA:374,0
DA:366,0
DA:368,0
BRDA:368,0,0,-
BRDA:368,0,1,-
DA:369,0
BRDA:369,0,0,-
BRDA:369,0,1,-
DA:370,0
BRDA:370,0,0,-
BRDA:370,0,1,-
DA:371,0
BRDA:371,0,0,-
BRDA:371,0,1,-
DA:372,0
BRDA:372,0,0,-
BRDA:372,0,1,-
DA:373,0
DA:374,0
DA:366,0
DA:368,0
BRDA:368,0,0,-
BRDA:368,0,1,-
DA:369,0
BRDA:369,0,0,-
BRDA:369,0,1,-
DA:370,0
BRDA:370,0,0,-
BRDA:370,0,1,-
DA:371,0
BRDA:371,0,0,-
BRDA:371,0,1,-
DA:372,0
BRDA:372,0,0,-
BRDA:372,0,1,-
DA:373,0
DA:374,0
DA:366,0
DA:368,0
BRDA:368,0,0,-
BRDA:368,0,1,-
DA:369,0
BRDA:369,0,0,-
BRDA:369,0,1,-
DA:370,0
BRDA:370,0,0,-
BRDA:370,0,1,-
DA:371,0
BRDA:371,0,0,-
BRDA:371,0,1,-
DA:372,0
BRDA:372,0,0,-
BRDA:372,0,1,-
DA:373,0
DA:374,0
DA:382,0
DA:384,0
BRDA:384,0,0,-
BRDA:384,0,1,-
DA:385,0
DA:386,0
DA:431,4
DA:431,4
DA:431,4
DA:443,8
DA:443,10
DA:443,10
DA:446,10
DA:446,12
DA:446,12
DA:448,8
DA:450,8
DA:451,8
DA:448,10
DA:450,10
DA:451,10
DA:448,10
DA:450,10
DA:451,10
DA:500,0
DA:509,0
DA:512,0
DA:513,0
DA:517,0
DA:519,0
DA:521,0
DA:522,0
DA:597,2
DA:597,2
DA:597,2
DA:598,0
BRDA:598,0,0,-
BRDA:598,0,1,-
DA:599,0
DA:601,2
DA:601,2
DA:601,2
DA:602,0
BRDA:602,0,0,-
BRDA:602,0,1,-
DA:603,0
end_of_record
TN:
SF:/home/pavle/Qt/6.6.1/gcc_64/include/QtCore/qarraydata.h
FN:43,_ZNK10QArrayData22constAllocatedCapacityEv
FNDA:0,_ZNK10QArrayData22constAllocatedCapacityEv
FN:49,_ZN10QArrayData3refEv
FNDA:0,_ZN10QArrayData3refEv
FN:56,_ZN10QArrayData5derefEv
FNDA:0,_ZN10QArrayData5derefEv
FN:61,_ZNK10QArrayData8isSharedEv
FNDA:0,_ZNK10QArrayData8isSharedEv
FN:69,_ZNK10QArrayData11needsDetachEv
FNDA:0,_ZNK10QArrayData11needsDetachEv
FN:74,_ZNK10QArrayData14detachCapacityEx
FNDA:0,_ZNK10QArrayData14detachCapacityEx
FN:101,_ZN15QTypedArrayDataIP11QPushButtonE8allocateExN10QArrayData16AllocationOptionE
FNDA:0,_ZN15QTypedArrayDataIP11QPushButtonE8allocateExN10QArrayData16AllocationOptionE
FN:101,_ZN15QTypedArrayDataIiE8allocateExN10QArrayData16AllocationOptionE
FNDA:0,_ZN15QTypedArrayDataIiE8allocateExN10QArrayData16AllocationOptionE
FN:101,_ZN15QTypedArrayDataI7QStringE8allocateExN10QArrayData16AllocationOptionE
FNDA:0,_ZN15QTypedArrayDataI7QStringE8allocateExN10QArrayData16AllocationOptionE
FN:113,_ZN15QTypedArrayDataIiE19reallocateUnalignedEPS0_PixN10QArrayData16AllocationOptionE
FNDA:0,_ZN15QTypedArrayDataIiE19reallocateUnalignedEPS0_PixN10QArrayData16AllocationOptionE
FN:113,_ZN15QTypedArrayDataI7QStringE19reallocateUnalignedEPS1_PS0_xN10QArrayData16AllocationOptionE
FNDA:0,_ZN15QTypedArrayDataI7QStringE19reallocateUnalignedEPS1_PS0_xN10QArrayData16AllocationOptionE
FN:113,_ZN15QTypedArrayDataIP11QPushButtonE19reallocateUnalignedEPS2_PS1_xN10QArrayData16AllocationOptionE
FNDA:0,_ZN15QTypedArrayDataIP11QPushButtonE19reallocateUnalignedEPS2_PS1_xN10QArrayData16AllocationOptionE
FN:127,_ZN15QTypedArrayDataIP11QPushButtonE9dataStartEP10QArrayDatax
FNDA:0,_ZN15QTypedArrayDataIP11QPushButtonE9dataStartEP10QArrayDatax
FN:127,_ZN15QTypedArrayDataIiE9dataStartEP10QArrayDatax
FNDA:0,_ZN15QTypedArrayDataIiE9dataStartEP10QArrayDatax
FN:127,_ZN15QTypedArrayDataI7QStringE9dataStartEP10QArrayDatax
FNDA:0,_ZN15QTypedArrayDataI7QStringE9dataStartEP10QArrayDatax
DA:43,0
DA:45,0
DA:49,0
DA:51,0
DA:52,0
DA:56,0
DA:58,0
DA:61,0
DA:63,0
DA:69,0
DA:71,0
DA:74,0
DA:76,0
BRDA:76,0,0,-
BRDA:76,0,1,-
BRDA:76,0,2,-
BRDA:76,0,3,-
BRDA:76,0,4,-
BRDA:76,0,5,-
DA:77,0
DA:78,0
DA:101,0
DA:105,0
DA:107,0
DA:109,0
BRDA:109,0,0,-
BRDA:109,0,1,-
DA:101,0
DA:105,0
DA:107,0
DA:109,0
BRDA:109,0,0,-
BRDA:109,0,1,-
DA:101,0
DA:105,0
DA:107,0
DA:109,0
BRDA:109,0,0,-
BRDA:109,0,1,-
DA:113,0
DA:117,0
DA:118,0
BRDA:118,0,0,-
BRDA:118,0,1,-
DA:113,0
DA:117,0
DA:118,0
BRDA:118,0,0,-
BRDA:118,0,1,-
DA:113,0
DA:117,0
DA:118,0
BRDA:118,0,0,-
BRDA:118,0,1,-
DA:127,0
DA:130,0
BRDA:130,0,0,-
BRDA:130,0,1,-
BRDA:130,0,2,-
BRDA:130,0,3,-
DA:131,0
DA:132,0
DA:133,0
DA:127,0
DA:130,0
BRDA:130,0,0,-
BRDA:130,0,1,-
BRDA:130,0,2,-
BRDA:130,0,3,-
DA:131,0
DA:132,0
DA:133,0
DA:127,0
DA:130,0
BRDA:130,0,0,-
BRDA:130,0,1,-
BRDA:130,0,2,-
BRDA:130,0,3,-
DA:131,0
DA:132,0
DA:133,0
end_of_record
SF:/home/pavle/Qt/6.6.1/gcc_64/include/QtCore/qtimer.h
FN:54,_ZN6QTimer10singleShotIiM10SpojniceUiFvvEEEvT_PKN9QtPrivate21ContextTypeForFunctorIT0_vE11ContextTypeEOS7_
FNDA:0,_ZN6QTimer10singleShotIiM10SpojniceUiFvvEEEvT_PKN9QtPrivate21ContextTypeForFunctorIT0_vE11ContextTypeEOS7_
FN:66,_ZN6QTimer10singleShotIiM10SpojniceUiFvvEEEvT_N2Qt9TimerTypeEPKN9QtPrivate21ContextTypeForFunctorIT0_vE11ContextTypeEOS9_
FNDA:0,_ZN6QTimer10singleShotIiM10SpojniceUiFvvEEEvT_N2Qt9TimerTypeEPKN9QtPrivate21ContextTypeForFunctorIT0_vE11ContextTypeEOS9_
FN:154,_ZN6QTimer14defaultTypeForEi
FNDA:0,_ZN6QTimer14defaultTypeForEi
DA:54,0
DA:63,0
DA:64,0
DA:66,0
DA:75,0
DA:77,0
DA:154,0
DA:155,0
BRDA:155,0,0,-
BRDA:155,0,1,-
end_of_record
SF:/home/pavle/Qt/6.6.1/gcc_64/include/QtWidgets/qsizepolicy.h
FN:62,_ZN11QSizePolicyC2ENS_6PolicyES0_NS_11ControlTypeE
FNDA:0,_ZN11QSizePolicyC2ENS_6PolicyES0_NS_11ControlTypeE
FN:80,_ZN11QSizePolicy17setHeightForWidthEb
FNDA:55,_ZN11QSizePolicy17setHeightForWidthEb
FN:81,_ZNK11QSizePolicy17hasHeightForWidthEv
FNDA:55,_ZNK11QSizePolicy17hasHeightForWidthEv
FN:94,_ZN11QSizePolicy20setHorizontalStretchEi
FNDA:15,_ZN11QSizePolicy20setHorizontalStretchEi
FN:95,_ZN11QSizePolicy18setVerticalStretchEi
FNDA:15,_ZN11QSizePolicy18setVerticalStretchEi
FN:115,_ZN11QSizePolicy23toControlTypeFieldValueENS_11ControlTypeE
FNDA:0,_ZN11QSizePolicy23toControlTypeFieldValueENS_11ControlTypeE
DA:62,0
DA:63,0
DA:64,0
BRDA:64,0,0,-
BRDA:64,0,1,-
DA:65,0
DA:80,55
DA:81,55
DA:94,15
BRDA:94,0,0,15
BRDA:94,0,1,0
DA:95,15
BRDA:95,0,0,15
BRDA:95,0,1,0
DA:115,0
DA:131,0
end_of_record
SF:/home/pavle/Qt/6.6.1/gcc_64/include/QtCore/qmap.h
FN:40,_ZN8QMapDataISt3mapIP6QLabeliSt4lessIS2_ESaISt4pairIKS2_iEEEEC2Ev
FNDA:6,_ZN8QMapDataISt3mapIP6QLabeliSt4lessIS2_ESaISt4pairIKS2_iEEEEC2Ev
FN:40,_ZN8QMapDataISt3mapIP11QPushButtoniSt4lessIS2_ESaISt4pairIKS2_iEEEEC2Ev
FNDA:0,_ZN8QMapDataISt3mapIP11QPushButtoniSt4lessIS2_ESaISt4pairIKS2_iEEEEC2Ev
FN:92,_ZNK8QMapDataISt3mapIP11QPushButtoniSt4lessIS2_ESaISt4pairIKS2_iEEEE4keysEv
FNDA:0,_ZNK8QMapDataISt3mapIP11QPushButtoniSt4lessIS2_ESaISt4pairIKS2_iEEEE4keysEv
FN:97,_ZZNK8QMapDataISt3mapIP11QPushButtoniSt4lessIS2_ESaISt4pairIKS2_iEEEE4keysEvENKUlRKT_E_clIS7_EEDaSD_
FNDA:0,_ZZNK8QMapDataISt3mapIP11QPushButtoniSt4lessIS2_ESaISt4pairIKS2_iEEEE4keysEvENKUlRKT_E_clIS7_EEDaSD_
FN:199,_ZN4QMapIP6QLabeliEC2Ev
FNDA:59,_ZN4QMapIP6QLabeliEC2Ev
FN:199,_ZN4QMapIP11QPushButtoniEC2Ev
FNDA:0,_ZN4QMapIP11QPushButtoniEC2Ev
FN:270,_ZN4QMapIP6QLabeliE6detachEv
FNDA:48,_ZN4QMapIP6QLabeliE6detachEv
FN:270,_ZN4QMapIP11QPushButtoniE6detachEv
FNDA:0,_ZN4QMapIP11QPushButtoniE6detachEv
FN:366,_ZN4QMapIP6QLabeliEixERKS1_
FNDA:48,_ZN4QMapIP6QLabeliEixERKS1_
FN:366,_ZN4QMapIP11QPushButtoniEixERKS1_
FNDA:0,_ZN4QMapIP11QPushButtoniEixERKS1_
FN:382,_ZNK4QMapIP11QPushButtoniE4keysEv
FNDA:0,_ZNK4QMapIP11QPushButtoniE4keysEv
DA:40,6
DA:40,0
DA:92,0
DA:94,0
DA:95,0
BRDA:95,0,0,-
BRDA:95,0,1,-
DA:97,0
DA:99,0
BRDA:99,0,0,-
BRDA:99,0,1,-
BRDA:99,0,2,-
BRDA:99,0,3,-
DA:103,0
DA:104,0
DA:199,59
DA:199,0
DA:270,48
DA:272,48
BRDA:272,0,0,42
BRDA:272,0,1,6
DA:273,42
DA:275,6
DA:276,48
DA:270,0
DA:272,0
BRDA:272,0,0,-
BRDA:272,0,1,-
DA:273,0
DA:275,0
DA:276,0
DA:366,48
DA:368,48
BRDA:368,0,0,0
BRDA:368,0,1,48
DA:369,48
BRDA:369,0,0,48
BRDA:369,0,1,0
DA:370,48
BRDA:370,0,0,48
BRDA:370,0,1,0
DA:371,48
BRDA:371,0,0,48
BRDA:371,0,1,0
DA:372,48
BRDA:372,0,0,48
BRDA:372,0,1,0
DA:373,96
DA:374,48
DA:366,0
DA:368,0
BRDA:368,0,0,-
BRDA:368,0,1,-
DA:369,0
BRDA:369,0,0,-
BRDA:369,0,1,-
DA:370,0
BRDA:370,0,0,-
BRDA:370,0,1,-
DA:371,0
BRDA:371,0,0,-
BRDA:371,0,1,-
DA:372,0
BRDA:372,0,0,-
BRDA:372,0,1,-
DA:373,0
DA:374,0
DA:382,0
DA:384,0
BRDA:384,0,0,-
BRDA:384,0,1,-
DA:385,0
DA:386,0
end_of_record
SF:/home/pavle/Qt/6.6.1/gcc_64/include/QtCore/qlogging.h
FN:43,_ZN18QMessageLogContextC2EPKciS1_S1_
FNDA:0,_ZN18QMessageLogContextC2EPKciS1_S1_
FN:72,_ZN14QMessageLoggerC2EPKciS1_
FNDA:0,_ZN14QMessageLoggerC2EPKciS1_
DA:43,0
DA:44,0
DA:72,0
DA:73,0
end_of_record
SF:/home/pavle/Qt/6.6.1/gcc_64/include/QtCore/qbytearray.h
FN:474,_ZNK10QByteArray4sizeEv
FNDA:0,_ZNK10QByteArray4sizeEv
FN:521,_ZN10QByteArrayD2Ev
FNDA:0,_ZN10QByteArrayD2Ev
FN:540,_ZNK10QByteArray4dataEv
FNDA:0,_ZNK10QByteArray4dataEv
FN:627,_ZNK10QByteArray6isNullEv
FNDA:0,_ZNK10QByteArray6isNullEv
DA:474,0
DA:521,0
DA:540,0
DA:543,0
BRDA:543,0,0,-
BRDA:543,0,1,-
DA:627,0
DA:629,0
end_of_record
SF:/usr/include/c++/11/ext/aligned_buffer.h
FN:64,_ZN9__gnu_cxx16__aligned_membufISt4pairIKP6QLabeliEE7_M_addrEv
FNDA:104,_ZN9__gnu_cxx16__aligned_membufISt4pairIKP6QLabeliEE7_M_addrEv
FN:64,_ZN9__gnu_cxx16__aligned_membufISt4pairIKP11QPushButtoniEE7_M_addrEv
FNDA:0,_ZN9__gnu_cxx16__aligned_membufISt4pairIKP11QPushButtoniEE7_M_addrEv
FN:68,_ZNK9__gnu_cxx16__aligned_membufISt4pairIKP6QLabeliEE7_M_addrEv
FNDA:291,_ZNK9__gnu_cxx16__aligned_membufISt4pairIKP6QLabeliEE7_M_addrEv
FN:68,_ZNK9__gnu_cxx16__aligned_membufISt4pairIKP11QPushButtoniEE7_M_addrEv
FNDA:0,_ZNK9__gnu_cxx16__aligned_membufISt4pairIKP11QPushButtoniEE7_M_addrEv
FN:72,_ZN9__gnu_cxx16__aligned_membufISt4pairIKP6QLabeliEE6_M_ptrEv
FNDA:104,_ZN9__gnu_cxx16__aligned_membufISt4pairIKP6QLabeliEE6_M_ptrEv
FN:72,_ZN9__gnu_cxx16__aligned_membufISt4pairIKP11QPushButtoniEE6_M_ptrEv
FNDA:0,_ZN9__gnu_cxx16__aligned_membufISt4pairIKP11QPushButtoniEE6_M_ptrEv
FN:76,_ZNK9__gnu_cxx16__aligned_membufISt4pairIKP6QLabeliEE6_M_ptrEv
FNDA:291,_ZNK9__gnu_cxx16__aligned_membufISt4pairIKP6QLabeliEE6_M_ptrEv
FN:76,_ZNK9__gnu_cxx16__aligned_membufISt4pairIKP11QPushButtoniEE6_M_ptrEv
FNDA:0,_ZNK9__gnu_cxx16__aligned_membufISt4pairIKP11QPushButtoniEE6_M_ptrEv
DA:64,104
DA:65,104
DA:64,0
DA:65,0
DA:68,291
DA:69,291
DA:68,0
DA:69,0
DA:72,104
DA:73,104
DA:72,0
DA:73,0
DA:76,291
DA:77,291
DA:76,0
DA:77,0
end_of_record
SF:/home/pavle/Qt/6.6.1/gcc_64/include/QtCore/qshareddata.h
FN:23,_ZN11QSharedDataC2Ev
FNDA:0,_ZN11QSharedDataC2Ev
FN:24,_ZN11QSharedDataC2ERKS_
FNDA:0,_ZN11QSharedDataC2ERKS_
DA:23,0
DA:24,0
end_of_record
SF:/usr/include/c++/11/utility
FN:183,_ZNSt10__pair_getILm0EE10__move_getIP15QTypedArrayDataIiEPiEEOT_OSt4pairIS6_T0_E
FNDA:0,_ZNSt10__pair_getILm0EE10__move_getIP15QTypedArrayDataIiEPiEEOT_OSt4pairIS6_T0_E
FN:183,_ZNSt10__pair_getILm0EE10__move_getIP15QTypedArrayDataI7QStringEPS3_EEOT_OSt4pairIS7_T0_E
FNDA:0,_ZNSt10__pair_getILm0EE10__move_getIP15QTypedArrayDataI7QStringEPS3_EEOT_OSt4pairIS7_T0_E
FN:183,_ZNSt10__pair_getILm0EE10__move_getIP15QTypedArrayDataIP11QPushButtonEPS4_EEOT_OSt4pairIS8_T0_E
FNDA:0,_ZNSt10__pair_getILm0EE10__move_getIP15QTypedArrayDataIP11QPushButtonEPS4_EEOT_OSt4pairIS8_T0_E
FN:207,_ZNSt10__pair_getILm1EE10__move_getIP15QTypedArrayDataIiEPiEEOT0_OSt4pairIT_S6_E
FNDA:0,_ZNSt10__pair_getILm1EE10__move_getIP15QTypedArrayDataIiEPiEEOT0_OSt4pairIT_S6_E
FN:207,_ZNSt10__pair_getILm1EE10__move_getIP15QTypedArrayDataI7QStringEPS3_EEOT0_OSt4pairIT_S7_E
FNDA:0,_ZNSt10__pair_getILm1EE10__move_getIP15QTypedArrayDataI7QStringEPS3_EEOT0_OSt4pairIT_S7_E
FN:207,_ZNSt10__pair_getILm1EE10__move_getIP15QTypedArrayDataIP11QPushButtonEPS4_EEOT0_OSt4pairIT_S8_E
FNDA:0,_ZNSt10__pair_getILm1EE10__move_getIP15QTypedArrayDataIP11QPushButtonEPS4_EEOT0_OSt4pairIT_S8_E
FN:228,_ZSt3getILm1EP15QTypedArrayDataIiEPiEONSt13tuple_elementIXT_ESt4pairIT0_T1_EE4typeEOS8_
FNDA:0,_ZSt3getILm1EP15QTypedArrayDataIiEPiEONSt13tuple_elementIXT_ESt4pairIT0_T1_EE4typeEOS8_
FN:228,_ZSt3getILm0EP15QTypedArrayDataIiEPiEONSt13tuple_elementIXT_ESt4pairIT0_T1_EE4typeEOS8_
FNDA:0,_ZSt3getILm0EP15QTypedArrayDataIiEPiEONSt13tuple_elementIXT_ESt4pairIT0_T1_EE4typeEOS8_
FN:228,_ZSt3getILm1EP15QTypedArrayDataI7QStringEPS1_EONSt13tuple_elementIXT_ESt4pairIT0_T1_EE4typeEOS9_
FNDA:0,_ZSt3getILm1EP15QTypedArrayDataI7QStringEPS1_EONSt13tuple_elementIXT_ESt4pairIT0_T1_EE4typeEOS9_
FN:228,_ZSt3getILm0EP15QTypedArrayDataI7QStringEPS1_EONSt13tuple_elementIXT_ESt4pairIT0_T1_EE4typeEOS9_
FNDA:0,_ZSt3getILm0EP15QTypedArrayDataI7QStringEPS1_EONSt13tuple_elementIXT_ESt4pairIT0_T1_EE4typeEOS9_
FN:228,_ZSt3getILm1EP15QTypedArrayDataIP11QPushButtonEPS2_EONSt13tuple_elementIXT_ESt4pairIT0_T1_EE4typeEOSA_
FNDA:0,_ZSt3getILm1EP15QTypedArrayDataIP11QPushButtonEPS2_EONSt13tuple_elementIXT_ESt4pairIT0_T1_EE4typeEOSA_
FN:228,_ZSt3getILm0EP15QTypedArrayDataIP11QPushButtonEPS2_EONSt13tuple_elementIXT_ESt4pairIT0_T1_EE4typeEOSA_
FNDA:0,_ZSt3getILm0EP15QTypedArrayDataIP11QPushButtonEPS2_EONSt13tuple_elementIXT_ESt4pairIT0_T1_EE4typeEOSA_
FN:291,_ZSt8exchangeIP8QMapDataISt3mapIP6QLabeliSt4lessIS3_ESaISt4pairIKS3_iEEEEDnET_RSD_OT0_
FNDA:6,_ZSt8exchangeIP8QMapDataISt3mapIP6QLabeliSt4lessIS3_ESaISt4pairIKS3_iEEEEDnET_RSD_OT0_
FN:291,_ZSt8exchangeIP8QMapDataISt3mapIP11QPushButtoniSt4lessIS3_ESaISt4pairIKS3_iEEEEDnET_RSD_OT0_
FNDA:6,_ZSt8exchangeIP8QMapDataISt3mapIP11QPushButtoniSt4lessIS3_ESaISt4pairIKS3_iEEEEDnET_RSD_OT0_
FN:291,_ZSt8exchangeIPN6QDebug6StreamEDnET_RS3_OT0_
FNDA:3,_ZSt8exchangeIPN6QDebug6StreamEDnET_RS3_OT0_
DA:183,0
DA:184,0
DA:183,0
DA:184,0
DA:183,0
DA:184,0
DA:207,0
DA:208,0
DA:207,0
DA:208,0
DA:207,0
DA:208,0
DA:228,0
DA:229,0
DA:228,0
DA:229,0
DA:228,0
DA:229,0
DA:228,0
DA:229,0
DA:228,0
DA:229,0
DA:228,0
DA:229,0
DA:291,6
DA:292,6
DA:291,6
DA:292,6
DA:291,3
DA:292,3
end_of_record
SF:/home/pavle/Qt/6.6.1/gcc_64/include/QtCore/qfunctionaltools_impl.h
FN:38,_ZNR9QtPrivate6detail14StorageByValueIM10SpojniceUiFvvEvE6objectEv
FNDA:0,_ZNR9QtPrivate6detail14StorageByValueIM10SpojniceUiFvvEvE6objectEv
DA:38,0
end_of_record
SF:/home/pavle/Qt/6.6.1/gcc_64/include/QtCore/qanystringview.h
FN:101,_ZN14QAnyStringView29isAsciiOnlyCharsAtCompileTimeIKcEEbPT_x
FNDA:0,_ZN14QAnyStringView29isAsciiOnlyCharsAtCompileTimeIKcEEbPT_x
FN:131,_ZN14QAnyStringView10encodeTypeIcEEmPKT_x
FNDA:0,_ZN14QAnyStringView10encodeTypeIcEEmPKT_x
FN:166,_ZN14QAnyStringView21lengthHelperContainerIcLm7EEExRAT0__KT_
FNDA:80,_ZN14QAnyStringView21lengthHelperContainerIcLm7EEExRAT0__KT_
FN:166,_ZN14QAnyStringView21lengthHelperContainerIcLm11EEExRAT0__KT_
FNDA:0,_ZN14QAnyStringView21lengthHelperContainerIcLm11EEExRAT0__KT_
FN:166,_ZN14QAnyStringView21lengthHelperContainerIcLm6EEExRAT0__KT_
FNDA:0,_ZN14QAnyStringView21lengthHelperContainerIcLm6EEExRAT0__KT_
FN:166,_ZN14QAnyStringView21lengthHelperContainerIcLm15EEExRAT0__KT_
FNDA:0,_ZN14QAnyStringView21lengthHelperContainerIcLm15EEExRAT0__KT_
FN:166,_ZN14QAnyStringView21lengthHelperContainerIcLm8EEExRAT0__KT_
FNDA:0,_ZN14QAnyStringView21lengthHelperContainerIcLm8EEExRAT0__KT_
FN:166,_ZN14QAnyStringView21lengthHelperContainerIcLm17EEExRAT0__KT_
FNDA:0,_ZN14QAnyStringView21lengthHelperContainerIcLm17EEExRAT0__KT_
FN:166,_ZN14QAnyStringView21lengthHelperContainerIcLm12EEExRAT0__KT_
FNDA:31,_ZN14QAnyStringView21lengthHelperContainerIcLm12EEExRAT0__KT_
FN:186,_ZN14QAnyStringViewC2IcLb1EEEPKT_x
FNDA:0,_ZN14QAnyStringViewC2IcLb1EEEPKT_x
FN:214,_ZN14QAnyStringViewC2IA17_cLb1EEERKT_
FNDA:0,_ZN14QAnyStringViewC2IA17_cLb1EEERKT_
FN:214,_ZN14QAnyStringViewC2IA12_cLb1EEERKT_
FNDA:31,_ZN14QAnyStringViewC2IA12_cLb1EEERKT_
FN:214,_ZN14QAnyStringViewC2IA15_cLb1EEERKT_
FNDA:0,_ZN14QAnyStringViewC2IA15_cLb1EEERKT_
FN:214,_ZN14QAnyStringViewC2IA8_cLb1EEERKT_
FNDA:0,_ZN14QAnyStringViewC2IA8_cLb1EEERKT_
FN:214,_ZN14QAnyStringViewC2IA11_cLb1EEERKT_
FNDA:0,_ZN14QAnyStringViewC2IA11_cLb1EEERKT_
FN:214,_ZN14QAnyStringViewC2IA6_cLb1EEERKT_
FNDA:0,_ZN14QAnyStringViewC2IA6_cLb1EEERKT_
FN:214,_ZN14QAnyStringViewC2IA7_cLb1EEERKT_
FNDA:80,_ZN14QAnyStringViewC2IA7_cLb1EEERKT_
DA:101,0
DA:114,0
DA:131,0
DA:134,0
BRDA:134,0,0,-
BRDA:134,0,1,-
DA:135,0
BRDA:135,0,0,-
BRDA:135,0,1,-
DA:136,0
BRDA:136,0,0,-
BRDA:136,0,1,-
BRDA:136,0,2,-
BRDA:136,0,3,-
DA:137,0
DA:139,0
DA:166,80
DA:168,80
DA:169,80
BRDA:169,0,0,0
BRDA:169,0,1,80
DA:170,80
DA:166,0
DA:168,0
DA:169,0
BRDA:169,0,0,-
BRDA:169,0,1,-
DA:170,0
DA:166,0
DA:168,0
DA:169,0
BRDA:169,0,0,-
BRDA:169,0,1,-
DA:170,0
DA:166,31
DA:168,31
DA:169,31
BRDA:169,0,0,0
BRDA:169,0,1,31
DA:170,31
DA:166,0
DA:168,0
DA:169,0
BRDA:169,0,0,-
BRDA:169,0,1,-
DA:170,0
DA:166,0
DA:168,0
DA:169,0
BRDA:169,0,0,-
BRDA:169,0,1,-
DA:170,0
DA:166,0
DA:168,0
DA:169,0
BRDA:169,0,0,-
BRDA:169,0,1,-
DA:170,0
DA:186,0
DA:187,0
DA:189,0
DA:214,80
DA:215,80
DA:214,0
DA:215,0
DA:214,0
DA:215,0
DA:214,31
DA:215,31
DA:214,0
DA:215,0
DA:214,0
DA:215,0
DA:214,0
DA:215,0
end_of_record
SF:/usr/include/c++/11/ext/alloc_traits.h
FN:97,_ZN9__gnu_cxx14__alloc_traitsISaISt13_Rb_tree_nodeISt4pairIKP6QLabeliEEES7_E17_S_select_on_copyERKS8_
FNDA:0,_ZN9__gnu_cxx14__alloc_traitsISaISt13_Rb_tree_nodeISt4pairIKP6QLabeliEEES7_E17_S_select_on_copyERKS8_
FN:97,_ZN9__gnu_cxx14__alloc_traitsISaISt13_Rb_tree_nodeISt4pairIKP11QPushButtoniEEES7_E17_S_select_on_copyERKS8_
FNDA:0,_ZN9__gnu_cxx14__alloc_traitsISaISt13_Rb_tree_nodeISt4pairIKP11QPushButtoniEEES7_E17_S_select_on_copyERKS8_
DA:97,0
DA:98,0
DA:97,0
DA:98,0
end_of_record
SF:/usr/include/c++/11/bits/move.h
FN:49,_ZSt11__addressofI7QStringEPT_RS1_
FNDA:0,_ZSt11__addressofI7QStringEPT_RS1_
FN:49,_ZSt11__addressofI5QListIP11QPushButtonEEPT_RS4_
FNDA:0,_ZSt11__addressofI5QListIP11QPushButtonEEPT_RS4_
FN:77,_ZSt7forwardISt4pairIKP11QPushButtoniEEOT_RNSt16remove_referenceIS5_E4typeE
FNDA:0,_ZSt7forwardISt4pairIKP11QPushButtoniEEOT_RNSt16remove_referenceIS5_E4typeE
FN:77,_ZSt7forwardIiEOT_RNSt16remove_referenceIS0_E4typeE
FNDA:0,_ZSt7forwardIiEOT_RNSt16remove_referenceIS0_E4typeE
FN:77,_ZSt7forwardIbEOT_RNSt16remove_referenceIS0_E4typeE
FNDA:0,_ZSt7forwardIbEOT_RNSt16remove_referenceIS0_E4typeE
FN:77,_ZSt7forwardIDnEOT_RNSt16remove_referenceIS0_E4typeE
FNDA:0,_ZSt7forwardIDnEOT_RNSt16remove_referenceIS0_E4typeE
FN:77,_ZSt7forwardIM10SpojniceUiFvvEEOT_RNSt16remove_referenceIS3_E4typeE
FNDA:90,_ZSt7forwardIM10SpojniceUiFvvEEOT_RNSt16remove_referenceIS3_E4typeE
FN:77,_ZSt7forwardIP15QTypedArrayDataI7QStringEEOT_RNSt16remove_referenceIS4_E4typeE
FNDA:0,_ZSt7forwardIP15QTypedArrayDataI7QStringEEOT_RNSt16remove_referenceIS4_E4typeE
FN:77,_ZSt7forwardIP7QStringEOT_RNSt16remove_referenceIS2_E4typeE
FNDA:0,_ZSt7forwardIP7QStringEOT_RNSt16remove_referenceIS2_E4typeE
FN:77,_ZSt7forwardIP15QTypedArrayDataIiEEOT_RNSt16remove_referenceIS3_E4typeE
FNDA:0,_ZSt7forwardIP15QTypedArrayDataIiEEOT_RNSt16remove_referenceIS3_E4typeE
FN:77,_ZSt7forwardIPiEOT_RNSt16remove_referenceIS1_E4typeE
FNDA:0,_ZSt7forwardIPiEOT_RNSt16remove_referenceIS1_E4typeE
FN:77,_ZSt7forwardIRiEOT_RNSt16remove_referenceIS1_E4typeE
FNDA:0,_ZSt7forwardIRiEOT_RNSt16remove_referenceIS1_E4typeE
FN:77,_ZSt7forwardIRKSt4pairIKP6QLabeliEEOT_RNSt16remove_referenceIS7_E4typeE
FNDA:0,_ZSt7forwardIRKSt4pairIKP6QLabeliEEOT_RNSt16remove_referenceIS7_E4typeE
FN:77,_ZSt7forwardISt4pairIKP6QLabeliEEOT_RNSt16remove_referenceIS5_E4typeE
FNDA:336,_ZSt7forwardISt4pairIKP6QLabeliEEOT_RNSt16remove_referenceIS5_E4typeE
FN:77,_ZSt7forwardISt17_Rb_tree_iteratorISt4pairIKP11QPushButtoniEEEOT_RNSt16remove_referenceIS7_E4typeE
FNDA:0,_ZSt7forwardISt17_Rb_tree_iteratorISt4pairIKP11QPushButtoniEEEOT_RNSt16remove_referenceIS7_E4typeE
FN:77,_ZSt7forwardIRPSt13_Rb_tree_nodeISt4pairIKP11QPushButtoniEEEOT_RNSt16remove_referenceIS9_E4typeE
FNDA:0,_ZSt7forwardIRPSt13_Rb_tree_nodeISt4pairIKP11QPushButtoniEEEOT_RNSt16remove_referenceIS9_E4typeE
FN:77,_ZSt7forwardIRKSt4pairIKP11QPushButtoniEEOT_RNSt16remove_referenceIS7_E4typeE
FNDA:0,_ZSt7forwardIRKSt4pairIKP11QPushButtoniEEOT_RNSt16remove_referenceIS7_E4typeE
FN:77,_ZSt7forwardIRP11QPushButtonEOT_RNSt16remove_referenceIS3_E4typeE
FNDA:0,_ZSt7forwardIRP11QPushButtonEOT_RNSt16remove_referenceIS3_E4typeE
FN:77,_ZSt7forwardIRPSt13_Rb_tree_nodeISt4pairIKP6QLabeliEEEOT_RNSt16remove_referenceIS9_E4typeE
FNDA:48,_ZSt7forwardIRPSt13_Rb_tree_nodeISt4pairIKP6QLabeliEEEOT_RNSt16remove_referenceIS9_E4typeE
FN:77,_ZSt7forwardIRPSt18_Rb_tree_node_baseEOT_RNSt16remove_referenceIS3_E4typeE
FNDA:0,_ZSt7forwardIRPSt18_Rb_tree_node_baseEOT_RNSt16remove_referenceIS3_E4typeE
FN:77,_ZSt7forwardISt17_Rb_tree_iteratorISt4pairIKP6QLabeliEEEOT_RNSt16remove_referenceIS7_E4typeE
FNDA:48,_ZSt7forwardISt17_Rb_tree_iteratorISt4pairIKP6QLabeliEEEOT_RNSt16remove_referenceIS7_E4typeE
FN:77,_ZSt7forwardIPP11QPushButtonEOT_RNSt16remove_referenceIS3_E4typeE
FNDA:0,_ZSt7forwardIPP11QPushButtonEOT_RNSt16remove_referenceIS3_E4typeE
FN:77,_ZSt7forwardIP15QTypedArrayDataIP11QPushButtonEEOT_RNSt16remove_referenceIS5_E4typeE
FNDA:0,_ZSt7forwardIP15QTypedArrayDataIP11QPushButtonEEOT_RNSt16remove_referenceIS5_E4typeE
FN:104,_ZSt4moveIRP11QPushButtonEONSt16remove_referenceIT_E4typeEOS4_
FNDA:0,_ZSt4moveIRP11QPushButtonEONSt16remove_referenceIT_E4typeEOS4_
FN:104,_ZSt4moveIR7QStringEONSt16remove_referenceIT_E4typeEOS3_
FNDA:0,_ZSt4moveIR7QStringEONSt16remove_referenceIT_E4typeEOS3_
FN:104,_ZSt4moveIRiEONSt16remove_referenceIT_E4typeEOS2_
FNDA:47,_ZSt4moveIRiEONSt16remove_referenceIT_E4typeEOS2_
FN:104,_ZSt4moveIRP8QMapDataISt3mapIP6QLabeliSt4lessIS3_ESaISt4pairIKS3_iEEEEEONSt16remove_referenceIT_E4typeEOSF_
FNDA:6,_ZSt4moveIRP8QMapDataISt3mapIP6QLabeliSt4lessIS3_ESaISt4pairIKS3_iEEEEEONSt16remove_referenceIT_E4typeEOSF_
FN:104,_ZSt4moveIRxEONSt16remove_referenceIT_E4typeEOS2_
FNDA:0,_ZSt4moveIRxEONSt16remove_referenceIT_E4typeEOS2_
FN:104,_ZSt4moveIRPN6QDebug6StreamEEONSt16remove_referenceIT_E4typeEOS5_
FNDA:3,_ZSt4moveIRPN6QDebug6StreamEEONSt16remove_referenceIT_E4typeEOS5_
FN:104,_ZSt4moveIR17QArrayDataPointerIiEEONSt16remove_referenceIT_E4typeEOS4_
FNDA:13,_ZSt4moveIR17QArrayDataPointerIiEEONSt16remove_referenceIT_E4typeEOS4_
FN:104,_ZSt4moveIRP8QMapDataISt3mapIP11QPushButtoniSt4lessIS3_ESaISt4pairIKS3_iEEEEEONSt16remove_referenceIT_E4typeEOSF_
FNDA:6,_ZSt4moveIRP8QMapDataISt3mapIP11QPushButtoniSt4lessIS3_ESaISt4pairIKS3_iEEEEEONSt16remove_referenceIT_E4typeEOSF_
FN:104,_ZSt4moveIRN9QtPrivate30QExplicitlySharedDataPointerV2I8QMapDataISt3mapIP11QPushButtoniSt4lessIS5_ESaISt4pairIKS5_iEEEEEEEONSt16remove_referenceIT_E4typeEOSH_
FNDA:6,_ZSt4moveIRN9QtPrivate30QExplicitlySharedDataPointerV2I8QMapDataISt3mapIP11QPushButtoniSt4lessIS5_ESaISt4pairIKS5_iEEEEEEEONSt16remove_referenceIT_E4typeEOSH_
FN:104,_ZSt4moveIRN9QtPrivate30QExplicitlySharedDataPointerV2I8QMapDataISt3mapIP6QLabeliSt4lessIS5_ESaISt4pairIKS5_iEEEEEEEONSt16remove_referenceIT_E4typeEOSH_
FNDA:6,_ZSt4moveIRN9QtPrivate30QExplicitlySharedDataPointerV2I8QMapDataISt3mapIP6QLabeliSt4lessIS5_ESaISt4pairIKS5_iEEEEEEEONSt16remove_referenceIT_E4typeEOSH_
FN:104,_ZSt4moveIRSt4pairIP15QTypedArrayDataIiEPiEEONSt16remove_referenceIT_E4typeEOS8_
FNDA:0,_ZSt4moveIRSt4pairIP15QTypedArrayDataIiEPiEEONSt16remove_referenceIT_E4typeEOS8_
FN:104,_ZSt4moveIRSt4pairIP15QTypedArrayDataI7QStringEPS2_EEONSt16remove_referenceIT_E4typeEOS9_
FNDA:0,_ZSt4moveIRSt4pairIP15QTypedArrayDataI7QStringEPS2_EEONSt16remove_referenceIT_E4typeEOS9_
FN:104,_ZSt4moveIRSt4pairIP15QTypedArrayDataIP11QPushButtonEPS3_EEONSt16remove_referenceIT_E4typeEOSA_
FNDA:0,_ZSt4moveIRSt4pairIP15QTypedArrayDataIP11QPushButtonEPS3_EEONSt16remove_referenceIT_E4typeEOSA_
FN:104,_ZSt4moveIRM10SpojniceUiFvvEEONSt16remove_referenceIT_E4typeEOS5_
FNDA:45,_ZSt4moveIRM10SpojniceUiFvvEEONSt16remove_referenceIT_E4typeEOS5_
FN:104,_ZSt4moveIRSt4pairIKP11QPushButtoniEEONSt16remove_referenceIT_E4typeEOS7_
FNDA:0,_ZSt4moveIRSt4pairIKP11QPushButtoniEEONSt16remove_referenceIT_E4typeEOS7_
FN:104,_ZSt4moveIRSt4pairIKP6QLabeliEEONSt16remove_referenceIT_E4typeEOS7_
FNDA:48,_ZSt4moveIRSt4pairIKP6QLabeliEEONSt16remove_referenceIT_E4typeEOS7_
FN:157,_ZSt10__exchangeIPN6QDebug6StreamEDnET_RS3_OT0_
FNDA:3,_ZSt10__exchangeIPN6QDebug6StreamEDnET_RS3_OT0_
FN:157,_ZSt10__exchangeIP8QMapDataISt3mapIP11QPushButtoniSt4lessIS3_ESaISt4pairIKS3_iEEEEDnET_RSD_OT0_
FNDA:6,_ZSt10__exchangeIP8QMapDataISt3mapIP11QPushButtoniSt4lessIS3_ESaISt4pairIKS3_iEEEEDnET_RSD_OT0_
FN:157,_ZSt10__exchangeIP8QMapDataISt3mapIP6QLabeliSt4lessIS3_ESaISt4pairIKS3_iEEEEDnET_RSD_OT0_
FNDA:6,_ZSt10__exchangeIP8QMapDataISt3mapIP6QLabeliSt4lessIS3_ESaISt4pairIKS3_iEEEEDnET_RSD_OT0_
FN:196,_ZSt4swapIxENSt9enable_ifIXsrSt6__and_IJSt6__not_ISt15__is_tuple_likeIT_EESt21is_move_constructibleIS4_ESt18is_move_assignableIS4_EEE5valueEvE4typeERS4_SE_
FNDA:0,_ZSt4swapIxENSt9enable_ifIXsrSt6__and_IJSt6__not_ISt15__is_tuple_likeIT_EESt21is_move_constructibleIS4_ESt18is_move_assignableIS4_EEE5valueEvE4typeERS4_SE_
DA:49,0
DA:50,0
DA:49,0
DA:50,0
DA:77,336
DA:78,336
DA:77,0
DA:78,0
DA:77,0
DA:78,0
DA:77,0
DA:78,0
DA:77,90
DA:78,90
DA:77,0
DA:78,0
DA:77,0
DA:78,0
DA:77,0
DA:78,0
DA:77,0
DA:78,0
DA:77,0
DA:78,0
DA:77,0
DA:78,0
DA:77,0
DA:78,0
DA:77,0
DA:78,0
DA:77,48
DA:78,48
DA:77,0
DA:78,0
DA:77,0
DA:78,0
DA:77,0
DA:78,0
DA:77,0
DA:78,0
DA:77,48
DA:78,48
DA:77,0
DA:78,0
DA:77,0
DA:78,0
DA:104,0
DA:105,0
DA:104,0
DA:105,0
DA:104,0
DA:105,0
DA:104,0
DA:105,0
DA:104,6
DA:105,6
DA:104,6
DA:105,6
DA:104,48
DA:105,48
DA:104,0
DA:105,0
DA:104,45
DA:105,45
DA:104,6
DA:105,6
DA:104,6
DA:105,6
DA:104,13
DA:105,13
DA:104,3
DA:105,3
DA:104,0
DA:105,0
DA:104,47
DA:105,47
DA:104,0
DA:105,0
DA:157,6
DA:159,6
DA:160,6
DA:161,6
DA:157,6
DA:159,6
DA:160,6
DA:161,6
DA:157,3
DA:159,3
DA:160,3
DA:161,3
DA:196,0
DA:204,0
DA:205,0
DA:206,0
DA:207,0
end_of_record
SF:/usr/include/c++/11/bits/stl_map.h
FN:185,_ZNSt3mapIP6QLabeliSt4lessIS1_ESaISt4pairIKS1_iEEEC2Ev
FNDA:6,_ZNSt3mapIP6QLabeliSt4lessIS1_ESaISt4pairIKS1_iEEEC2Ev
FN:185,_ZNSt3mapIP11QPushButtoniSt4lessIS1_ESaISt4pairIKS1_iEEEC2Ev
FNDA:0,_ZNSt3mapIP11QPushButtoniSt4lessIS1_ESaISt4pairIKS1_iEEEC2Ev
FN:207,_ZNSt3mapIP6QLabeliSt4lessIS1_ESaISt4pairIKS1_iEEEC2ERKS8_
FNDA:0,_ZNSt3mapIP6QLabeliSt4lessIS1_ESaISt4pairIKS1_iEEEC2ERKS8_
FN:207,_ZNSt3mapIP11QPushButtoniSt4lessIS1_ESaISt4pairIKS1_iEEEC2ERKS8_
FNDA:0,_ZNSt3mapIP11QPushButtoniSt4lessIS1_ESaISt4pairIKS1_iEEEC2ERKS8_
FN:302,_ZNSt3mapIP6QLabeliSt4lessIS1_ESaISt4pairIKS1_iEEED2Ev
FNDA:1,_ZNSt3mapIP6QLabeliSt4lessIS1_ESaISt4pairIKS1_iEEED2Ev
FN:302,_ZNSt3mapIP11QPushButtoniSt4lessIS1_ESaISt4pairIKS1_iEEED2Ev
FNDA:0,_ZNSt3mapIP11QPushButtoniSt4lessIS1_ESaISt4pairIKS1_iEEED2Ev
FN:374,_ZNSt3mapIP6QLabeliSt4lessIS1_ESaISt4pairIKS1_iEEE3endEv
FNDA:48,_ZNSt3mapIP6QLabeliSt4lessIS1_ESaISt4pairIKS1_iEEE3endEv
FN:374,_ZNSt3mapIP11QPushButtoniSt4lessIS1_ESaISt4pairIKS1_iEEE3endEv
FNDA:0,_ZNSt3mapIP11QPushButtoniSt4lessIS1_ESaISt4pairIKS1_iEEE3endEv
FN:429,_ZNKSt3mapIP11QPushButtoniSt4lessIS1_ESaISt4pairIKS1_iEEE6cbeginEv
FNDA:0,_ZNKSt3mapIP11QPushButtoniSt4lessIS1_ESaISt4pairIKS1_iEEE6cbeginEv
FN:438,_ZNKSt3mapIP11QPushButtoniSt4lessIS1_ESaISt4pairIKS1_iEEE4cendEv
FNDA:0,_ZNKSt3mapIP11QPushButtoniSt4lessIS1_ESaISt4pairIKS1_iEEE4cendEv
FN:470,_ZNKSt3mapIP11QPushButtoniSt4lessIS1_ESaISt4pairIKS1_iEEE4sizeEv
FNDA:0,_ZNKSt3mapIP11QPushButtoniSt4lessIS1_ESaISt4pairIKS1_iEEE4sizeEv
FN:810,_ZNSt3mapIP6QLabeliSt4lessIS1_ESaISt4pairIKS1_iEEE6insertEOS6_
FNDA:48,_ZNSt3mapIP6QLabeliSt4lessIS1_ESaISt4pairIKS1_iEEE6insertEOS6_
FN:810,_ZNSt3mapIP11QPushButtoniSt4lessIS1_ESaISt4pairIKS1_iEEE6insertEOS6_
FNDA:0,_ZNSt3mapIP11QPushButtoniSt4lessIS1_ESaISt4pairIKS1_iEEE6insertEOS6_
FN:1169,_ZNSt3mapIP6QLabeliSt4lessIS1_ESaISt4pairIKS1_iEEE4findERS5_
FNDA:48,_ZNSt3mapIP6QLabeliSt4lessIS1_ESaISt4pairIKS1_iEEE4findERS5_
FN:1169,_ZNSt3mapIP11QPushButtoniSt4lessIS1_ESaISt4pairIKS1_iEEE4findERS5_
FNDA:0,_ZNSt3mapIP11QPushButtoniSt4lessIS1_ESaISt4pairIKS1_iEEE4findERS5_
DA:185,6
DA:185,0
DA:207,0
DA:207,0
DA:302,1
DA:302,0
DA:374,48
DA:375,48
DA:374,0
DA:375,0
DA:429,0
DA:430,0
DA:438,0
DA:439,0
DA:470,0
DA:471,0
DA:810,48
DA:811,48
DA:810,0
DA:811,0
DA:1169,48
DA:1170,48
DA:1169,0
DA:1170,0
end_of_record
SF:/home/pavle/Qt/6.6.1/gcc_64/include/QtCore/qlist.h
FN:113,_ZN5QListIP11QPushButtonE8iteratorC2EPS1_
FNDA:0,_ZN5QListIP11QPushButtonE8iteratorC2EPS1_
FN:113,_ZN5QListIiE8iteratorC2EPi
FNDA:128,_ZN5QListIiE8iteratorC2EPi
FN:132,_ZNK5QListIP11QPushButtonE8iteratordeEv
FNDA:0,_ZNK5QListIP11QPushButtonE8iteratordeEv
FN:132,_ZNK5QListIiE8iteratordeEv
FNDA:219,_ZNK5QListIiE8iteratordeEv
FN:136,_ZNK5QListIP11QPushButtonE8iteratorneES3_
FNDA:0,_ZNK5QListIP11QPushButtonE8iteratorneES3_
FN:149,_ZN5QListIP11QPushButtonE8iteratorppEv
FNDA:0,_ZN5QListIP11QPushButtonE8iteratorppEv
FN:174,_ZNK5QListIP11QPushButtonE8iteratormiEx
FNDA:0,_ZNK5QListIP11QPushButtonE8iteratormiEx
FN:174,_ZNK5QListIiE8iteratormiEx
FNDA:22,_ZNK5QListIiE8iteratormiEx
FN:184,_ZN5QListIiE14const_iteratorC2EPKi
FNDA:2,_ZN5QListIiE14const_iteratorC2EPKi
FN:184,_ZN5QListI7QStringE14const_iteratorC2EPKS0_
FNDA:0,_ZN5QListI7QStringE14const_iteratorC2EPKS0_
FN:204,_ZNK5QListIiE14const_iteratordeEv
FNDA:8,_ZNK5QListIiE14const_iteratordeEv
FN:204,_ZNK5QListI7QStringE14const_iteratordeEv
FNDA:3,_ZNK5QListI7QStringE14const_iteratordeEv
FN:208,_ZNK5QListIiE14const_iteratorneES1_
FNDA:9,_ZNK5QListIiE14const_iteratorneES1_
FN:208,_ZNK5QListI7QStringE14const_iteratorneES2_
FNDA:5,_ZNK5QListI7QStringE14const_iteratorneES2_
FN:221,_ZN5QListIiE14const_iteratorppEv
FNDA:8,_ZN5QListIiE14const_iteratorppEv
FN:221,_ZN5QListI7QStringE14const_iteratorppEv
FNDA:3,_ZN5QListI7QStringE14const_iteratorppEv
FN:269,_ZN5QListIP11QPushButtonEC2Ev
FNDA:0,_ZN5QListIP11QPushButtonEC2Ev
FN:269,_ZN5QListI7QStringEC2Ev
FNDA:0,_ZN5QListI7QStringEC2Ev
FN:269,_ZN5QListIiEC2Ev
FNDA:38,_ZN5QListIiEC2Ev
FN:270,_ZN5QListIiEC2Ex
FNDA:5,_ZN5QListIiEC2Ex
FN:283,_ZN5QListI7QStringEC2ESt16initializer_listIS0_E
FNDA:0,_ZN5QListI7QStringEC2ESt16initializer_listIS0_E
FN:386,_ZNK5QListIP11QPushButtonE4sizeEv
FNDA:0,_ZNK5QListIP11QPushButtonE4sizeEv
FN:386,_ZNK5QListIiE4sizeEv
FNDA:0,_ZNK5QListIiE4sizeEv
FN:388,_ZNK5QListIiE6lengthEv
FNDA:0,_ZNK5QListIiE6lengthEv
FN:405,_ZNK5QListIP11QPushButtonE8capacityEv
FNDA:0,_ZNK5QListIP11QPushButtonE8capacityEv
FN:409,_ZN5QListI7QStringE6detachEv
FNDA:0,_ZN5QListI7QStringE6detachEv
FN:409,_ZN5QListIP11QPushButtonE6detachEv
FNDA:0,_ZN5QListIP11QPushButtonE6detachEv
FN:409,_ZN5QListIiE6detachEv
FNDA:0,_ZN5QListIiE6detachEv
FN:414,_ZN5QListI7QStringE4dataEv
FNDA:0,_ZN5QListI7QStringE4dataEv
FN:414,_ZN5QListIiE4dataEv
FNDA:0,_ZN5QListIiE4dataEv
FN:434,_ZN5QListIiEixEx
FNDA:0,_ZN5QListIiEixEx
FN:434,_ZN5QListI7QStringEixEx
FNDA:0,_ZN5QListI7QStringEixEx
FN:441,_ZN5QListIP11QPushButtonE6appendES1_
FNDA:0,_ZN5QListIP11QPushButtonE6appendES1_
FN:441,_ZN5QListIiE6appendEi
FNDA:22,_ZN5QListIiE6appendEi
FN:608,_ZN5QListIP11QPushButtonE5beginEv
FNDA:0,_ZN5QListIP11QPushButtonE5beginEv
FN:609,_ZN5QListIiE3endEv
FNDA:56,_ZN5QListIiE3endEv
FN:609,_ZN5QListIP11QPushButtonE3endEv
FNDA:0,_ZN5QListIP11QPushButtonE3endEv
FN:611,_ZNK5QListI7QStringE5beginEv
FNDA:2,_ZNK5QListI7QStringE5beginEv
FN:611,_ZNK5QListIiE5beginEv
FNDA:1,_ZNK5QListIiE5beginEv
FN:612,_ZNK5QListI7QStringE3endEv
FNDA:2,_ZNK5QListI7QStringE3endEv
FN:612,_ZNK5QListIiE3endEv
FNDA:1,_ZNK5QListIiE3endEv
FN:672,_ZN5QListIP11QPushButtonE9push_backES1_
FNDA:0,_ZN5QListIP11QPushButtonE9push_backES1_
FN:672,_ZN5QListIiE9push_backEi
FNDA:20,_ZN5QListIiE9push_backEi
FN:746,_ZN5QListIP11QPushButtonE7reserveEx
FNDA:0,_ZN5QListIP11QPushButtonE7reserveEx
FN:875,_ZN5QListIiE11emplaceBackIJRiEEES2_DpOT_
FNDA:22,_ZN5QListIiE11emplaceBackIJRiEEES2_DpOT_
FN:875,_ZN5QListIP11QPushButtonE11emplaceBackIJRS1_EEES4_DpOT_
FNDA:0,_ZN5QListIP11QPushButtonE11emplaceBackIJRS1_EEES4_DpOT_
DA:113,128
DA:113,0
DA:132,219
DA:132,0
DA:136,0
DA:149,0
DA:174,0
DA:174,22
DA:184,2
DA:184,0
DA:204,8
DA:204,3
DA:208,9
DA:208,5
DA:221,8
DA:221,3
DA:269,0
DA:269,0
DA:269,38
DA:270,5
DA:271,5
DA:273,5
BRDA:273,0,0,5
BRDA:273,0,1,0
DA:274,5
DA:275,5
DA:283,0
DA:284,0
DA:286,0
BRDA:286,0,0,-
BRDA:286,0,1,-
DA:287,0
DA:288,0
DA:386,0
DA:386,0
DA:388,0
DA:405,0
DA:409,0
DA:409,0
DA:409,0
DA:414,0
DA:414,0
DA:434,0
DA:436,0
BRDA:436,0,0,-
BRDA:436,0,1,-
DA:438,0
DA:434,0
DA:436,0
BRDA:436,0,0,-
BRDA:436,0,1,-
DA:438,0
DA:441,0
DA:441,22
DA:608,0
DA:609,56
DA:609,0
DA:611,1
DA:611,2
DA:612,1
DA:612,2
DA:672,0
DA:672,20
DA:746,0
DA:749,0
BRDA:749,0,0,-
BRDA:749,0,1,-
DA:750,0
BRDA:750,0,0,-
BRDA:750,0,1,-
DA:751,0
DA:752,0
BRDA:752,0,0,-
BRDA:752,0,1,-
DA:754,0
DA:755,0
DA:759,0
BRDA:759,0,0,-
BRDA:759,0,1,-
DA:760,0
DA:761,0
BRDA:761,0,0,-
BRDA:761,0,1,-
DA:762,0
DA:763,0
DA:764,0
DA:875,0
DA:877,0
DA:878,0
DA:875,22
DA:877,22
DA:878,22
BRDA:878,0,0,22
BRDA:878,0,1,0
end_of_record
SF:/home/pavle/Qt/6.6.1/gcc_64/include/QtCore/qsize.h
FN:118,_ZN5QSizeC2Eii
FNDA:0,_ZN5QSizeC2Eii
FN:129,_ZNK5QSize5widthEv
FNDA:0,_ZNK5QSize5widthEv
FN:132,_ZNK5QSize6heightEv
FNDA:0,_ZNK5QSize6heightEv
DA:118,0
DA:129,0
DA:130,0
DA:132,0
DA:133,0
end_of_record
SF:/usr/include/c++/11/bits/stl_iterator_base_funcs.h
FN:98,_ZSt10__distanceIPKP11QPushButtonENSt15iterator_traitsIT_E15difference_typeES5_S5_St26random_access_iterator_tag
FNDA:0,_ZSt10__distanceIPKP11QPushButtonENSt15iterator_traitsIT_E15difference_typeES5_S5_St26random_access_iterator_tag
FN:98,_ZSt10__distanceIPKiENSt15iterator_traitsIT_E15difference_typeES3_S3_St26random_access_iterator_tag
FNDA:0,_ZSt10__distanceIPKiENSt15iterator_traitsIT_E15difference_typeES3_S3_St26random_access_iterator_tag
FN:98,_ZSt10__distanceIPKcENSt15iterator_traitsIT_E15difference_typeES3_S3_St26random_access_iterator_tag
FNDA:0,_ZSt10__distanceIPKcENSt15iterator_traitsIT_E15difference_typeES3_S3_St26random_access_iterator_tag
FN:138,_ZSt8distanceIPKP11QPushButtonENSt15iterator_traitsIT_E15difference_typeES5_S5_
FNDA:0,_ZSt8distanceIPKP11QPushButtonENSt15iterator_traitsIT_E15difference_typeES5_S5_
FN:138,_ZSt8distanceIPKiENSt15iterator_traitsIT_E15difference_typeES3_S3_
FNDA:0,_ZSt8distanceIPKiENSt15iterator_traitsIT_E15difference_typeES3_S3_
FN:138,_ZSt8distanceIPKcENSt15iterator_traitsIT_E15difference_typeES3_S3_
FNDA:0,_ZSt8distanceIPKcENSt15iterator_traitsIT_E15difference_typeES3_S3_
FN:174,_ZSt9__advanceIPKclEvRT_T0_St26random_access_iterator_tag
FNDA:0,_ZSt9__advanceIPKclEvRT_T0_St26random_access_iterator_tag
FN:202,_ZSt7advanceIPKclEvRT_T0_
FNDA:0,_ZSt7advanceIPKclEvRT_T0_
FN:213,_ZSt4nextIPKcET_S2_NSt15iterator_traitsIS2_E15difference_typeE
FNDA:0,_ZSt4nextIPKcET_S2_NSt15iterator_traitsIS2_E15difference_typeE
DA:98,0
DA:104,0
DA:98,0
DA:104,0
DA:98,0
DA:104,0
DA:138,0
DA:141,0
DA:142,0
DA:138,0
DA:141,0
DA:142,0
DA:138,0
DA:141,0
DA:142,0
DA:174,0
DA:185,0
DA:186,0
DA:202,0
DA:205,0
DA:206,0
DA:207,0
DA:213,0
DA:218,0
DA:219,0
end_of_record
SF:/usr/include/c++/11/atomic
FN:833,_ZNSt6atomicIiEC2Ei
FNDA:0,_ZNSt6atomicIiEC2Ei
DA:833,0
end_of_record
SF:/usr/include/c++/11/bits/stl_algo.h
FN:4285,_ZSt9transformISt23_Rb_tree_const_iteratorISt4pairIKP11QPushButtoniEESt20back_insert_iteratorI5QListIS3_EEZNK8QMapDataISt3mapIS3_iSt4lessIS3_ESaIS5_EEE4keysEvEUlRKT_E_ET0_SI_SI_SM_T1_
FNDA:0,_ZSt9transformISt23_Rb_tree_const_iteratorISt4pairIKP11QPushButtoniEESt20back_insert_iteratorI5QListIS3_EEZNK8QMapDataISt3mapIS3_iSt4lessIS3_ESaIS5_EEE4keysEvEUlRKT_E_ET0_SI_SI_SM_T1_
DA:4285,0
DA:4295,0
BRDA:4295,0,0,-
BRDA:4295,0,1,-
DA:4296,0
BRDA:4296,0,0,-
BRDA:4296,0,1,-
DA:4297,0
end_of_record
SF:/usr/include/c++/11/ext/new_allocator.h
FN:79,_ZN9__gnu_cxx13new_allocatorISt13_Rb_tree_nodeISt4pairIKP11QPushButtoniEEEC2Ev
FNDA:0,_ZN9__gnu_cxx13new_allocatorISt13_Rb_tree_nodeISt4pairIKP11QPushButtoniEEEC2Ev
FN:79,_ZN9__gnu_cxx13new_allocatorISt13_Rb_tree_nodeISt4pairIKP6QLabeliEEEC2Ev
FNDA:6,_ZN9__gnu_cxx13new_allocatorISt13_Rb_tree_nodeISt4pairIKP6QLabeliEEEC2Ev
FN:82,_ZN9__gnu_cxx13new_allocatorISt13_Rb_tree_nodeISt4pairIKP11QPushButtoniEEEC2ERKS8_
FNDA:0,_ZN9__gnu_cxx13new_allocatorISt13_Rb_tree_nodeISt4pairIKP11QPushButtoniEEEC2ERKS8_
FN:82,_ZN9__gnu_cxx13new_allocatorISt13_Rb_tree_nodeISt4pairIKP6QLabeliEEEC2ERKS8_
FNDA:0,_ZN9__gnu_cxx13new_allocatorISt13_Rb_tree_nodeISt4pairIKP6QLabeliEEEC2ERKS8_
FN:89,_ZN9__gnu_cxx13new_allocatorISt13_Rb_tree_nodeISt4pairIKP11QPushButtoniEEED2Ev
FNDA:0,_ZN9__gnu_cxx13new_allocatorISt13_Rb_tree_nodeISt4pairIKP11QPushButtoniEEED2Ev
FN:89,_ZN9__gnu_cxx13new_allocatorISt13_Rb_tree_nodeISt4pairIKP6QLabeliEEED2Ev
FNDA:1,_ZN9__gnu_cxx13new_allocatorISt13_Rb_tree_nodeISt4pairIKP6QLabeliEEED2Ev
FN:103,_ZN9__gnu_cxx13new_allocatorISt13_Rb_tree_nodeISt4pairIKP11QPushButtoniEEE8allocateEmPKv
FNDA:0,_ZN9__gnu_cxx13new_allocatorISt13_Rb_tree_nodeISt4pairIKP11QPushButtoniEEE8allocateEmPKv
FN:103,_ZN9__gnu_cxx13new_allocatorISt13_Rb_tree_nodeISt4pairIKP6QLabeliEEE8allocateEmPKv
FNDA:48,_ZN9__gnu_cxx13new_allocatorISt13_Rb_tree_nodeISt4pairIKP6QLabeliEEE8allocateEmPKv
FN:132,_ZN9__gnu_cxx13new_allocatorISt13_Rb_tree_nodeISt4pairIKP6QLabeliEEE10deallocateEPS7_m
FNDA:8,_ZN9__gnu_cxx13new_allocatorISt13_Rb_tree_nodeISt4pairIKP6QLabeliEEE10deallocateEPS7_m
FN:132,_ZN9__gnu_cxx13new_allocatorISt13_Rb_tree_nodeISt4pairIKP11QPushButtoniEEE10deallocateEPS7_m
FNDA:0,_ZN9__gnu_cxx13new_allocatorISt13_Rb_tree_nodeISt4pairIKP11QPushButtoniEEE10deallocateEPS7_m
FN:160,_ZN9__gnu_cxx13new_allocatorISt13_Rb_tree_nodeISt4pairIKP11QPushButtoniEEE9constructIS6_JS6_EEEvPT_DpOT0_
FNDA:0,_ZN9__gnu_cxx13new_allocatorISt13_Rb_tree_nodeISt4pairIKP11QPushButtoniEEE9constructIS6_JS6_EEEvPT_DpOT0_
FN:160,_ZN9__gnu_cxx13new_allocatorISt13_Rb_tree_nodeISt4pairIKP6QLabeliEEE9constructIS6_JS6_EEEvPT_DpOT0_
FNDA:48,_ZN9__gnu_cxx13new_allocatorISt13_Rb_tree_nodeISt4pairIKP6QLabeliEEE9constructIS6_JS6_EEEvPT_DpOT0_
FN:160,_ZN9__gnu_cxx13new_allocatorISt13_Rb_tree_nodeISt4pairIKP11QPushButtoniEEE9constructIS6_JRKS6_EEEvPT_DpOT0_
FNDA:0,_ZN9__gnu_cxx13new_allocatorISt13_Rb_tree_nodeISt4pairIKP11QPushButtoniEEE9constructIS6_JRKS6_EEEvPT_DpOT0_
FN:160,_ZN9__gnu_cxx13new_allocatorISt13_Rb_tree_nodeISt4pairIKP6QLabeliEEE9constructIS6_JRKS6_EEEvPT_DpOT0_
FNDA:0,_ZN9__gnu_cxx13new_allocatorISt13_Rb_tree_nodeISt4pairIKP6QLabeliEEE9constructIS6_JRKS6_EEEvPT_DpOT0_
FN:166,_ZN9__gnu_cxx13new_allocatorISt13_Rb_tree_nodeISt4pairIKP6QLabeliEEE7destroyIS6_EEvPT_
FNDA:8,_ZN9__gnu_cxx13new_allocatorISt13_Rb_tree_nodeISt4pairIKP6QLabeliEEE7destroyIS6_EEvPT_
FN:166,_ZN9__gnu_cxx13new_allocatorISt13_Rb_tree_nodeISt4pairIKP11QPushButtoniEEE7destroyIS6_EEvPT_
FNDA:0,_ZN9__gnu_cxx13new_allocatorISt13_Rb_tree_nodeISt4pairIKP11QPushButtoniEEE7destroyIS6_EEvPT_
FN:197,_ZNK9__gnu_cxx13new_allocatorISt13_Rb_tree_nodeISt4pairIKP11QPushButtoniEEE11_M_max_sizeEv
FNDA:0,_ZNK9__gnu_cxx13new_allocatorISt13_Rb_tree_nodeISt4pairIKP11QPushButtoniEEE11_M_max_sizeEv
FN:197,_ZNK9__gnu_cxx13new_allocatorISt13_Rb_tree_nodeISt4pairIKP6QLabeliEEE11_M_max_sizeEv
FNDA:48,_ZNK9__gnu_cxx13new_allocatorISt13_Rb_tree_nodeISt4pairIKP6QLabeliEEE11_M_max_sizeEv
DA:79,6
DA:79,0
DA:82,0
DA:82,0
DA:89,1
DA:89,0
DA:103,48
DA:111,48
BRDA:111,0,0,0
BRDA:111,0,1,48
DA:115,0
BRDA:115,0,0,-
BRDA:115,0,1,-
DA:116,0
DA:117,0
DA:127,48
DA:103,0
DA:111,0
BRDA:111,0,0,-
BRDA:111,0,1,-
DA:115,0
BRDA:115,0,0,-
BRDA:115,0,1,-
DA:116,0
DA:117,0
DA:127,0
DA:132,8
DA:145,8
DA:132,0
DA:145,0
DA:160,0
DA:162,0
DA:160,0
DA:162,0
DA:160,48
DA:162,48
DA:160,0
DA:162,0
DA:166,8
DA:168,8
DA:166,0
DA:168,0
DA:197,48
DA:200,48
DA:197,0
DA:200,0
end_of_record
SF:/home/pavle/Qt/6.6.1/gcc_64/include/QtCore/qbasicatomic.h
FN:38,_ZNK19QBasicAtomicIntegerIiE11loadRelaxedEv
FNDA:0,_ZNK19QBasicAtomicIntegerIiE11loadRelaxedEv
FN:49,_ZN19QBasicAtomicIntegerIiE3refEv
FNDA:0,_ZN19QBasicAtomicIntegerIiE3refEv
FN:50,_ZN19QBasicAtomicIntegerIiE5derefEv
FNDA:0,_ZN19QBasicAtomicIntegerIiE5derefEv
FN:155,_ZN19QBasicAtomicIntegerIiEC2Ei
FNDA:0,_ZN19QBasicAtomicIntegerIiEC2Ei
DA:38,0
DA:49,0
DA:50,0
DA:155,0
end_of_record
SF:/home/pavle/Qt/6.6.1/gcc_64/include/QtCore/qbytearrayview.h
FN:67,_ZN9QtPrivateL19lengthHelperPointerIcEExPKT_
FNDA:0,_ZN9QtPrivateL19lengthHelperPointerIcEExPKT_
FN:116,_ZN14QByteArrayView21lengthHelperCharArrayEPKcm
FNDA:0,_ZN14QByteArrayView21lengthHelperCharArrayEPKcm
FN:126,_ZN14QByteArrayView10castHelperEPKc
FNDA:0,_ZN14QByteArrayView10castHelperEPKc
FN:136,_ZN14QByteArrayViewC2IcLb1EEEPKT_x
FNDA:0,_ZN14QByteArrayViewC2IcLb1EEEPKT_x
FN:149,_ZN14QByteArrayViewC2IPKcLb1EEERKT_
FNDA:0,_ZN14QByteArrayViewC2IPKcLb1EEERKT_
FN:158,_ZN14QByteArrayViewC2I10QByteArrayLb1EEERKT_
FNDA:0,_ZN14QByteArrayViewC2I10QByteArrayLb1EEERKT_
FN:166,_ZN14QByteArrayViewC2ILm74EEERAT__Kc
FNDA:40,_ZN14QByteArrayViewC2ILm74EEERAT__Kc
FN:166,_ZN14QByteArrayViewC2ILm92EEERAT__Kc
FNDA:5,_ZN14QByteArrayViewC2ILm92EEERAT__Kc
FN:166,_ZN14QByteArrayViewC2ILm58EEERAT__Kc
FNDA:5,_ZN14QByteArrayViewC2ILm58EEERAT__Kc
FN:166,_ZN14QByteArrayViewC2ILm51EEERAT__Kc
FNDA:0,_ZN14QByteArrayViewC2ILm51EEERAT__Kc
FN:166,_ZN14QByteArrayViewC2ILm145EEERAT__Kc
FNDA:5,_ZN14QByteArrayViewC2ILm145EEERAT__Kc
FN:166,_ZN14QByteArrayViewC2ILm38EEERAT__Kc
FNDA:0,_ZN14QByteArrayViewC2ILm38EEERAT__Kc
FN:166,_ZN14QByteArrayViewC2ILm52EEERAT__Kc
FNDA:10,_ZN14QByteArrayViewC2ILm52EEERAT__Kc
FN:166,_ZN14QByteArrayViewC2ILm8EEERAT__Kc
FNDA:0,_ZN14QByteArrayViewC2ILm8EEERAT__Kc
FN:166,_ZN14QByteArrayViewC2ILm233EEERAT__Kc
FNDA:5,_ZN14QByteArrayViewC2ILm233EEERAT__Kc
DA:67,0
DA:69,0
DA:116,0
DA:118,0
DA:119,0
BRDA:119,0,0,-
BRDA:119,0,1,-
DA:120,0
DA:126,0
DA:127,0
DA:136,0
DA:137,0
BRDA:137,0,0,-
BRDA:137,0,1,-
BRDA:137,0,2,-
BRDA:137,0,3,-
BRDA:137,0,4,-
BRDA:137,0,5,-
DA:138,0
DA:149,0
DA:151,0
BRDA:151,0,0,-
BRDA:151,0,1,-
DA:158,0
DA:159,0
BRDA:159,0,0,-
BRDA:159,0,1,-
DA:166,40
DA:167,40
DA:166,5
DA:167,5
DA:166,5
DA:167,5
DA:166,0
DA:167,0
DA:166,5
DA:167,5
DA:166,0
DA:167,0
DA:166,10
DA:167,10
DA:166,0
DA:167,0
DA:166,5
DA:167,5
end_of_record
SF:/usr/include/c++/11/bits/range_access.h
FN:61,_ZSt5beginI17QArrayDataPointerIP11QPushButtonEEDTcldtfp_5beginEERKT_
FNDA:0,_ZSt5beginI17QArrayDataPointerIP11QPushButtonEEDTcldtfp_5beginEERKT_
FN:61,_ZSt5beginI17QArrayDataPointerIiEEDTcldtfp_5beginEERKT_
FNDA:0,_ZSt5beginI17QArrayDataPointerIiEEDTcldtfp_5beginEERKT_
FN:81,_ZSt3endI17QArrayDataPointerIP11QPushButtonEEDTcldtfp_3endEERKT_
FNDA:0,_ZSt3endI17QArrayDataPointerIP11QPushButtonEEDTcldtfp_3endEERKT_
FN:81,_ZSt3endI17QArrayDataPointerIiEEDTcldtfp_3endEERKT_
FNDA:0,_ZSt3endI17QArrayDataPointerIiEEDTcldtfp_3endEERKT_
FN:300,_ZSt4dataI17QArrayDataPointerIP11QPushButtonEEDTcldtfp_4dataEERKT_
FNDA:0,_ZSt4dataI17QArrayDataPointerIP11QPushButtonEEDTcldtfp_4dataEERKT_
FN:300,_ZSt4dataI17QArrayDataPointerIiEEDTcldtfp_4dataEERKT_
FNDA:0,_ZSt4dataI17QArrayDataPointerIiEEDTcldtfp_4dataEERKT_
FN:310,_ZSt4dataIKcLm7EEPT_RAT0__S1_
FNDA:80,_ZSt4dataIKcLm7EEPT_RAT0__S1_
FN:310,_ZSt4dataIKcLm6EEPT_RAT0__S1_
FNDA:0,_ZSt4dataIKcLm6EEPT_RAT0__S1_
FN:310,_ZSt4dataIKcLm8EEPT_RAT0__S1_
FNDA:0,_ZSt4dataIKcLm8EEPT_RAT0__S1_
FN:310,_ZSt4dataIKcLm12EEPT_RAT0__S1_
FNDA:31,_ZSt4dataIKcLm12EEPT_RAT0__S1_
FN:310,_ZSt4dataIKcLm17EEPT_RAT0__S1_
FNDA:0,_ZSt4dataIKcLm17EEPT_RAT0__S1_
FN:310,_ZSt4dataIKcLm15EEPT_RAT0__S1_
FNDA:0,_ZSt4dataIKcLm15EEPT_RAT0__S1_
FN:310,_ZSt4dataIKcLm11EEPT_RAT0__S1_
FNDA:0,_ZSt4dataIKcLm11EEPT_RAT0__S1_
DA:61,0
DA:62,0
DA:61,0
DA:62,0
DA:81,0
DA:82,0
DA:81,0
DA:82,0
DA:300,0
DA:302,0
DA:300,0
DA:302,0
DA:310,80
DA:311,80
DA:310,0
DA:311,0
DA:310,0
DA:311,0
DA:310,31
DA:311,31
DA:310,0
DA:311,0
DA:310,0
DA:311,0
DA:310,0
DA:311,0
end_of_record
SF:/home/pavle/Qt/6.6.1/gcc_64/include/QtCore/qcontainertools_impl.h
FN:36,_ZN9QtPrivateL19q_points_into_rangeIP11QPushButtonSt4lessIvEEEbPKT_S7_S7_T0_
FNDA:0,_ZN9QtPrivateL19q_points_into_rangeIP11QPushButtonSt4lessIvEEEbPKT_S7_S7_T0_
FN:36,_ZN9QtPrivateL19q_points_into_rangeIiSt4lessIvEEEbPKT_S5_S5_T0_
FNDA:0,_ZN9QtPrivateL19q_points_into_rangeIiSt4lessIvEEEbPKT_S5_S5_T0_
FN:49,_ZN9QtPrivateL19q_points_into_rangeI17QArrayDataPointerIP11QPushButtonEPKS3_EEbRKT0_RKT_
FNDA:0,_ZN9QtPrivateL19q_points_into_rangeI17QArrayDataPointerIP11QPushButtonEPKS3_EEbRKT0_RKT_
FN:49,_ZN9QtPrivateL19q_points_into_rangeI17QArrayDataPointerIiEPKiEEbRKT0_RKT_
FNDA:0,_ZN9QtPrivateL19q_points_into_rangeI17QArrayDataPointerIiEPKiEEbRKT0_RKT_
FN:234,_ZN9QtPrivate20q_relocate_overlap_nIP11QPushButtonxEEvPT_T0_S4_
FNDA:0,_ZN9QtPrivate20q_relocate_overlap_nIP11QPushButtonxEEvPT_T0_S4_
FN:234,_ZN9QtPrivate20q_relocate_overlap_nIixEEvPT_T0_S2_
FNDA:0,_ZN9QtPrivate20q_relocate_overlap_nIixEEvPT_T0_S2_
DA:36,0
DA:39,0
BRDA:39,0,0,-
BRDA:39,0,1,-
BRDA:39,0,2,-
BRDA:39,0,3,-
DA:36,0
DA:39,0
BRDA:39,0,0,-
BRDA:39,0,1,-
BRDA:39,0,2,-
BRDA:39,0,3,-
DA:49,0
DA:55,0
DA:56,0
DA:49,0
DA:55,0
DA:56,0
DA:234,0
DA:239,0
BRDA:239,0,0,-
BRDA:239,0,1,-
BRDA:239,0,2,-
BRDA:239,0,3,-
BRDA:239,0,4,-
BRDA:239,0,5,-
BRDA:239,0,6,-
BRDA:239,0,7,-
DA:240,0
DA:243,0
DA:234,0
DA:239,0
BRDA:239,0,0,-
BRDA:239,0,1,-
BRDA:239,0,2,-
BRDA:239,0,3,-
BRDA:239,0,4,-
BRDA:239,0,5,-
BRDA:239,0,6,-
BRDA:239,0,7,-
DA:240,0
DA:243,0
end_of_record
SF:/home/pavle/Qt/6.6.1/gcc_64/include/QtCore/qminmax.h
FN:40,_Z4qMinIiERKT_S2_S2_
FNDA:30,_Z4qMinIiERKT_S2_S2_
FN:42,_Z4qMaxIxERKT_S2_S2_
FNDA:0,_Z4qMaxIxERKT_S2_S2_
FN:42,_Z4qMaxIiERKT_S2_S2_
FNDA:30,_Z4qMaxIiERKT_S2_S2_
FN:44,_Z6qBoundIiERKT_S2_S2_S2_
FNDA:30,_Z6qBoundIiERKT_S2_S2_S2_
FN:58,_Z4qMaxIixEN11QTypeTraits6detail8PromotedIT_T0_NSt9enable_ifIXaaaaaaaaaaaaaa15is_arithmetic_vIS3_E15is_arithmetic_vIS4_Eeq19is_floating_point_vIS3_E19is_floating_point_vIS4_Eeq11is_signed_vIS3_E11is_signed_vIS4_Ent9is_same_vIS3_bEnt9is_same_vIS4_bEnt9is_same_vIS3_cEnt9is_same_vIS4_cEEvE4typeEE4typeERKS3_RKS4_
FNDA:0,_Z4qMaxIixEN11QTypeTraits6detail8PromotedIT_T0_NSt9enable_ifIXaaaaaaaaaaaaaa15is_arithmetic_vIS3_E15is_arithmetic_vIS4_Eeq19is_floating_point_vIS3_E19is_floating_point_vIS4_Eeq11is_signed_vIS3_E11is_signed_vIS4_Ent9is_same_vIS3_bEnt9is_same_vIS4_bEnt9is_same_vIS3_cEnt9is_same_vIS4_cEEvE4typeEE4typeERKS3_RKS4_
DA:40,30
BRDA:40,0,0,0
BRDA:40,0,1,30
DA:42,0
BRDA:42,0,0,-
BRDA:42,0,1,-
DA:42,30
BRDA:42,0,0,0
BRDA:42,0,1,30
DA:44,30
DA:46,30
BRDA:46,0,0,0
BRDA:46,0,1,30
DA:47,30
DA:58,0
DA:61,0
DA:62,0
DA:63,0
BRDA:63,0,0,-
BRDA:63,0,1,-
end_of_record
SF:/usr/include/c++/11/bits/stl_tree.h
FN:112,_ZNSt18_Rb_tree_node_base10_S_minimumEPS_
FNDA:0,_ZNSt18_Rb_tree_node_base10_S_minimumEPS_
FN:126,_ZNSt18_Rb_tree_node_base10_S_maximumEPS_
FNDA:0,_ZNSt18_Rb_tree_node_base10_S_maximumEPS_
FN:146,_ZNSt20_Rb_tree_key_compareISt4lessIP6QLabelEEC2Ev
FNDA:6,_ZNSt20_Rb_tree_key_compareISt4lessIP6QLabelEEC2Ev
FN:146,_ZNSt20_Rb_tree_key_compareISt4lessIP11QPushButtonEEC2Ev
FNDA:0,_ZNSt20_Rb_tree_key_compareISt4lessIP11QPushButtonEEC2Ev
FN:152,_ZNSt20_Rb_tree_key_compareISt4lessIP6QLabelEEC2ERKS3_
FNDA:0,_ZNSt20_Rb_tree_key_compareISt4lessIP6QLabelEEC2ERKS3_
FN:152,_ZNSt20_Rb_tree_key_compareISt4lessIP11QPushButtonEEC2ERKS3_
FNDA:0,_ZNSt20_Rb_tree_key_compareISt4lessIP11QPushButtonEEC2ERKS3_
FN:173,_ZNSt15_Rb_tree_headerC2Ev
FNDA:0,_ZNSt15_Rb_tree_headerC2Ev
FN:206,_ZNSt15_Rb_tree_header8_M_resetEv
FNDA:0,_ZNSt15_Rb_tree_header8_M_resetEv
FN:234,_ZNSt13_Rb_tree_nodeISt4pairIKP11QPushButtoniEE9_M_valptrEv
FNDA:0,_ZNSt13_Rb_tree_nodeISt4pairIKP11QPushButtoniEE9_M_valptrEv
FN:234,_ZNSt13_Rb_tree_nodeISt4pairIKP6QLabeliEE9_M_valptrEv
FNDA:104,_ZNSt13_Rb_tree_nodeISt4pairIKP6QLabeliEE9_M_valptrEv
FN:238,_ZNKSt13_Rb_tree_nodeISt4pairIKP6QLabeliEE9_M_valptrEv
FNDA:291,_ZNKSt13_Rb_tree_nodeISt4pairIKP6QLabeliEE9_M_valptrEv
FN:238,_ZNKSt13_Rb_tree_nodeISt4pairIKP11QPushButtoniEE9_M_valptrEv
FNDA:0,_ZNKSt13_Rb_tree_nodeISt4pairIKP11QPushButtoniEE9_M_valptrEv
FN:273,_ZNSt17_Rb_tree_iteratorISt4pairIKP11QPushButtoniEEC2EPSt18_Rb_tree_node_base
FNDA:0,_ZNSt17_Rb_tree_iteratorISt4pairIKP11QPushButtoniEEC2EPSt18_Rb_tree_node_base
FN:273,_ZNSt17_Rb_tree_iteratorISt4pairIKP6QLabeliEEC2EPSt18_Rb_tree_node_base
FNDA:308,_ZNSt17_Rb_tree_iteratorISt4pairIKP6QLabeliEEC2EPSt18_Rb_tree_node_base
FN:281,_ZNKSt17_Rb_tree_iteratorISt4pairIKP6QLabeliEEptEv
FNDA:48,_ZNKSt17_Rb_tree_iteratorISt4pairIKP6QLabeliEEptEv
FN:281,_ZNKSt17_Rb_tree_iteratorISt4pairIKP11QPushButtoniEEptEv
FNDA:0,_ZNKSt17_Rb_tree_iteratorISt4pairIKP11QPushButtoniEEptEv
FN:300,_ZNSt17_Rb_tree_iteratorISt4pairIKP11QPushButtoniEEmmEv
FNDA:0,_ZNSt17_Rb_tree_iteratorISt4pairIKP11QPushButtoniEEmmEv
FN:300,_ZNSt17_Rb_tree_iteratorISt4pairIKP6QLabeliEEmmEv
FNDA:6,_ZNSt17_Rb_tree_iteratorISt4pairIKP6QLabeliEEmmEv
FN:315,_ZSteqRKSt17_Rb_tree_iteratorISt4pairIKP6QLabeliEES7_
FNDA:116,_ZSteqRKSt17_Rb_tree_iteratorISt4pairIKP6QLabeliEES7_
FN:315,_ZSteqRKSt17_Rb_tree_iteratorISt4pairIKP11QPushButtoniEES7_
FNDA:0,_ZSteqRKSt17_Rb_tree_iteratorISt4pairIKP11QPushButtoniEES7_
FN:347,_ZNSt23_Rb_tree_const_iteratorISt4pairIKP11QPushButtoniEEC2EPKSt18_Rb_tree_node_base
FNDA:0,_ZNSt23_Rb_tree_const_iteratorISt4pairIKP11QPushButtoniEEC2EPKSt18_Rb_tree_node_base
FN:358,_ZNKSt23_Rb_tree_const_iteratorISt4pairIKP11QPushButtoniEEdeEv
FNDA:0,_ZNKSt23_Rb_tree_const_iteratorISt4pairIKP11QPushButtoniEEdeEv
FN:366,_ZNSt23_Rb_tree_const_iteratorISt4pairIKP11QPushButtoniEEppEv
FNDA:0,_ZNSt23_Rb_tree_const_iteratorISt4pairIKP11QPushButtoniEEppEv
FN:401,_ZStneRKSt23_Rb_tree_const_iteratorISt4pairIKP11QPushButtoniEES7_
FNDA:0,_ZStneRKSt23_Rb_tree_const_iteratorISt4pairIKP11QPushButtoniEES7_
FN:523,_ZNSt8_Rb_treeIP6QLabelSt4pairIKS1_iESt10_Select1stIS4_ESt4lessIS1_ESaIS4_EE11_Alloc_nodeC2ERSA_
FNDA:48,_ZNSt8_Rb_treeIP6QLabelSt4pairIKS1_iESt10_Select1stIS4_ESt4lessIS1_ESaIS4_EE11_Alloc_nodeC2ERSA_
FN:523,_ZNSt8_Rb_treeIP11QPushButtonSt4pairIKS1_iESt10_Select1stIS4_ESt4lessIS1_ESaIS4_EE11_Alloc_nodeC2ERSA_
FNDA:0,_ZNSt8_Rb_treeIP11QPushButtonSt4pairIKS1_iESt10_Select1stIS4_ESt4lessIS1_ESaIS4_EE11_Alloc_nodeC2ERSA_
FN:528,_ZNKSt8_Rb_treeIP11QPushButtonSt4pairIKS1_iESt10_Select1stIS4_ESt4lessIS1_ESaIS4_EE11_Alloc_nodeclIS4_EEPSt13_Rb_tree_nodeIS4_EOT_
FNDA:0,_ZNKSt8_Rb_treeIP11QPushButtonSt4pairIKS1_iESt10_Select1stIS4_ESt4lessIS1_ESaIS4_EE11_Alloc_nodeclIS4_EEPSt13_Rb_tree_nodeIS4_EOT_
FN:528,_ZNKSt8_Rb_treeIP6QLabelSt4pairIKS1_iESt10_Select1stIS4_ESt4lessIS1_ESaIS4_EE11_Alloc_nodeclIRKS4_EEPSt13_Rb_tree_nodeIS4_EOT_
FNDA:0,_ZNKSt8_Rb_treeIP6QLabelSt4pairIKS1_iESt10_Select1stIS4_ESt4lessIS1_ESaIS4_EE11_Alloc_nodeclIRKS4_EEPSt13_Rb_tree_nodeIS4_EOT_
FN:528,_ZNKSt8_Rb_treeIP11QPushButtonSt4pairIKS1_iESt10_Select1stIS4_ESt4lessIS1_ESaIS4_EE11_Alloc_nodeclIRKS4_EEPSt13_Rb_tree_nodeIS4_EOT_
FNDA:0,_ZNKSt8_Rb_treeIP11QPushButtonSt4pairIKS1_iESt10_Select1stIS4_ESt4lessIS1_ESaIS4_EE11_Alloc_nodeclIRKS4_EEPSt13_Rb_tree_nodeIS4_EOT_
FN:528,_ZNKSt8_Rb_treeIP6QLabelSt4pairIKS1_iESt10_Select1stIS4_ESt4lessIS1_ESaIS4_EE11_Alloc_nodeclIS4_EEPSt13_Rb_tree_nodeIS4_EOT_
FNDA:48,_ZNKSt8_Rb_treeIP6QLabelSt4pairIKS1_iESt10_Select1stIS4_ESt4lessIS1_ESaIS4_EE11_Alloc_nodeclIS4_EEPSt13_Rb_tree_nodeIS4_EOT_
FN:547,_ZNSt8_Rb_treeIP6QLabelSt4pairIKS1_iESt10_Select1stIS4_ESt4lessIS1_ESaIS4_EE21_M_get_Node_allocatorEv
FNDA:112,_ZNSt8_Rb_treeIP6QLabelSt4pairIKS1_iESt10_Select1stIS4_ESt4lessIS1_ESaIS4_EE21_M_get_Node_allocatorEv
FN:547,_ZNSt8_Rb_treeIP11QPushButtonSt4pairIKS1_iESt10_Select1stIS4_ESt4lessIS1_ESaIS4_EE21_M_get_Node_allocatorEv
FNDA:0,_ZNSt8_Rb_treeIP11QPushButtonSt4pairIKS1_iESt10_Select1stIS4_ESt4lessIS1_ESaIS4_EE21_M_get_Node_allocatorEv
FN:560,_ZNSt8_Rb_treeIP11QPushButtonSt4pairIKS1_iESt10_Select1stIS4_ESt4lessIS1_ESaIS4_EE11_M_get_nodeEv
FNDA:0,_ZNSt8_Rb_treeIP11QPushButtonSt4pairIKS1_iESt10_Select1stIS4_ESt4lessIS1_ESaIS4_EE11_M_get_nodeEv
FN:560,_ZNSt8_Rb_treeIP6QLabelSt4pairIKS1_iESt10_Select1stIS4_ESt4lessIS1_ESaIS4_EE11_M_get_nodeEv
FNDA:48,_ZNSt8_Rb_treeIP6QLabelSt4pairIKS1_iESt10_Select1stIS4_ESt4lessIS1_ESaIS4_EE11_M_get_nodeEv
FN:564,_ZNSt8_Rb_treeIP6QLabelSt4pairIKS1_iESt10_Select1stIS4_ESt4lessIS1_ESaIS4_EE11_M_put_nodeEPSt13_Rb_tree_nodeIS4_E
FNDA:8,_ZNSt8_Rb_treeIP6QLabelSt4pairIKS1_iESt10_Select1stIS4_ESt4lessIS1_ESaIS4_EE11_M_put_nodeEPSt13_Rb_tree_nodeIS4_E
FN:564,_ZNSt8_Rb_treeIP11QPushButtonSt4pairIKS1_iESt10_Select1stIS4_ESt4lessIS1_ESaIS4_EE11_M_put_nodeEPSt13_Rb_tree_nodeIS4_E
FNDA:0,_ZNSt8_Rb_treeIP11QPushButtonSt4pairIKS1_iESt10_Select1stIS4_ESt4lessIS1_ESaIS4_EE11_M_put_nodeEPSt13_Rb_tree_nodeIS4_E
FN:590,_ZNSt8_Rb_treeIP6QLabelSt4pairIKS1_iESt10_Select1stIS4_ESt4lessIS1_ESaIS4_EE17_M_construct_nodeIJS4_EEEvPSt13_Rb_tree_nodeIS4_EDpOT_
FNDA:48,_ZNSt8_Rb_treeIP6QLabelSt4pairIKS1_iESt10_Select1stIS4_ESt4lessIS1_ESaIS4_EE17_M_construct_nodeIJS4_EEEvPSt13_Rb_tree_nodeIS4_EDpOT_
FN:590,_ZNSt8_Rb_treeIP6QLabelSt4pairIKS1_iESt10_Select1stIS4_ESt4lessIS1_ESaIS4_EE17_M_construct_nodeIJRKS4_EEEvPSt13_Rb_tree_nodeIS4_EDpOT_
FNDA:0,_ZNSt8_Rb_treeIP6QLabelSt4pairIKS1_iESt10_Select1stIS4_ESt4lessIS1_ESaIS4_EE17_M_construct_nodeIJRKS4_EEEvPSt13_Rb_tree_nodeIS4_EDpOT_
FN:590,_ZNSt8_Rb_treeIP11QPushButtonSt4pairIKS1_iESt10_Select1stIS4_ESt4lessIS1_ESaIS4_EE17_M_construct_nodeIJS4_EEEvPSt13_Rb_tree_nodeIS4_EDpOT_
FNDA:0,_ZNSt8_Rb_treeIP11QPushButtonSt4pairIKS1_iESt10_Select1stIS4_ESt4lessIS1_ESaIS4_EE17_M_construct_nodeIJS4_EEEvPSt13_Rb_tree_nodeIS4_EDpOT_
FN:590,_ZNSt8_Rb_treeIP11QPushButtonSt4pairIKS1_iESt10_Select1stIS4_ESt4lessIS1_ESaIS4_EE17_M_construct_nodeIJRKS4_EEEvPSt13_Rb_tree_nodeIS4_EDpOT_
FNDA:0,_ZNSt8_Rb_treeIP11QPushButtonSt4pairIKS1_iESt10_Select1stIS4_ESt4lessIS1_ESaIS4_EE17_M_construct_nodeIJRKS4_EEEvPSt13_Rb_tree_nodeIS4_EDpOT_
FN:609,_ZNSt8_Rb_treeIP11QPushButtonSt4pairIKS1_iESt10_Select1stIS4_ESt4lessIS1_ESaIS4_EE14_M_create_nodeIJRKS4_EEEPSt13_Rb_tree_nodeIS4_EDpOT_
FNDA:0,_ZNSt8_Rb_treeIP11QPushButtonSt4pairIKS1_iESt10_Select1stIS4_ESt4lessIS1_ESaIS4_EE14_M_create_nodeIJRKS4_EEEPSt13_Rb_tree_nodeIS4_EDpOT_
FN:609,_ZNSt8_Rb_treeIP6QLabelSt4pairIKS1_iESt10_Select1stIS4_ESt4lessIS1_ESaIS4_EE14_M_create_nodeIJRKS4_EEEPSt13_Rb_tree_nodeIS4_EDpOT_
FNDA:0,_ZNSt8_Rb_treeIP6QLabelSt4pairIKS1_iESt10_Select1stIS4_ESt4lessIS1_ESaIS4_EE14_M_create_nodeIJRKS4_EEEPSt13_Rb_tree_nodeIS4_EDpOT_
FN:609,_ZNSt8_Rb_treeIP6QLabelSt4pairIKS1_iESt10_Select1stIS4_ESt4lessIS1_ESaIS4_EE14_M_create_nodeIJS4_EEEPSt13_Rb_tree_nodeIS4_EDpOT_
FNDA:48,_ZNSt8_Rb_treeIP6QLabelSt4pairIKS1_iESt10_Select1stIS4_ESt4lessIS1_ESaIS4_EE14_M_create_nodeIJS4_EEEPSt13_Rb_tree_nodeIS4_EDpOT_
FN:609,_ZNSt8_Rb_treeIP11QPushButtonSt4pairIKS1_iESt10_Select1stIS4_ESt4lessIS1_ESaIS4_EE14_M_create_nodeIJS4_EEEPSt13_Rb_tree_nodeIS4_EDpOT_
FNDA:0,_ZNSt8_Rb_treeIP11QPushButtonSt4pairIKS1_iESt10_Select1stIS4_ESt4lessIS1_ESaIS4_EE14_M_create_nodeIJS4_EEEPSt13_Rb_tree_nodeIS4_EDpOT_
FN:618,_ZNSt8_Rb_treeIP6QLabelSt4pairIKS1_iESt10_Select1stIS4_ESt4lessIS1_ESaIS4_EE15_M_destroy_nodeEPSt13_Rb_tree_nodeIS4_E
FNDA:8,_ZNSt8_Rb_treeIP6QLabelSt4pairIKS1_iESt10_Select1stIS4_ESt4lessIS1_ESaIS4_EE15_M_destroy_nodeEPSt13_Rb_tree_nodeIS4_E
FN:618,_ZNSt8_Rb_treeIP11QPushButtonSt4pairIKS1_iESt10_Select1stIS4_ESt4lessIS1_ESaIS4_EE15_M_destroy_nodeEPSt13_Rb_tree_nodeIS4_E
FNDA:0,_ZNSt8_Rb_treeIP11QPushButtonSt4pairIKS1_iESt10_Select1stIS4_ESt4lessIS1_ESaIS4_EE15_M_destroy_nodeEPSt13_Rb_tree_nodeIS4_E
FN:629,_ZNSt8_Rb_treeIP6QLabelSt4pairIKS1_iESt10_Select1stIS4_ESt4lessIS1_ESaIS4_EE12_M_drop_nodeEPSt13_Rb_tree_nodeIS4_E
FNDA:8,_ZNSt8_Rb_treeIP6QLabelSt4pairIKS1_iESt10_Select1stIS4_ESt4lessIS1_ESaIS4_EE12_M_drop_nodeEPSt13_Rb_tree_nodeIS4_E
FN:629,_ZNSt8_Rb_treeIP11QPushButtonSt4pairIKS1_iESt10_Select1stIS4_ESt4lessIS1_ESaIS4_EE12_M_drop_nodeEPSt13_Rb_tree_nodeIS4_E
FNDA:0,_ZNSt8_Rb_treeIP11QPushButtonSt4pairIKS1_iESt10_Select1stIS4_ESt4lessIS1_ESaIS4_EE12_M_drop_nodeEPSt13_Rb_tree_nodeIS4_E
FN:637,_ZNSt8_Rb_treeIP6QLabelSt4pairIKS1_iESt10_Select1stIS4_ESt4lessIS1_ESaIS4_EE13_M_clone_nodeILb0ENSA_11_Alloc_nodeEEEPSt13_Rb_tree_nodeIS4_ESF_RT0_
FNDA:0,_ZNSt8_Rb_treeIP6QLabelSt4pairIKS1_iESt10_Select1stIS4_ESt4lessIS1_ESaIS4_EE13_M_clone_nodeILb0ENSA_11_Alloc_nodeEEEPSt13_Rb_tree_nodeIS4_ESF_RT0_
FN:637,_ZNSt8_Rb_treeIP11QPushButtonSt4pairIKS1_iESt10_Select1stIS4_ESt4lessIS1_ESaIS4_EE13_M_clone_nodeILb0ENSA_11_Alloc_nodeEEEPSt13_Rb_tree_nodeIS4_ESF_RT0_
FNDA:0,_ZNSt8_Rb_treeIP11QPushButtonSt4pairIKS1_iESt10_Select1stIS4_ESt4lessIS1_ESaIS4_EE13_M_clone_nodeILb0ENSA_11_Alloc_nodeEEEPSt13_Rb_tree_nodeIS4_ESF_RT0_
FN:667,_ZNSt8_Rb_treeIP6QLabelSt4pairIKS1_iESt10_Select1stIS4_ESt4lessIS1_ESaIS4_EE13_Rb_tree_implIS8_Lb1EEC2Ev
FNDA:6,_ZNSt8_Rb_treeIP6QLabelSt4pairIKS1_iESt10_Select1stIS4_ESt4lessIS1_ESaIS4_EE13_Rb_tree_implIS8_Lb1EEC2Ev
FN:667,_ZNSt8_Rb_treeIP11QPushButtonSt4pairIKS1_iESt10_Select1stIS4_ESt4lessIS1_ESaIS4_EE13_Rb_tree_implIS8_Lb1EEC2Ev
FNDA:0,_ZNSt8_Rb_treeIP11QPushButtonSt4pairIKS1_iESt10_Select1stIS4_ESt4lessIS1_ESaIS4_EE13_Rb_tree_implIS8_Lb1EEC2Ev
FN:674,_ZNSt8_Rb_treeIP11QPushButtonSt4pairIKS1_iESt10_Select1stIS4_ESt4lessIS1_ESaIS4_EE13_Rb_tree_implIS8_Lb1EEC2ERKSC_
FNDA:0,_ZNSt8_Rb_treeIP11QPushButtonSt4pairIKS1_iESt10_Select1stIS4_ESt4lessIS1_ESaIS4_EE13_Rb_tree_implIS8_Lb1EEC2ERKSC_
FN:674,_ZNSt8_Rb_treeIP6QLabelSt4pairIKS1_iESt10_Select1stIS4_ESt4lessIS1_ESaIS4_EE13_Rb_tree_implIS8_Lb1EEC2ERKSC_
FNDA:0,_ZNSt8_Rb_treeIP6QLabelSt4pairIKS1_iESt10_Select1stIS4_ESt4lessIS1_ESaIS4_EE13_Rb_tree_implIS8_Lb1EEC2ERKSC_
FN:710,_ZNSt8_Rb_treeIP6QLabelSt4pairIKS1_iESt10_Select1stIS4_ESt4lessIS1_ESaIS4_EE7_M_rootEv
FNDA:0,_ZNSt8_Rb_treeIP6QLabelSt4pairIKS1_iESt10_Select1stIS4_ESt4lessIS1_ESaIS4_EE7_M_rootEv
FN:710,_ZNSt8_Rb_treeIP11QPushButtonSt4pairIKS1_iESt10_Select1stIS4_ESt4lessIS1_ESaIS4_EE7_M_rootEv
FNDA:0,_ZNSt8_Rb_treeIP11QPushButtonSt4pairIKS1_iESt10_Select1stIS4_ESt4lessIS1_ESaIS4_EE7_M_rootEv
FN:714,_ZNKSt8_Rb_treeIP6QLabelSt4pairIKS1_iESt10_Select1stIS4_ESt4lessIS1_ESaIS4_EE7_M_rootEv
FNDA:0,_ZNKSt8_Rb_treeIP6QLabelSt4pairIKS1_iESt10_Select1stIS4_ESt4lessIS1_ESaIS4_EE7_M_rootEv
FN:714,_ZNKSt8_Rb_treeIP11QPushButtonSt4pairIKS1_iESt10_Select1stIS4_ESt4lessIS1_ESaIS4_EE7_M_rootEv
FNDA:0,_ZNKSt8_Rb_treeIP11QPushButtonSt4pairIKS1_iESt10_Select1stIS4_ESt4lessIS1_ESaIS4_EE7_M_rootEv
FN:718,_ZNSt8_Rb_treeIP6QLabelSt4pairIKS1_iESt10_Select1stIS4_ESt4lessIS1_ESaIS4_EE11_M_leftmostEv
FNDA:0,_ZNSt8_Rb_treeIP6QLabelSt4pairIKS1_iESt10_Select1stIS4_ESt4lessIS1_ESaIS4_EE11_M_leftmostEv
FN:718,_ZNSt8_Rb_treeIP11QPushButtonSt4pairIKS1_iESt10_Select1stIS4_ESt4lessIS1_ESaIS4_EE11_M_leftmostEv
FNDA:0,_ZNSt8_Rb_treeIP11QPushButtonSt4pairIKS1_iESt10_Select1stIS4_ESt4lessIS1_ESaIS4_EE11_M_leftmostEv
FN:726,_ZNSt8_Rb_treeIP6QLabelSt4pairIKS1_iESt10_Select1stIS4_ESt4lessIS1_ESaIS4_EE12_M_rightmostEv
FNDA:0,_ZNSt8_Rb_treeIP6QLabelSt4pairIKS1_iESt10_Select1stIS4_ESt4lessIS1_ESaIS4_EE12_M_rightmostEv
FN:726,_ZNSt8_Rb_treeIP11QPushButtonSt4pairIKS1_iESt10_Select1stIS4_ESt4lessIS1_ESaIS4_EE12_M_rightmostEv
FNDA:0,_ZNSt8_Rb_treeIP11QPushButtonSt4pairIKS1_iESt10_Select1stIS4_ESt4lessIS1_ESaIS4_EE12_M_rightmostEv
FN:734,_ZNKSt8_Rb_treeIP11QPushButtonSt4pairIKS1_iESt10_Select1stIS4_ESt4lessIS1_ESaIS4_EE9_M_mbeginEv
FNDA:0,_ZNKSt8_Rb_treeIP11QPushButtonSt4pairIKS1_iESt10_Select1stIS4_ESt4lessIS1_ESaIS4_EE9_M_mbeginEv
FN:734,_ZNKSt8_Rb_treeIP6QLabelSt4pairIKS1_iESt10_Select1stIS4_ESt4lessIS1_ESaIS4_EE9_M_mbeginEv
FNDA:97,_ZNKSt8_Rb_treeIP6QLabelSt4pairIKS1_iESt10_Select1stIS4_ESt4lessIS1_ESaIS4_EE9_M_mbeginEv
FN:738,_ZNSt8_Rb_treeIP11QPushButtonSt4pairIKS1_iESt10_Select1stIS4_ESt4lessIS1_ESaIS4_EE8_M_beginEv
FNDA:0,_ZNSt8_Rb_treeIP11QPushButtonSt4pairIKS1_iESt10_Select1stIS4_ESt4lessIS1_ESaIS4_EE8_M_beginEv
FN:738,_ZNSt8_Rb_treeIP6QLabelSt4pairIKS1_iESt10_Select1stIS4_ESt4lessIS1_ESaIS4_EE8_M_beginEv
FNDA:97,_ZNSt8_Rb_treeIP6QLabelSt4pairIKS1_iESt10_Select1stIS4_ESt4lessIS1_ESaIS4_EE8_M_beginEv
FN:749,_ZNSt8_Rb_treeIP6QLabelSt4pairIKS1_iESt10_Select1stIS4_ESt4lessIS1_ESaIS4_EE6_M_endEv
FNDA:144,_ZNSt8_Rb_treeIP6QLabelSt4pairIKS1_iESt10_Select1stIS4_ESt4lessIS1_ESaIS4_EE6_M_endEv
FN:749,_ZNSt8_Rb_treeIP11QPushButtonSt4pairIKS1_iESt10_Select1stIS4_ESt4lessIS1_ESaIS4_EE6_M_endEv
FNDA:0,_ZNSt8_Rb_treeIP11QPushButtonSt4pairIKS1_iESt10_Select1stIS4_ESt4lessIS1_ESaIS4_EE6_M_endEv
FN:757,_ZNSt8_Rb_treeIP11QPushButtonSt4pairIKS1_iESt10_Select1stIS4_ESt4lessIS1_ESaIS4_EE6_S_keyEPKSt13_Rb_tree_nodeIS4_E
FNDA:0,_ZNSt8_Rb_treeIP11QPushButtonSt4pairIKS1_iESt10_Select1stIS4_ESt4lessIS1_ESaIS4_EE6_S_keyEPKSt13_Rb_tree_nodeIS4_E
FN:757,_ZNSt8_Rb_treeIP6QLabelSt4pairIKS1_iESt10_Select1stIS4_ESt4lessIS1_ESaIS4_EE6_S_keyEPKSt13_Rb_tree_nodeIS4_E
FNDA:291,_ZNSt8_Rb_treeIP6QLabelSt4pairIKS1_iESt10_Select1stIS4_ESt4lessIS1_ESaIS4_EE6_S_keyEPKSt13_Rb_tree_nodeIS4_E
FN:779,_ZNSt8_Rb_treeIP11QPushButtonSt4pairIKS1_iESt10_Select1stIS4_ESt4lessIS1_ESaIS4_EE7_S_leftEPSt18_Rb_tree_node_base
FNDA:0,_ZNSt8_Rb_treeIP11QPushButtonSt4pairIKS1_iESt10_Select1stIS4_ESt4lessIS1_ESaIS4_EE7_S_leftEPSt18_Rb_tree_node_base
FN:779,_ZNSt8_Rb_treeIP6QLabelSt4pairIKS1_iESt10_Select1stIS4_ESt4lessIS1_ESaIS4_EE7_S_leftEPSt18_Rb_tree_node_base
FNDA:60,_ZNSt8_Rb_treeIP6QLabelSt4pairIKS1_iESt10_Select1stIS4_ESt4lessIS1_ESaIS4_EE7_S_leftEPSt18_Rb_tree_node_base
FN:787,_ZNSt8_Rb_treeIP11QPushButtonSt4pairIKS1_iESt10_Select1stIS4_ESt4lessIS1_ESaIS4_EE8_S_rightEPSt18_Rb_tree_node_base
FNDA:0,_ZNSt8_Rb_treeIP11QPushButtonSt4pairIKS1_iESt10_Select1stIS4_ESt4lessIS1_ESaIS4_EE8_S_rightEPSt18_Rb_tree_node_base
FN:787,_ZNSt8_Rb_treeIP6QLabelSt4pairIKS1_iESt10_Select1stIS4_ESt4lessIS1_ESaIS4_EE8_S_rightEPSt18_Rb_tree_node_base
FNDA:152,_ZNSt8_Rb_treeIP6QLabelSt4pairIKS1_iESt10_Select1stIS4_ESt4lessIS1_ESaIS4_EE8_S_rightEPSt18_Rb_tree_node_base
FN:795,_ZNSt8_Rb_treeIP11QPushButtonSt4pairIKS1_iESt10_Select1stIS4_ESt4lessIS1_ESaIS4_EE6_S_keyEPKSt18_Rb_tree_node_base
FNDA:0,_ZNSt8_Rb_treeIP11QPushButtonSt4pairIKS1_iESt10_Select1stIS4_ESt4lessIS1_ESaIS4_EE6_S_keyEPKSt18_Rb_tree_node_base
FN:795,_ZNSt8_Rb_treeIP6QLabelSt4pairIKS1_iESt10_Select1stIS4_ESt4lessIS1_ESaIS4_EE6_S_keyEPKSt18_Rb_tree_node_base
FNDA:95,_ZNSt8_Rb_treeIP6QLabelSt4pairIKS1_iESt10_Select1stIS4_ESt4lessIS1_ESaIS4_EE6_S_keyEPKSt18_Rb_tree_node_base
FN:799,_ZNSt8_Rb_treeIP11QPushButtonSt4pairIKS1_iESt10_Select1stIS4_ESt4lessIS1_ESaIS4_EE10_S_minimumEPSt18_Rb_tree_node_base
FNDA:0,_ZNSt8_Rb_treeIP11QPushButtonSt4pairIKS1_iESt10_Select1stIS4_ESt4lessIS1_ESaIS4_EE10_S_minimumEPSt18_Rb_tree_node_base
FN:799,_ZNSt8_Rb_treeIP6QLabelSt4pairIKS1_iESt10_Select1stIS4_ESt4lessIS1_ESaIS4_EE10_S_minimumEPSt18_Rb_tree_node_base
FNDA:0,_ZNSt8_Rb_treeIP6QLabelSt4pairIKS1_iESt10_Select1stIS4_ESt4lessIS1_ESaIS4_EE10_S_minimumEPSt18_Rb_tree_node_base
FN:807,_ZNSt8_Rb_treeIP11QPushButtonSt4pairIKS1_iESt10_Select1stIS4_ESt4lessIS1_ESaIS4_EE10_S_maximumEPSt18_Rb_tree_node_base
FNDA:0,_ZNSt8_Rb_treeIP11QPushButtonSt4pairIKS1_iESt10_Select1stIS4_ESt4lessIS1_ESaIS4_EE10_S_maximumEPSt18_Rb_tree_node_base
FN:807,_ZNSt8_Rb_treeIP6QLabelSt4pairIKS1_iESt10_Select1stIS4_ESt4lessIS1_ESaIS4_EE10_S_maximumEPSt18_Rb_tree_node_base
FNDA:0,_ZNSt8_Rb_treeIP6QLabelSt4pairIKS1_iESt10_Select1stIS4_ESt4lessIS1_ESaIS4_EE10_S_maximumEPSt18_Rb_tree_node_base
FN:887,_ZNSt8_Rb_treeIP6QLabelSt4pairIKS1_iESt10_Select1stIS4_ESt4lessIS1_ESaIS4_EE7_M_copyILb0ENSA_11_Alloc_nodeEEEPSt13_Rb_tree_nodeIS4_ERKSA_RT0_
FNDA:0,_ZNSt8_Rb_treeIP6QLabelSt4pairIKS1_iESt10_Select1stIS4_ESt4lessIS1_ESaIS4_EE7_M_copyILb0ENSA_11_Alloc_nodeEEEPSt13_Rb_tree_nodeIS4_ERKSA_RT0_
FN:887,_ZNSt8_Rb_treeIP11QPushButtonSt4pairIKS1_iESt10_Select1stIS4_ESt4lessIS1_ESaIS4_EE7_M_copyILb0ENSA_11_Alloc_nodeEEEPSt13_Rb_tree_nodeIS4_ERKSA_RT0_
FNDA:0,_ZNSt8_Rb_treeIP11QPushButtonSt4pairIKS1_iESt10_Select1stIS4_ESt4lessIS1_ESaIS4_EE7_M_copyILb0ENSA_11_Alloc_nodeEEEPSt13_Rb_tree_nodeIS4_ERKSA_RT0_
FN:898,_ZNSt8_Rb_treeIP11QPushButtonSt4pairIKS1_iESt10_Select1stIS4_ESt4lessIS1_ESaIS4_EE7_M_copyERKSA_
FNDA:0,_ZNSt8_Rb_treeIP11QPushButtonSt4pairIKS1_iESt10_Select1stIS4_ESt4lessIS1_ESaIS4_EE7_M_copyERKSA_
FN:898,_ZNSt8_Rb_treeIP6QLabelSt4pairIKS1_iESt10_Select1stIS4_ESt4lessIS1_ESaIS4_EE7_M_copyERKSA_
FNDA:0,_ZNSt8_Rb_treeIP6QLabelSt4pairIKS1_iESt10_Select1stIS4_ESt4lessIS1_ESaIS4_EE7_M_copyERKSA_
FN:928,_ZNSt8_Rb_treeIP11QPushButtonSt4pairIKS1_iESt10_Select1stIS4_ESt4lessIS1_ESaIS4_EEC2Ev
FNDA:0,_ZNSt8_Rb_treeIP11QPushButtonSt4pairIKS1_iESt10_Select1stIS4_ESt4lessIS1_ESaIS4_EEC2Ev
FN:928,_ZNSt8_Rb_treeIP6QLabelSt4pairIKS1_iESt10_Select1stIS4_ESt4lessIS1_ESaIS4_EEC2Ev
FNDA:6,_ZNSt8_Rb_treeIP6QLabelSt4pairIKS1_iESt10_Select1stIS4_ESt4lessIS1_ESaIS4_EEC2Ev
FN:935,_ZNSt8_Rb_treeIP11QPushButtonSt4pairIKS1_iESt10_Select1stIS4_ESt4lessIS1_ESaIS4_EEC2ERKSA_
FNDA:0,_ZNSt8_Rb_treeIP11QPushButtonSt4pairIKS1_iESt10_Select1stIS4_ESt4lessIS1_ESaIS4_EEC2ERKSA_
FN:935,_ZNSt8_Rb_treeIP6QLabelSt4pairIKS1_iESt10_Select1stIS4_ESt4lessIS1_ESaIS4_EEC2ERKSA_
FNDA:0,_ZNSt8_Rb_treeIP6QLabelSt4pairIKS1_iESt10_Select1stIS4_ESt4lessIS1_ESaIS4_EEC2ERKSA_
FN:983,_ZNSt8_Rb_treeIP11QPushButtonSt4pairIKS1_iESt10_Select1stIS4_ESt4lessIS1_ESaIS4_EED2Ev
FNDA:0,_ZNSt8_Rb_treeIP11QPushButtonSt4pairIKS1_iESt10_Select1stIS4_ESt4lessIS1_ESaIS4_EED2Ev
FN:983,_ZNSt8_Rb_treeIP6QLabelSt4pairIKS1_iESt10_Select1stIS4_ESt4lessIS1_ESaIS4_EED2Ev
FNDA:1,_ZNSt8_Rb_treeIP6QLabelSt4pairIKS1_iESt10_Select1stIS4_ESt4lessIS1_ESaIS4_EED2Ev
FN:995,_ZNSt8_Rb_treeIP11QPushButtonSt4pairIKS1_iESt10_Select1stIS4_ESt4lessIS1_ESaIS4_EE5beginEv
FNDA:0,_ZNSt8_Rb_treeIP11QPushButtonSt4pairIKS1_iESt10_Select1stIS4_ESt4lessIS1_ESaIS4_EE5beginEv
FN:995,_ZNSt8_Rb_treeIP6QLabelSt4pairIKS1_iESt10_Select1stIS4_ESt4lessIS1_ESaIS4_EE5beginEv
FNDA:20,_ZNSt8_Rb_treeIP6QLabelSt4pairIKS1_iESt10_Select1stIS4_ESt4lessIS1_ESaIS4_EE5beginEv
FN:999,_ZNKSt8_Rb_treeIP11QPushButtonSt4pairIKS1_iESt10_Select1stIS4_ESt4lessIS1_ESaIS4_EE5beginEv
FNDA:0,_ZNKSt8_Rb_treeIP11QPushButtonSt4pairIKS1_iESt10_Select1stIS4_ESt4lessIS1_ESaIS4_EE5beginEv
FN:1003,_ZNSt8_Rb_treeIP11QPushButtonSt4pairIKS1_iESt10_Select1stIS4_ESt4lessIS1_ESaIS4_EE3endEv
FNDA:0,_ZNSt8_Rb_treeIP11QPushButtonSt4pairIKS1_iESt10_Select1stIS4_ESt4lessIS1_ESaIS4_EE3endEv
FN:1003,_ZNSt8_Rb_treeIP6QLabelSt4pairIKS1_iESt10_Select1stIS4_ESt4lessIS1_ESaIS4_EE3endEv
FNDA:144,_ZNSt8_Rb_treeIP6QLabelSt4pairIKS1_iESt10_Select1stIS4_ESt4lessIS1_ESaIS4_EE3endEv
FN:1007,_ZNKSt8_Rb_treeIP11QPushButtonSt4pairIKS1_iESt10_Select1stIS4_ESt4lessIS1_ESaIS4_EE3endEv
FNDA:0,_ZNKSt8_Rb_treeIP11QPushButtonSt4pairIKS1_iESt10_Select1stIS4_ESt4lessIS1_ESaIS4_EE3endEv
FN:1031,_ZNKSt8_Rb_treeIP11QPushButtonSt4pairIKS1_iESt10_Select1stIS4_ESt4lessIS1_ESaIS4_EE4sizeEv
FNDA:0,_ZNKSt8_Rb_treeIP11QPushButtonSt4pairIKS1_iESt10_Select1stIS4_ESt4lessIS1_ESaIS4_EE4sizeEv
FN:1771,_ZNSt8_Rb_treeIP6QLabelSt4pairIKS1_iESt10_Select1stIS4_ESt4lessIS1_ESaIS4_EE10_M_insert_IS4_NSA_11_Alloc_nodeEEESt17_Rb_tree_iteratorIS4_EPSt18_Rb_tree_node_baseSG_OT_RT0_
FNDA:48,_ZNSt8_Rb_treeIP6QLabelSt4pairIKS1_iESt10_Select1stIS4_ESt4lessIS1_ESaIS4_EE10_M_insert_IS4_NSA_11_Alloc_nodeEEESt17_Rb_tree_iteratorIS4_EPSt18_Rb_tree_node_baseSG_OT_RT0_
FN:1771,_ZNSt8_Rb_treeIP11QPushButtonSt4pairIKS1_iESt10_Select1stIS4_ESt4lessIS1_ESaIS4_EE10_M_insert_IS4_NSA_11_Alloc_nodeEEESt17_Rb_tree_iteratorIS4_EPSt18_Rb_tree_node_baseSG_OT_RT0_
FNDA:0,_ZNSt8_Rb_treeIP11QPushButtonSt4pairIKS1_iESt10_Select1stIS4_ESt4lessIS1_ESaIS4_EE10_M_insert_IS4_NSA_11_Alloc_nodeEEESt17_Rb_tree_iteratorIS4_EPSt18_Rb_tree_node_baseSG_OT_RT0_
FN:1845,_ZNSt8_Rb_treeIP6QLabelSt4pairIKS1_iESt10_Select1stIS4_ESt4lessIS1_ESaIS4_EE7_M_copyILb0ENSA_11_Alloc_nodeEEEPSt13_Rb_tree_nodeIS4_ESF_PSt18_Rb_tree_node_baseRT0_
FNDA:0,_ZNSt8_Rb_treeIP6QLabelSt4pairIKS1_iESt10_Select1stIS4_ESt4lessIS1_ESaIS4_EE7_M_copyILb0ENSA_11_Alloc_nodeEEEPSt13_Rb_tree_nodeIS4_ESF_PSt18_Rb_tree_node_baseRT0_
FN:1845,_ZNSt8_Rb_treeIP11QPushButtonSt4pairIKS1_iESt10_Select1stIS4_ESt4lessIS1_ESaIS4_EE7_M_copyILb0ENSA_11_Alloc_nodeEEEPSt13_Rb_tree_nodeIS4_ESF_PSt18_Rb_tree_node_baseRT0_
FNDA:0,_ZNSt8_Rb_treeIP11QPushButtonSt4pairIKS1_iESt10_Select1stIS4_ESt4lessIS1_ESaIS4_EE7_M_copyILb0ENSA_11_Alloc_nodeEEEPSt13_Rb_tree_nodeIS4_ESF_PSt18_Rb_tree_node_baseRT0_
FN:1883,_ZNSt8_Rb_treeIP11QPushButtonSt4pairIKS1_iESt10_Select1stIS4_ESt4lessIS1_ESaIS4_EE8_M_eraseEPSt13_Rb_tree_nodeIS4_E
FNDA:0,_ZNSt8_Rb_treeIP11QPushButtonSt4pairIKS1_iESt10_Select1stIS4_ESt4lessIS1_ESaIS4_EE8_M_eraseEPSt13_Rb_tree_nodeIS4_E
FN:1883,_ZNSt8_Rb_treeIP6QLabelSt4pairIKS1_iESt10_Select1stIS4_ESt4lessIS1_ESaIS4_EE8_M_eraseEPSt13_Rb_tree_nodeIS4_E
FNDA:9,_ZNSt8_Rb_treeIP6QLabelSt4pairIKS1_iESt10_Select1stIS4_ESt4lessIS1_ESaIS4_EE8_M_eraseEPSt13_Rb_tree_nodeIS4_E
FN:1900,_ZNSt8_Rb_treeIP6QLabelSt4pairIKS1_iESt10_Select1stIS4_ESt4lessIS1_ESaIS4_EE14_M_lower_boundEPSt13_Rb_tree_nodeIS4_EPSt18_Rb_tree_node_baseRS3_
FNDA:48,_ZNSt8_Rb_treeIP6QLabelSt4pairIKS1_iESt10_Select1stIS4_ESt4lessIS1_ESaIS4_EE14_M_lower_boundEPSt13_Rb_tree_nodeIS4_EPSt18_Rb_tree_node_baseRS3_
FN:1900,_ZNSt8_Rb_treeIP11QPushButtonSt4pairIKS1_iESt10_Select1stIS4_ESt4lessIS1_ESaIS4_EE14_M_lower_boundEPSt13_Rb_tree_nodeIS4_EPSt18_Rb_tree_node_baseRS3_
FNDA:0,_ZNSt8_Rb_treeIP11QPushButtonSt4pairIKS1_iESt10_Select1stIS4_ESt4lessIS1_ESaIS4_EE14_M_lower_boundEPSt13_Rb_tree_nodeIS4_EPSt18_Rb_tree_node_baseRS3_
FN:2061,_ZNSt8_Rb_treeIP6QLabelSt4pairIKS1_iESt10_Select1stIS4_ESt4lessIS1_ESaIS4_EE24_M_get_insert_unique_posERS3_
FNDA:48,_ZNSt8_Rb_treeIP6QLabelSt4pairIKS1_iESt10_Select1stIS4_ESt4lessIS1_ESaIS4_EE24_M_get_insert_unique_posERS3_
FN:2061,_ZNSt8_Rb_treeIP11QPushButtonSt4pairIKS1_iESt10_Select1stIS4_ESt4lessIS1_ESaIS4_EE24_M_get_insert_unique_posERS3_
FNDA:0,_ZNSt8_Rb_treeIP11QPushButtonSt4pairIKS1_iESt10_Select1stIS4_ESt4lessIS1_ESaIS4_EE24_M_get_insert_unique_posERS3_
FN:2115,_ZNSt8_Rb_treeIP11QPushButtonSt4pairIKS1_iESt10_Select1stIS4_ESt4lessIS1_ESaIS4_EE16_M_insert_uniqueIS4_EES2_ISt17_Rb_tree_iteratorIS4_EbEOT_
FNDA:0,_ZNSt8_Rb_treeIP11QPushButtonSt4pairIKS1_iESt10_Select1stIS4_ESt4lessIS1_ESaIS4_EE16_M_insert_uniqueIS4_EES2_ISt17_Rb_tree_iteratorIS4_EbEOT_
FN:2115,_ZNSt8_Rb_treeIP6QLabelSt4pairIKS1_iESt10_Select1stIS4_ESt4lessIS1_ESaIS4_EE16_M_insert_uniqueIS4_EES2_ISt17_Rb_tree_iteratorIS4_EbEOT_
FNDA:48,_ZNSt8_Rb_treeIP6QLabelSt4pairIKS1_iESt10_Select1stIS4_ESt4lessIS1_ESaIS4_EE16_M_insert_uniqueIS4_EES2_ISt17_Rb_tree_iteratorIS4_EbEOT_
FN:2520,_ZNSt8_Rb_treeIP11QPushButtonSt4pairIKS1_iESt10_Select1stIS4_ESt4lessIS1_ESaIS4_EE4findERS3_
FNDA:0,_ZNSt8_Rb_treeIP11QPushButtonSt4pairIKS1_iESt10_Select1stIS4_ESt4lessIS1_ESaIS4_EE4findERS3_
FN:2520,_ZNSt8_Rb_treeIP6QLabelSt4pairIKS1_iESt10_Select1stIS4_ESt4lessIS1_ESaIS4_EE4findERS3_
FNDA:48,_ZNSt8_Rb_treeIP6QLabelSt4pairIKS1_iESt10_Select1stIS4_ESt4lessIS1_ESaIS4_EE4findERS3_
DA:112,0
DA:114,0
BRDA:114,0,0,-
BRDA:114,0,1,-
DA:115,0
DA:126,0
DA:128,0
BRDA:128,0,0,-
BRDA:128,0,1,-
DA:129,0
DA:146,6
DA:150,6
DA:146,0
DA:150,0
DA:152,0
DA:154,0
DA:152,0
DA:154,0
DA:173,0
DA:174,0
DA:175,0
DA:176,0
DA:177,0
DA:206,0
DA:208,0
DA:209,0
DA:210,0
DA:211,0
DA:212,0
DA:234,104
DA:235,104
DA:234,0
DA:235,0
DA:238,291
DA:239,291
DA:238,0
DA:239,0
DA:273,308
DA:274,308
DA:273,0
DA:274,0
DA:281,48
DA:282,48
DA:281,0
DA:282,0
DA:300,6
DA:302,6
DA:303,6
DA:300,0
DA:302,0
DA:303,0
DA:315,116
DA:316,116
DA:315,0
DA:316,0
DA:347,0
DA:348,0
DA:358,0
DA:359,0
DA:366,0
DA:368,0
DA:369,0
DA:401,0
DA:402,0
DA:523,48
DA:524,48
DA:523,0
DA:524,0
DA:528,0
DA:529,0
DA:528,0
DA:529,0
DA:528,48
DA:529,48
DA:528,0
DA:529,0
DA:547,112
DA:548,112
DA:547,0
DA:548,0
DA:560,48
DA:561,48
DA:560,0
DA:561,0
DA:564,8
DA:565,8
DA:564,0
DA:565,0
DA:590,0
DA:594,0
DA:595,0
DA:605,0
DA:590,0
DA:594,0
DA:595,0
DA:605,0
DA:590,48
DA:594,48
DA:595,48
DA:605,48
DA:590,0
DA:594,0
DA:595,0
DA:605,0
DA:609,0
DA:611,0
DA:612,0
DA:613,0
DA:609,0
DA:611,0
DA:612,0
DA:613,0
DA:609,48
DA:611,48
DA:612,48
DA:613,48
DA:609,0
DA:611,0
DA:612,0
DA:613,0
DA:618,8
DA:623,8
DA:624,8
DA:626,8
DA:618,0
DA:623,0
DA:624,0
DA:626,0
DA:629,8
DA:631,8
DA:632,8
DA:633,8
DA:629,0
DA:631,0
DA:632,0
DA:633,0
DA:637,0
DA:645,0
DA:646,0
DA:647,0
DA:648,0
DA:649,0
DA:637,0
DA:645,0
DA:646,0
DA:647,0
DA:648,0
DA:649,0
DA:667,6
DA:671,6
DA:672,6
DA:667,0
DA:671,0
DA:672,0
DA:674,0
DA:676,0
DA:677,0
DA:678,0
DA:674,0
DA:676,0
DA:677,0
DA:678,0
DA:710,0
DA:711,0
DA:710,0
DA:711,0
DA:714,0
DA:715,0
DA:714,0
DA:715,0
DA:718,0
DA:719,0
DA:718,0
DA:719,0
DA:726,0
DA:727,0
DA:726,0
DA:727,0
DA:734,97
DA:735,97
DA:734,0
DA:735,0
DA:738,97
DA:739,97
DA:738,0
DA:739,0
DA:749,144
DA:750,144
DA:749,0
DA:750,0
DA:757,291
DA:775,291
DA:757,0
DA:775,0
DA:779,60
DA:780,60
DA:779,0
DA:780,0
DA:787,152
DA:788,152
DA:787,0
DA:788,0
DA:795,95
DA:796,95
DA:795,0
DA:796,0
DA:799,0
DA:800,0
DA:799,0
DA:800,0
DA:807,0
DA:808,0
DA:807,0
DA:808,0
DA:887,0
DA:890,0
DA:891,0
DA:892,0
DA:893,0
DA:894,0
DA:887,0
DA:890,0
DA:891,0
DA:892,0
DA:893,0
DA:894,0
DA:898,0
DA:900,0
DA:901,0
BRDA:901,0,0,-
BRDA:901,0,1,-
DA:898,0
DA:900,0
DA:901,0
BRDA:901,0,0,-
BRDA:901,0,1,-
DA:928,6
DA:928,0
DA:935,0
DA:936,0
DA:938,0
BRDA:938,0,0,-
BRDA:938,0,1,-
DA:939,0
BRDA:939,0,0,-
BRDA:939,0,1,-
DA:940,0
DA:935,0
DA:936,0
DA:938,0
BRDA:938,0,0,-
BRDA:938,0,1,-
DA:939,0
BRDA:939,0,0,-
BRDA:939,0,1,-
DA:940,0
DA:983,1
DA:984,1
DA:983,0
DA:984,0
DA:995,20
DA:996,20
DA:995,0
DA:996,0
DA:999,0
DA:1000,0
DA:1003,144
DA:1004,144
DA:1003,0
DA:1004,0
DA:1007,0
DA:1008,0
DA:1031,0
DA:1032,0
DA:1771,48
DA:1780,48
BRDA:1780,0,0,42
BRDA:1780,0,1,6
DA:1781,96
BRDA:1781,0,0,48
BRDA:1781,0,1,0
BRDA:1781,0,2,14
BRDA:1781,0,3,28
DA:1782,42
BRDA:1782,0,0,42
BRDA:1782,0,1,0
DA:1784,48
DA:1786,48
DA:1787,48
DA:1788,48
DA:1789,48
DA:1771,0
DA:1780,0
BRDA:1780,0,0,-
BRDA:1780,0,1,-
DA:1781,0
BRDA:1781,0,0,-
BRDA:1781,0,1,-
BRDA:1781,0,2,-
BRDA:1781,0,3,-
DA:1782,0
BRDA:1782,0,0,-
BRDA:1782,0,1,-
DA:1784,0
DA:1786,0
DA:1787,0
DA:1788,0
DA:1789,0
DA:1845,0
DA:1849,0
DA:1850,0
DA:1854,0
BRDA:1854,0,0,-
BRDA:1854,0,1,-
DA:1855,0
DA:1856,0
BRDA:1856,0,0,-
BRDA:1856,0,1,-
DA:1857,0
DA:1858,0
DA:1860,0
BRDA:1860,0,0,-
BRDA:1860,0,1,-
DA:1862,0
BRDA:1862,0,0,-
BRDA:1862,0,1,-
DA:1863,0
DA:1864,0
DA:1865,0
BRDA:1865,0,0,-
BRDA:1865,0,1,-
DA:1866,0
BRDA:1866,0,0,-
BRDA:1866,0,1,-
DA:1868,0
DA:1869,0
DA:1872,0
DA:1874,0
BRDA:1874,0,0,0
BRDA:1874,0,1,0
DA:1875,0
DA:1877,0
DA:1845,0
DA:1849,0
DA:1850,0
DA:1854,0
BRDA:1854,0,0,-
BRDA:1854,0,1,-
DA:1855,0
DA:1856,0
BRDA:1856,0,0,-
BRDA:1856,0,1,-
DA:1857,0
DA:1858,0
DA:1860,0
BRDA:1860,0,0,-
BRDA:1860,0,1,-
DA:1862,0
BRDA:1862,0,0,-
BRDA:1862,0,1,-
DA:1863,0
DA:1864,0
DA:1865,0
BRDA:1865,0,0,-
BRDA:1865,0,1,-
DA:1866,0
BRDA:1866,0,0,-
BRDA:1866,0,1,-
DA:1868,0
DA:1869,0
DA:1872,0
DA:1874,0
BRDA:1874,0,0,0
BRDA:1874,0,1,0
DA:1875,0
DA:1877,0
DA:1883,9
DA:1887,17
BRDA:1887,0,0,8
BRDA:1887,0,1,9
DA:1889,8
DA:1890,8
DA:1891,8
DA:1892,8
DA:1894,9
DA:1883,0
DA:1887,0
BRDA:1887,0,0,-
BRDA:1887,0,1,-
DA:1889,0
DA:1890,0
DA:1891,0
DA:1892,0
DA:1894,0
DA:1900,48
DA:1904,146
BRDA:1904,0,0,98
BRDA:1904,0,1,48
DA:1905,98
BRDA:1905,0,0,26
BRDA:1905,0,1,72
DA:1906,26
DA:1908,72
DA:1909,48
DA:1900,0
DA:1904,0
BRDA:1904,0,0,-
BRDA:1904,0,1,-
DA:1905,0
BRDA:1905,0,0,-
BRDA:1905,0,1,-
DA:1906,0
DA:1908,0
DA:1909,0
DA:2061,48
DA:2065,48
DA:2066,48
DA:2067,48
DA:2068,146
BRDA:2068,0,0,98
BRDA:2068,0,1,48
DA:2070,98
DA:2071,98
BRDA:2071,0,0,98
BRDA:2071,0,1,0
DA:2072,98
BRDA:2072,0,0,26
BRDA:2072,0,1,72
DA:2074,48
DA:2075,48
BRDA:2075,0,0,20
BRDA:2075,0,1,28
DA:2077,20
BRDA:2077,0,0,14
BRDA:2077,0,1,6
DA:2078,14
DA:2080,6
DA:2082,34
BRDA:2082,0,0,34
BRDA:2082,0,1,0
BRDA:2082,0,2,34
BRDA:2082,0,3,0
DA:2083,34
DA:2084,0
DA:2061,0
DA:2065,0
DA:2066,0
DA:2067,0
DA:2068,0
BRDA:2068,0,0,-
BRDA:2068,0,1,-
DA:2070,0
DA:2071,0
BRDA:2071,0,0,-
BRDA:2071,0,1,-
DA:2072,0
BRDA:2072,0,0,-
BRDA:2072,0,1,-
DA:2074,0
DA:2075,0
BRDA:2075,0,0,-
BRDA:2075,0,1,-
DA:2077,0
BRDA:2077,0,0,-
BRDA:2077,0,1,-
DA:2078,0
DA:2080,0
DA:2082,0
BRDA:2082,0,0,-
BRDA:2082,0,1,-
BRDA:2082,0,2,-
BRDA:2082,0,3,-
DA:2083,0
DA:2084,0
DA:2115,48
DA:2124,48
BRDA:2124,0,0,48
BRDA:2124,0,1,0
DA:2126,48
BRDA:2126,0,0,48
BRDA:2126,0,1,0
DA:2128,48
DA:2129,48
BRDA:2129,0,0,48
BRDA:2129,0,1,0
DA:2131,48
DA:2134,0
DA:2115,0
DA:2124,0
BRDA:2124,0,0,-
BRDA:2124,0,1,-
DA:2126,0
BRDA:2126,0,0,-
BRDA:2126,0,1,-
DA:2128,0
DA:2129,0
BRDA:2129,0,0,-
BRDA:2129,0,1,-
DA:2131,0
DA:2134,0
DA:2520,48
DA:2523,48
BRDA:2523,0,0,48
BRDA:2523,0,1,0
DA:2524,96
DA:2525,19
BRDA:2525,0,0,19
BRDA:2525,0,1,0
DA:2526,115
BRDA:2526,0,0,19
BRDA:2526,0,1,29
BRDA:2526,0,2,19
BRDA:2526,0,3,0
DA:2520,0
DA:2523,0
BRDA:2523,0,0,-
BRDA:2523,0,1,-
DA:2524,0
DA:2525,0
BRDA:2525,0,0,-
BRDA:2525,0,1,-
DA:2526,0
BRDA:2526,0,0,-
BRDA:2526,0,1,-
BRDA:2526,0,2,-
BRDA:2526,0,3,-
end_of_record
SF:/home/pavle/Qt/6.6.1/gcc_64/include/QtCore/qstringview.h
FN:137,_ZN11QStringView10castHelperI5QCharEEPKDsPKT_
FNDA:0,_ZN11QStringView10castHelperI5QCharEEPKDsPKT_
FN:148,_ZN11QStringViewC2I5QCharLb1EEEPKT_x
FNDA:0,_ZN11QStringViewC2I5QCharLb1EEEPKT_x
FN:179,_ZN11QStringViewC2I7QStringLb1EEERKT_
FNDA:0,_ZN11QStringViewC2I7QStringLb1EEERKT_
DA:137,0
DA:138,0
DA:148,0
DA:153,0
BRDA:153,0,0,-
BRDA:153,0,1,-
BRDA:153,0,2,-
BRDA:153,0,3,-
BRDA:153,0,4,-
BRDA:153,0,5,-
DA:154,0
DA:156,0
DA:179,0
DA:180,0
BRDA:180,0,0,-
BRDA:180,0,1,-
end_of_record
SF:/home/pavle/Qt/6.6.1/gcc_64/include/QtCore/qutf8stringview.h
FN:148,_ZN20QBasicUtf8StringViewILb0EE10castHelperEPKc
FNDA:0,_ZN20QBasicUtf8StringViewILb0EE10castHelperEPKc
FN:158,_ZN20QBasicUtf8StringViewILb0EEC2IcLb1EEEPKT_x
FNDA:0,_ZN20QBasicUtf8StringViewILb0EEC2IcLb1EEEPKT_x
FN:174,_ZN20QBasicUtf8StringViewILb0EEC2IPKcLb1EEERKT_
FNDA:0,_ZN20QBasicUtf8StringViewILb0EEC2IPKcLb1EEERKT_
DA:148,0
DA:149,0
DA:158,0
DA:159,0
DA:160,0
BRDA:160,0,0,-
BRDA:160,0,1,-
BRDA:160,0,2,-
BRDA:160,0,3,-
BRDA:160,0,4,-
BRDA:160,0,5,-
DA:174,0
DA:176,0
BRDA:176,0,0,-
BRDA:176,0,1,-
end_of_record
SF:/usr/include/c++/11/new
FN:174,_ZnwmPv
FNDA:0,_ZnwmPv
DA:174,0
DA:175,0
end_of_record
SF:/usr/include/c++/11/iostream
end_of_record
SF:/home/pavle/Desktop/2023_Analysis_04-slagalica/04-slagalica/src/slagalica/ui_spojniceui.h
FN:75,_ZN13Ui_SpojniceUi7setupUiEP7QWidget
FNDA:5,_ZN13Ui_SpojniceUi7setupUiEP7QWidget
FN:468,_ZN13Ui_SpojniceUi13retranslateUiEP7QWidget
FNDA:5,_ZN13Ui_SpojniceUi13retranslateUiEP7QWidget
DA:75,5
DA:77,5
BRDA:77,0,0,5
BRDA:77,0,1,0
BRDA:77,0,2,5
BRDA:77,0,3,0
DA:78,5
BRDA:78,0,0,5
BRDA:78,0,1,0
DA:79,5
BRDA:79,0,0,5
BRDA:79,0,1,0
DA:80,5
BRDA:80,0,0,5
BRDA:80,0,1,0
BRDA:80,0,2,5
BRDA:80,0,3,0
DA:97,5
BRDA:97,0,0,5
BRDA:97,0,1,0
BRDA:97,0,2,5
BRDA:97,0,3,0
DA:98,5
BRDA:98,0,0,5
BRDA:98,0,1,0
DA:99,5
BRDA:99,0,0,5
BRDA:99,0,1,0
BRDA:99,0,2,5
BRDA:99,0,3,0
DA:100,5
BRDA:100,0,0,5
BRDA:100,0,1,0
DA:101,5
BRDA:101,0,0,5
BRDA:101,0,1,0
BRDA:101,0,2,5
BRDA:101,0,3,0
DA:102,5
BRDA:102,0,0,5
BRDA:102,0,1,0
DA:103,5
BRDA:103,0,0,5
BRDA:103,0,1,0
BRDA:103,0,2,5
BRDA:103,0,3,0
DA:104,5
BRDA:104,0,0,5
BRDA:104,0,1,0
DA:105,5
BRDA:105,0,0,5
BRDA:105,0,1,0
DA:106,5
BRDA:106,0,0,5
BRDA:106,0,1,0
BRDA:106,0,2,5
BRDA:106,0,3,0
DA:107,5
BRDA:107,0,0,5
BRDA:107,0,1,0
DA:108,5
BRDA:108,0,0,5
BRDA:108,0,1,0
DA:109,5
BRDA:109,0,0,5
BRDA:109,0,1,0
DA:110,10
BRDA:110,0,0,5
BRDA:110,0,1,0
BRDA:110,0,2,5
BRDA:110,0,3,0
BRDA:110,0,4,5
BRDA:110,0,5,0
BRDA:110,0,6,5
BRDA:110,0,7,5
BRDA:110,0,8,0
BRDA:110,0,9,0
DA:111,5
BRDA:111,0,0,5
BRDA:111,0,1,0
DA:112,5
BRDA:112,0,0,5
BRDA:112,0,1,0
DA:113,5
BRDA:113,0,0,5
BRDA:113,0,1,0
BRDA:113,0,2,5
BRDA:113,0,3,0
DA:116,5
BRDA:116,0,0,5
BRDA:116,0,1,0
DA:117,5
BRDA:117,0,0,5
BRDA:117,0,1,0
DA:119,5
BRDA:119,0,0,5
BRDA:119,0,1,0
DA:121,5
BRDA:121,0,0,5
BRDA:121,0,1,0
BRDA:121,0,2,5
BRDA:121,0,3,0
DA:122,5
BRDA:122,0,0,5
BRDA:122,0,1,0
DA:123,5
BRDA:123,0,0,5
BRDA:123,0,1,0
BRDA:123,0,2,5
BRDA:123,0,3,0
DA:125,5
BRDA:125,0,0,5
BRDA:125,0,1,0
DA:128,5
BRDA:128,0,0,5
BRDA:128,0,1,0
DA:130,5
BRDA:130,0,0,5
BRDA:130,0,1,0
DA:132,5
BRDA:132,0,0,5
BRDA:132,0,1,0
DA:134,5
BRDA:134,0,0,5
BRDA:134,0,1,0
BRDA:134,0,2,5
BRDA:134,0,3,0
DA:135,5
BRDA:135,0,0,5
BRDA:135,0,1,0
DA:136,5
BRDA:136,0,0,5
BRDA:136,0,1,0
DA:137,5
DA:138,5
BRDA:138,0,0,5
BRDA:138,0,1,0
DA:139,5
BRDA:139,0,0,5
BRDA:139,0,1,0
DA:140,5
BRDA:140,0,0,5
BRDA:140,0,1,0
DA:141,5
BRDA:141,0,0,5
BRDA:141,0,1,0
DA:142,5
BRDA:142,0,0,5
BRDA:142,0,1,0
DA:143,5
BRDA:143,0,0,5
BRDA:143,0,1,0
DA:144,5
BRDA:144,0,0,5
BRDA:144,0,1,0
DA:145,5
BRDA:145,0,0,5
BRDA:145,0,1,0
DA:146,5
BRDA:146,0,0,5
BRDA:146,0,1,0
BRDA:146,0,2,5
BRDA:146,0,3,0
DA:154,5
BRDA:154,0,0,5
BRDA:154,0,1,0
DA:156,5
BRDA:156,0,0,5
BRDA:156,0,1,0
DA:158,5
BRDA:158,0,0,5
BRDA:158,0,1,0
DA:160,5
BRDA:160,0,0,5
BRDA:160,0,1,0
DA:162,5
BRDA:162,0,0,5
BRDA:162,0,1,0
BRDA:162,0,2,5
BRDA:162,0,3,0
DA:163,5
BRDA:163,0,0,5
BRDA:163,0,1,0
DA:164,5
BRDA:164,0,0,5
BRDA:164,0,1,0
DA:165,5
BRDA:165,0,0,5
BRDA:165,0,1,0
BRDA:165,0,2,5
BRDA:165,0,3,0
DA:166,5
BRDA:166,0,0,5
BRDA:166,0,1,0
DA:167,5
BRDA:167,0,0,5
BRDA:167,0,1,0
DA:168,5
BRDA:168,0,0,5
BRDA:168,0,1,0
DA:169,5
BRDA:169,0,0,5
BRDA:169,0,1,0
BRDA:169,0,2,5
BRDA:169,0,3,0
DA:171,5
BRDA:171,0,0,5
BRDA:171,0,1,0
DA:172,5
BRDA:172,0,0,5
BRDA:172,0,1,0
DA:174,5
BRDA:174,0,0,5
BRDA:174,0,1,0
DA:176,5
BRDA:176,0,0,5
BRDA:176,0,1,0
BRDA:176,0,2,5
BRDA:176,0,3,0
DA:177,5
BRDA:177,0,0,5
BRDA:177,0,1,0
DA:178,5
BRDA:178,0,0,5
BRDA:178,0,1,0
BRDA:178,0,2,5
BRDA:178,0,3,0
DA:180,5
BRDA:180,0,0,5
BRDA:180,0,1,0
DA:183,5
BRDA:183,0,0,5
BRDA:183,0,1,0
DA:186,5
BRDA:186,0,0,5
BRDA:186,0,1,0
DA:188,5
BRDA:188,0,0,5
BRDA:188,0,1,0
BRDA:188,0,2,5
BRDA:188,0,3,0
DA:189,5
BRDA:189,0,0,5
BRDA:189,0,1,0
DA:190,5
BRDA:190,0,0,5
BRDA:190,0,1,0
BRDA:190,0,2,5
BRDA:190,0,3,0
DA:191,5
BRDA:191,0,0,5
BRDA:191,0,1,0
DA:192,5
BRDA:192,0,0,5
BRDA:192,0,1,0
BRDA:192,0,2,5
BRDA:192,0,3,0
DA:194,5
BRDA:194,0,0,5
BRDA:194,0,1,0
DA:196,5
BRDA:196,0,0,5
BRDA:196,0,1,0
DA:198,5
BRDA:198,0,0,5
BRDA:198,0,1,0
BRDA:198,0,2,5
BRDA:198,0,3,0
DA:199,5
BRDA:199,0,0,5
BRDA:199,0,1,0
DA:200,5
BRDA:200,0,0,5
BRDA:200,0,1,0
BRDA:200,0,2,5
BRDA:200,0,3,0
DA:201,5
BRDA:201,0,0,5
BRDA:201,0,1,0
DA:202,5
BRDA:202,0,0,5
BRDA:202,0,1,0
BRDA:202,0,2,5
BRDA:202,0,3,0
DA:208,5
BRDA:208,0,0,5
BRDA:208,0,1,0
DA:210,5
BRDA:210,0,0,5
BRDA:210,0,1,0
DA:212,5
BRDA:212,0,0,5
BRDA:212,0,1,0
DA:214,5
BRDA:214,0,0,5
BRDA:214,0,1,0
DA:216,5
BRDA:216,0,0,5
BRDA:216,0,1,0
